 ray

 Timestamp is 58d0e654 (Tue Mar 21 16:37:40 2017)

 Preferred load address is 00400000

 Start         Length     Name                   Class
 0001:00000000 000001e0H .text$di                CODE
 0001:000001e0 000723d0H .text$mn                CODE
 0001:000725b0 000023d0H .text$x                 CODE
 0001:00074980 000000d9H .text$yd                CODE
 0002:00000000 000006b4H .idata$5                DATA
 0002:000006b4 00000004H .00cfg                  DATA
 0002:000006b8 00000004H .CRT$XCA                DATA
 0002:000006bc 00000004H .CRT$XCAA               DATA
 0002:000006c0 00000004H .CRT$XCL                DATA
 0002:000006c4 0000002cH .CRT$XCU                DATA
 0002:000006f0 00000004H .CRT$XCZ                DATA
 0002:000006f4 00000004H .CRT$XIA                DATA
 0002:000006f8 00000004H .CRT$XIAA               DATA
 0002:000006fc 00000004H .CRT$XIAC               DATA
 0002:00000700 00000004H .CRT$XIC                DATA
 0002:00000704 00000004H .CRT$XIZ                DATA
 0002:00000708 00000004H .CRT$XLA                DATA
 0002:0000070c 00000004H .CRT$XLZ                DATA
 0002:00000710 00000004H .CRT$XPA                DATA
 0002:00000714 00000004H .CRT$XPZ                DATA
 0002:00000718 00000004H .CRT$XTA                DATA
 0002:0000071c 00000004H .CRT$XTZ                DATA
 0002:00000720 00007c34H .rdata                  DATA
 0002:00008354 00000018H .rdata$T                DATA
 0002:0000836c 000024a8H .rdata$r                DATA
 0002:0000a814 000003bcH .rdata$zzzdbg           DATA
 0002:0000abd0 00000004H .rtc$IAA                DATA
 0002:0000abd4 00000004H .rtc$IZZ                DATA
 0002:0000abd8 00000004H .rtc$TAA                DATA
 0002:0000abdc 00000004H .rtc$TZZ                DATA
 0002:0000abe0 0000256cH .xdata$x                DATA
 0002:0000d14c 00000000H .edata                  DATA
 0002:0000d14c 000001b8H .idata$2                DATA
 0002:0000d304 00000014H .idata$3                DATA
 0002:0000d318 000006b4H .idata$4                DATA
 0002:0000d9cc 00002458H .idata$6                DATA
 0003:00000000 00001e88H .data                   DATA
 0003:00001e88 00000e68H .data$r                 DATA
 0003:00002cf0 000055e0H .bss                    DATA
 0004:00000000 00000058H .gfids$y                DATA
 0005:00000000 00000004H .tls                    DATA
 0005:00000004 00000004H .tls$                   DATA
 0005:00000008 00000001H .tls$ZZZ                DATA
 0006:00000000 00000060H .rsrc$01                DATA
 0006:00000060 00000180H .rsrc$02                DATA

  Address         Publics by Value              Rva+Base       Lib:Object

 0000:00000000       ___guard_fids_table        00000000     <absolute>
 0000:00000000       ___safe_se_handler_count   00000000     <absolute>
 0000:00000000       ___guard_iat_count         00000000     <absolute>
 0000:00000000       ___guard_longjmp_table     00000000     <absolute>
 0000:00000000       ___guard_fids_count        00000000     <absolute>
 0000:00000000       ___guard_iat_table         00000000     <absolute>
 0000:00000000       ___dynamic_value_reloc_table 00000000     <absolute>
 0000:00000000       ___safe_se_handler_table   00000000     <absolute>
 0000:00000000       ___guard_longjmp_count     00000000     <absolute>
 0000:0000002c       __tls_array                0000002c     <absolute>
 0000:00000100       ___guard_flags             00000100     <absolute>
 0000:00000000       ___ImageBase               00400000     <linker-defined>
 0001:000001e0       ?GetOption@@YAHHPAPADPAD0@Z 004011e0 f   getopt.obj
 0001:000002c0       ?getopt@@YAHHPAPADPAD@Z    004012c0 f   getopt.obj
 0001:00000300       ??$__vcrt_va_start_verify_argument_type@QBD@@YAXXZ 00401300 f i main.obj
 0001:00000310       ??_H@YGXPAXIIP6EPAX0@Z@Z   00401310 f i main.obj
 0001:00000340       ?processArgs@@YA_NHPAPAD@Z 00401340 f   main.obj
 0001:00000430       ?usage@@YAXXZ              00401430 f   main.obj
 0001:00000450       ___local_stdio_printf_options 00401450 f i main.obj
 0001:00000460       _fprintf                   00401460 f i main.obj
 0001:00000490       _main                      00401490 f   main.obj
 0001:000006c0       ??0RayTracer@@QAE@XZ       004016c0 f   RayTracer.obj
 0001:000006f0       ??0vec3f@@QAE@XZ           004016f0 f i RayTracer.obj
 0001:00000700       ??1?$basic_string@DU?$char_traits@D@std@@V?$allocator@D@2@@std@@QAE@XZ 00401700 f i RayTracer.obj
 0001:00000740       ??1ParseError@@QAE@XZ      00401740 f i RayTracer.obj
 0001:00000780       ??1RayTracer@@QAE@XZ       00401780 f   RayTracer.obj
 0001:000007a0       ??1isect@@QAE@XZ           004017a0 f i RayTracer.obj
 0001:000007c0       ?_Copy@?$basic_string@DU?$char_traits@D@std@@V?$allocator@D@2@@std@@QAEXII@Z 004017c0 f i RayTracer.obj
 0001:00000970       ?_Deallocate@std@@YAXPAXII@Z 00401970 f i RayTracer.obj
 0001:000009e0       ?allocate@?$_Wrap_alloc@V?$allocator@D@std@@@std@@QAEPADI@Z 004019e0 f i RayTracer.obj
 0001:00000a40       ?aspectRatio@RayTracer@@QAENXZ 00401a40 f   RayTracer.obj
 0001:00000a80       ?assign@?$basic_string@DU?$char_traits@D@std@@V?$allocator@D@2@@std@@QAEAAV12@ABV12@II@Z 00401a80 f i RayTracer.obj
 0001:00000ba0       ?assign@?$basic_string@DU?$char_traits@D@std@@V?$allocator@D@2@@std@@QAEAAV12@PBDI@Z 00401ba0 f i RayTracer.obj
 0001:00000ca0       ?erase@?$basic_string@DU?$char_traits@D@std@@V?$allocator@D@2@@std@@QAEAAV12@II@Z 00401ca0 f i RayTracer.obj
 0001:00000d40       ?getBuffer@RayTracer@@QAEXAAPAEAAH1@Z 00401d40 f   RayTracer.obj
 0001:00000d60       ?loadScene@RayTracer@@QAE_NPAD@Z 00401d60 f   RayTracer.obj
 0001:00000eb0       ?sceneLoaded@RayTracer@@QAE_NXZ 00401eb0 f   RayTracer.obj
 0001:00000ec0       ?trace@RayTracer@@QAE?AVvec3f@@PAVScene@@NN@Z 00401ec0 f   RayTracer.obj
 0001:00000f90       ?traceLines@RayTracer@@QAEXHH@Z 00401f90 f   RayTracer.obj
 0001:000010f0       ?tracePixel@RayTracer@@QAEXHH@Z 004020f0 f   RayTracer.obj
 0001:00001210       ?traceRay@RayTracer@@QAE?AVvec3f@@PAVScene@@ABVray@@ABV2@H@Z 00402210 f   RayTracer.obj
 0001:000012d0       ?traceSetup@RayTracer@@QAEXHH@Z 004022d0 f   RayTracer.obj
 0001:00001330       ??0TraceGLWindow@@QAE@HHHHPBD@Z 00402330 f   TraceGLWindow.obj
 0001:000013b0       ??_GFl_Gl_Window@@UAEPAXI@Z 004023b0 f i TraceGLWindow.obj
 0001:000013b0       ??_EFl_Gl_Window@@UAEPAXI@Z 004023b0 f i TraceGLWindow.obj
 0001:000013e0       ??_ETraceGLWindow@@UAEPAXI@Z 004023e0 f i TraceGLWindow.obj
 0001:000013e0       ??_GTraceGLWindow@@UAEPAXI@Z 004023e0 f i TraceGLWindow.obj
 0001:00001410       ?as_gl_window@Fl_Gl_Window@@UAEPAV1@XZ 00402410 f i TraceGLWindow.obj
 0001:00001420       ?as_group@Fl_Group@@UAEPAV1@XZ 00402420 f i TraceGLWindow.obj
 0001:00001430       ?as_window@Fl_Window@@UAEPAV1@XZ 00402430 f i TraceGLWindow.obj
 0001:00001440       ?draw@TraceGLWindow@@UAEXXZ 00402440 f   TraceGLWindow.obj
 0001:00001520       ?handle@TraceGLWindow@@UAEHH@Z 00402520 f   TraceGLWindow.obj
 0001:00001530       ?refresh@TraceGLWindow@@QAEXXZ 00402530 f   TraceGLWindow.obj
 0001:00001540       ?resizeWindow@TraceGLWindow@@QAEXHH@Z 00402540 f   TraceGLWindow.obj
 0001:00001570       ?saveImage@TraceGLWindow@@QAEXPAD@Z 00402570 f   TraceGLWindow.obj
 0001:000015c0       ?setRayTracer@TraceGLWindow@@QAEXPAVRayTracer@@@Z 004025c0 f   TraceGLWindow.obj
 0001:000015d0       ?cb_load_scene@TraceUI@@CAXPAVFl_Menu_@@PAX@Z 004025d0 f   TraceUI.obj
 0001:00001670       ?cb_save_image@TraceUI@@CAXPAVFl_Menu_@@PAX@Z 00402670 f   TraceUI.obj
 0001:000016b0       ?cb_exit@TraceUI@@CAXPAVFl_Menu_@@PAX@Z 004026b0 f   TraceUI.obj
 0001:000016e0       ?cb_about@TraceUI@@CAXPAVFl_Menu_@@PAX@Z 004026e0 f   TraceUI.obj
 0001:000016f0       ??0TraceUI@@QAE@XZ         004026f0 f   TraceUI.obj
 0001:00001a40       ?cb_depthSlides@TraceUI@@CAXPAVFl_Widget@@PAX@Z 00402a40 f   TraceUI.obj
 0001:00001a60       ?cb_exit2@TraceUI@@CAXPAVFl_Widget@@PAX@Z 00402a60 f   TraceUI.obj
 0001:00001a90       ?cb_render@TraceUI@@CAXPAVFl_Widget@@PAX@Z 00402a90 f   TraceUI.obj
 0001:00001ca0       ?cb_sizeSlides@TraceUI@@CAXPAVFl_Widget@@PAX@Z 00402ca0 f   TraceUI.obj
 0001:00001cf0       ?cb_stop@TraceUI@@CAXPAVFl_Widget@@PAX@Z 00402cf0 f   TraceUI.obj
 0001:00001d00       ?getDepth@TraceUI@@QAEHXZ  00402d00 f   TraceUI.obj
 0001:00001d10       ?getSize@TraceUI@@QAEHXZ   00402d10 f   TraceUI.obj
 0001:00001d20       ?setRayTracer@TraceUI@@QAEXPAVRayTracer@@@Z 00402d20 f   TraceUI.obj
 0001:00001d40       ?show@TraceUI@@QAEXXZ      00402d40 f   TraceUI.obj
 0001:00001d50       ?whoami@TraceUI@@CAPAV1@PAVFl_Menu_@@@Z 00402d50 f   TraceUI.obj
 0001:00001d60       _sprintf                   00402d60 f i TraceUI.obj
 0001:00001da0       ?readBMP@@YAPAEPADAAH1@Z   00402da0 f   bitmap.obj
 0001:00001f10       ?writeBMP@@YAXPADHHPAE@Z   00402f10 f   bitmap.obj
 0001:000020a0       ??$?0U?$_Wrap_alloc@V?$allocator@U?$_Tree_node@U?$pair@$$CBV?$basic_string@DU?$char_traits@D@std@@V?$allocator@D@2@@std@@PAVObj@@@std@@PAX@std@@@std@@@std@@@?$_Tree@V?$_Tmap_traits@V?$basic_string@DU?$char_traits@D@std@@V?$allocator@D@2@@std@@PAVObj@@U?$less@V?$basic_string@DU?$char_traits@D@std@@V?$allocator@D@2@@std@@@2@V?$allocator@U?$pair@$$CBV?$basic_string@DU?$char_traits@D@std@@V?$allocator@D@2@@std@@PAVObj@@@std@@@2@$0A@@std@@@std@@QAE@ABV01@$$QAU?$_Wrap_alloc@V?$allocator@U?$_Tree_node@U?$pair@$$CBV?$basic_string@DU?$char_traits@D@std@@V?$allocator@D@2@@std@@PAVObj@@@std@@PAX@std@@@std@@@1@@Z 004030a0 f i parse.obj
 0001:00002130       ??$?6DU?$char_traits@D@std@@V?$allocator@D@1@@std@@YAAAV?$basic_ostream@DU?$char_traits@D@std@@@0@AAV10@ABV?$basic_string@DU?$char_traits@D@std@@V?$allocator@D@2@@0@@Z 00403130 f i parse.obj
 0001:00002330       ??$?6U?$char_traits@D@std@@@std@@YAAAV?$basic_ostream@DU?$char_traits@D@std@@@0@AAV10@D@Z 00403330 f i parse.obj
 0001:00002540       ??$?6U?$char_traits@D@std@@@std@@YAAAV?$basic_ostream@DU?$char_traits@D@std@@@0@AAV10@PBD@Z 00403540 f i parse.obj
 0001:00002780       ??$?8DU?$char_traits@D@std@@V?$allocator@D@1@@std@@YA_NABV?$basic_string@DU?$char_traits@D@std@@V?$allocator@D@2@@0@PBD@Z 00403780 f i parse.obj
 0001:000027f0       ??$?HDU?$char_traits@D@std@@V?$allocator@D@1@@std@@YA?AV?$basic_string@DU?$char_traits@D@std@@V?$allocator@D@2@@0@$$QAV10@0@Z 004037f0 f i parse.obj
 0001:00002860       ??$?HDU?$char_traits@D@std@@V?$allocator@D@1@@std@@YA?AV?$basic_string@DU?$char_traits@D@std@@V?$allocator@D@2@@0@$$QAV10@ABV10@@Z 00403860 f i parse.obj
 0001:000028a0       ??$_Buynode@AAU?$pair@$$CBV?$basic_string@DU?$char_traits@D@std@@V?$allocator@D@2@@std@@PAVObj@@@std@@@?$_Tree_comp_alloc@V?$_Tmap_traits@V?$basic_string@DU?$char_traits@D@std@@V?$allocator@D@2@@std@@PAVObj@@U?$less@V?$basic_string@DU?$char_traits@D@std@@V?$allocator@D@2@@std@@@2@V?$allocator@U?$pair@$$CBV?$basic_string@DU?$char_traits@D@std@@V?$allocator@D@2@@std@@PAVObj@@@std@@@2@$0A@@std@@@std@@QAEPAU?$_Tree_node@U?$pair@$$CBV?$basic_string@DU?$char_traits@D@std@@V?$allocator@D@2@@std@@PAVObj@@@std@@PAX@1@AAU?$pair@$$CBV?$basic_string@DU?$char_traits@D@std@@V?$allocator@D@2@@std@@PAVObj@@@1@@Z 004038a0 f i parse.obj
 0001:00002960       ??$_Buynode@ABUpiecewise_construct_t@std@@V?$tuple@ABV?$basic_string@DU?$char_traits@D@std@@V?$allocator@D@2@@std@@@2@V?$tuple@$$V@2@@?$_Tree_comp_alloc@V?$_Tmap_traits@V?$basic_string@DU?$char_traits@D@std@@V?$allocator@D@2@@std@@PAVObj@@U?$less@V?$basic_string@DU?$char_traits@D@std@@V?$allocator@D@2@@std@@@2@V?$allocator@U?$pair@$$CBV?$basic_string@DU?$char_traits@D@std@@V?$allocator@D@2@@std@@PAVObj@@@std@@@2@$0A@@std@@@std@@QAEPAU?$_Tree_node@U?$pair@$$CBV?$basic_string@DU?$char_traits@D@std@@V?$allocator@D@2@@std@@PAVObj@@@std@@PAX@1@ABUpiecewise_construct_t@1@$$QAV?$tuple@ABV?$basic_string@DU?$char_traits@D@std@@V?$allocator@D@2@@std@@@1@$$QAV?$tuple@$$V@1@@Z 00403960 f i parse.obj
 0001:00002a20       ??$_Copy@U_Copy_tag@?$_Tree@V?$_Tmap_traits@V?$basic_string@DU?$char_traits@D@std@@V?$allocator@D@2@@std@@PAVObj@@U?$less@V?$basic_string@DU?$char_traits@D@std@@V?$allocator@D@2@@std@@@2@V?$allocator@U?$pair@$$CBV?$basic_string@DU?$char_traits@D@std@@V?$allocator@D@2@@std@@PAVObj@@@std@@@2@$0A@@std@@@std@@@?$_Tree@V?$_Tmap_traits@V?$basic_string@DU?$char_traits@D@std@@V?$allocator@D@2@@std@@PAVObj@@U?$less@V?$basic_string@DU?$char_traits@D@std@@V?$allocator@D@2@@std@@@2@V?$allocator@U?$pair@$$CBV?$basic_string@DU?$char_traits@D@std@@V?$allocator@D@2@@std@@PAVObj@@@std@@@2@$0A@@std@@@std@@IAEXABV01@U_Copy_tag@01@@Z 00403a20 f i parse.obj
 0001:00002aa0       ??$_Copy_nodes@U_Copy_tag@?$_Tree@V?$_Tmap_traits@V?$basic_string@DU?$char_traits@D@std@@V?$allocator@D@2@@std@@PAVObj@@U?$less@V?$basic_string@DU?$char_traits@D@std@@V?$allocator@D@2@@std@@@2@V?$allocator@U?$pair@$$CBV?$basic_string@DU?$char_traits@D@std@@V?$allocator@D@2@@std@@PAVObj@@@std@@@2@$0A@@std@@@std@@@?$_Tree@V?$_Tmap_traits@V?$basic_string@DU?$char_traits@D@std@@V?$allocator@D@2@@std@@PAVObj@@U?$less@V?$basic_string@DU?$char_traits@D@std@@V?$allocator@D@2@@std@@@2@V?$allocator@U?$pair@$$CBV?$basic_string@DU?$char_traits@D@std@@V?$allocator@D@2@@std@@PAVObj@@@std@@@2@$0A@@std@@@std@@IAEPAU?$_Tree_node@U?$pair@$$CBV?$basic_string@DU?$char_traits@D@std@@V?$allocator@D@2@@std@@PAVObj@@@std@@PAX@1@PAU21@0U_Copy_tag@01@@Z 00403aa0 f i parse.obj
 0001:00002b60       ??$_Insert_at@AAU?$pair@$$CBV?$basic_string@DU?$char_traits@D@std@@V?$allocator@D@2@@std@@PAVObj@@@std@@PAU?$_Tree_node@U?$pair@$$CBV?$basic_string@DU?$char_traits@D@std@@V?$allocator@D@2@@std@@PAVObj@@@std@@PAX@2@@?$_Tree@V?$_Tmap_traits@V?$basic_string@DU?$char_traits@D@std@@V?$allocator@D@2@@std@@PAVObj@@U?$less@V?$basic_string@DU?$char_traits@D@std@@V?$allocator@D@2@@std@@@2@V?$allocator@U?$pair@$$CBV?$basic_string@DU?$char_traits@D@std@@V?$allocator@D@2@@std@@PAVObj@@@std@@@2@$0A@@std@@@std@@IAE?AV?$_Tree_iterator@V?$_Tree_val@U?$_Tree_simple_types@U?$pair@$$CBV?$basic_string@DU?$char_traits@D@std@@V?$allocator@D@2@@std@@PAVObj@@@std@@@std@@@std@@@1@_NPAU?$_Tree_node@U?$pair@$$CBV?$basic_string@DU?$char_traits@D@std@@V?$allocator@D@2@@std@@PAVObj@@@std@@PAX@1@AAU?$pair@$$CBV?$basic_string@DU?$char_traits@D@std@@V?$allocator@D@2@@std@@PAVObj@@@1@1@Z 00403b60 f i parse.obj
 0001:00002d30       ??$_Insert_hint@AAU?$pair@$$CBV?$basic_string@DU?$char_traits@D@std@@V?$allocator@D@2@@std@@PAVObj@@@std@@PAU?$_Tree_node@U?$pair@$$CBV?$basic_string@DU?$char_traits@D@std@@V?$allocator@D@2@@std@@PAVObj@@@std@@PAX@2@@?$_Tree@V?$_Tmap_traits@V?$basic_string@DU?$char_traits@D@std@@V?$allocator@D@2@@std@@PAVObj@@U?$less@V?$basic_string@DU?$char_traits@D@std@@V?$allocator@D@2@@std@@@2@V?$allocator@U?$pair@$$CBV?$basic_string@DU?$char_traits@D@std@@V?$allocator@D@2@@std@@PAVObj@@@std@@@2@$0A@@std@@@std@@IAE?AV?$_Tree_iterator@V?$_Tree_val@U?$_Tree_simple_types@U?$pair@$$CBV?$basic_string@DU?$char_traits@D@std@@V?$allocator@D@2@@std@@PAVObj@@@std@@@std@@@std@@@1@V?$_Tree_const_iterator@V?$_Tree_val@U?$_Tree_simple_types@U?$pair@$$CBV?$basic_string@DU?$char_traits@D@std@@V?$allocator@D@2@@std@@PAVObj@@@std@@@std@@@std@@@1@AAU?$pair@$$CBV?$basic_string@DU?$char_traits@D@std@@V?$allocator@D@2@@std@@PAVObj@@@1@PAU?$_Tree_node@U?$pair@$$CBV?$basic_string@DU?$char_traits@D@std@@V?$allocator@D@2@@std@@PAVObj@@@std@@PAX@1@@Z 00403d30 f i parse.obj
 0001:00002f90       ??$_Insert_nohint@AAU?$pair@$$CBV?$basic_string@DU?$char_traits@D@std@@V?$allocator@D@2@@std@@PAVObj@@@std@@PAU?$_Tree_node@U?$pair@$$CBV?$basic_string@DU?$char_traits@D@std@@V?$allocator@D@2@@std@@PAVObj@@@std@@PAX@2@@?$_Tree@V?$_Tmap_traits@V?$basic_string@DU?$char_traits@D@std@@V?$allocator@D@2@@std@@PAVObj@@U?$less@V?$basic_string@DU?$char_traits@D@std@@V?$allocator@D@2@@std@@@2@V?$allocator@U?$pair@$$CBV?$basic_string@DU?$char_traits@D@std@@V?$allocator@D@2@@std@@PAVObj@@@std@@@2@$0A@@std@@@std@@IAE?AU?$pair@V?$_Tree_iterator@V?$_Tree_val@U?$_Tree_simple_types@U?$pair@$$CBV?$basic_string@DU?$char_traits@D@std@@V?$allocator@D@2@@std@@PAVObj@@@std@@@std@@@std@@@std@@_N@1@_NAAU?$pair@$$CBV?$basic_string@DU?$char_traits@D@std@@V?$allocator@D@2@@std@@PAVObj@@@1@PAU?$_Tree_node@U?$pair@$$CBV?$basic_string@DU?$char_traits@D@std@@V?$allocator@D@2@@std@@PAVObj@@@std@@PAX@1@@Z 00403f90 f i parse.obj
 0001:00003200       ??$_Lbound@V?$basic_string@DU?$char_traits@D@std@@V?$allocator@D@2@@std@@@?$_Tree@V?$_Tmap_traits@V?$basic_string@DU?$char_traits@D@std@@V?$allocator@D@2@@std@@PAVObj@@U?$less@V?$basic_string@DU?$char_traits@D@std@@V?$allocator@D@2@@std@@@2@V?$allocator@U?$pair@$$CBV?$basic_string@DU?$char_traits@D@std@@V?$allocator@D@2@@std@@PAVObj@@@std@@@2@$0A@@std@@@std@@IBEPAU?$_Tree_node@U?$pair@$$CBV?$basic_string@DU?$char_traits@D@std@@V?$allocator@D@2@@std@@PAVObj@@@std@@PAX@1@ABV?$basic_string@DU?$char_traits@D@std@@V?$allocator@D@2@@1@@Z 00404200 f i parse.obj
 0001:000032e0       ??$_Try_emplace@ABV?$basic_string@DU?$char_traits@D@std@@V?$allocator@D@2@@std@@$$V@?$map@V?$basic_string@DU?$char_traits@D@std@@V?$allocator@D@2@@std@@PAVObj@@U?$less@V?$basic_string@DU?$char_traits@D@std@@V?$allocator@D@2@@std@@@2@V?$allocator@U?$pair@$$CBV?$basic_string@DU?$char_traits@D@std@@V?$allocator@D@2@@std@@PAVObj@@@std@@@2@@std@@QAE?AU?$pair@V?$_Tree_iterator@V?$_Tree_val@U?$_Tree_simple_types@U?$pair@$$CBV?$basic_string@DU?$char_traits@D@std@@V?$allocator@D@2@@std@@PAVObj@@@std@@@std@@@std@@@std@@_N@1@ABV?$basic_string@DU?$char_traits@D@std@@V?$allocator@D@2@@1@@Z 004042e0 f i parse.obj
 0001:00003390       ??0?$basic_string@DU?$char_traits@D@std@@V?$allocator@D@2@@std@@QAE@PBD@Z 00404390 f i parse.obj
 0001:000033f0       ??0?$vector@PAVObj@@V?$allocator@PAVObj@@@std@@@std@@QAE@ABV01@@Z 004043f0 f i parse.obj
 0001:00003480       ??0Exception@@QAE@ABV0@@Z  00404480 f i parse.obj
 0001:000034b0       ??0IdObj@@QAE@ABV?$basic_string@DU?$char_traits@D@std@@V?$allocator@D@2@@std@@@Z 004044b0 f i parse.obj
 0001:00003520       ??0NamedObj@@QAE@ABV?$basic_string@DU?$char_traits@D@std@@V?$allocator@D@2@@std@@PAVObj@@@Z 00404520 f i parse.obj
 0001:00003590       ??0ObjTypeMismatch@@QAE@ABV0@@Z 00404590 f i parse.obj
 0001:000035c0       ??0ObjTypeMismatch@@QAE@V?$basic_string@DU?$char_traits@D@std@@V?$allocator@D@2@@std@@0@Z 004045c0 f i parse.obj
 0001:00003870       ??0ParseError@@QAE@ABV0@@Z 00404870 f i parse.obj
 0001:000038a0       ??1?$_Tree_comp_alloc@V?$_Tmap_traits@V?$basic_string@DU?$char_traits@D@std@@V?$allocator@D@2@@std@@PAVObj@@U?$less@V?$basic_string@DU?$char_traits@D@std@@V?$allocator@D@2@@std@@@2@V?$allocator@U?$pair@$$CBV?$basic_string@DU?$char_traits@D@std@@V?$allocator@D@2@@std@@PAVObj@@@std@@@2@$0A@@std@@@std@@QAE@XZ 004048a0 f i parse.obj
 0001:000038b0       ??1?$map@V?$basic_string@DU?$char_traits@D@std@@V?$allocator@D@2@@std@@PAVObj@@U?$less@V?$basic_string@DU?$char_traits@D@std@@V?$allocator@D@2@@std@@@2@V?$allocator@U?$pair@$$CBV?$basic_string@DU?$char_traits@D@std@@V?$allocator@D@2@@std@@PAVObj@@@std@@@2@@std@@QAE@XZ 004048b0 f i parse.obj
 0001:00003910       ??1?$vector@PAVObj@@V?$allocator@PAVObj@@@std@@@std@@QAE@XZ 00404910 f i parse.obj
 0001:00003950       ??1BooleanObj@@UAE@XZ      00404950 f i parse.obj
 0001:00003960       ??1DictObj@@UAE@XZ         00404960 f i parse.obj
 0001:00003a30       ??1IdObj@@UAE@XZ           00404a30 f i parse.obj
 0001:00003a80       ??1NamedObj@@UAE@XZ        00404a80 f i parse.obj
 0001:00003ae0       ??1Obj@@UAE@XZ             00404ae0 f i parse.obj
 0001:00003af0       ??1ObjTypeMismatch@@QAE@XZ 00404af0 f i parse.obj
 0001:00003b30       ??1ScalarObj@@UAE@XZ       00404b30 f i parse.obj
 0001:00003b40       ??1StringObj@@UAE@XZ       00404b40 f i parse.obj
 0001:00003b90       ??1TupleObj@@UAE@XZ        00404b90 f i parse.obj
 0001:00003c40       ??1_Sentry_base@?$basic_ostream@DU?$char_traits@D@std@@@std@@QAE@XZ 00404c40 f i parse.obj
 0001:00003c90       ??1sentry@?$basic_ostream@DU?$char_traits@D@std@@@std@@QAE@XZ 00404c90 f i parse.obj
 0001:00003d00       ??3@YAXPAX0@Z              00404d00 f i parse.obj
 0001:00003d10       ??E?$_Tree_unchecked_const_iterator@V?$_Tree_val@U?$_Tree_simple_types@U?$pair@$$CBV?$basic_string@DU?$char_traits@D@std@@V?$allocator@D@2@@std@@PAVObj@@@std@@@std@@@std@@U_Iterator_base0@2@@std@@QAEAAV01@XZ 00404d10 f i parse.obj
 0001:00003d60       ??F?$_Tree_unchecked_const_iterator@V?$_Tree_val@U?$_Tree_simple_types@U?$pair@$$CBV?$basic_string@DU?$char_traits@D@std@@V?$allocator@D@2@@std@@PAVObj@@@std@@@std@@@std@@U_Iterator_base0@2@@std@@QAEAAV01@XZ 00404d60 f i parse.obj
 0001:00003dc0       ??R?$less@V?$basic_string@DU?$char_traits@D@std@@V?$allocator@D@2@@std@@@std@@QBE_NABV?$basic_string@DU?$char_traits@D@std@@V?$allocator@D@2@@1@0@Z 00404dc0 f i parse.obj
 0001:00003e20       ??_EBooleanObj@@UAEPAXI@Z  00404e20 f i parse.obj
 0001:00003e20       ??_GBooleanObj@@UAEPAXI@Z  00404e20 f i parse.obj
 0001:00003e50       ??_GDictObj@@UAEPAXI@Z     00404e50 f i parse.obj
 0001:00003e50       ??_EDictObj@@UAEPAXI@Z     00404e50 f i parse.obj
 0001:00003e80       ??_EIdObj@@UAEPAXI@Z       00404e80 f i parse.obj
 0001:00003e80       ??_GIdObj@@UAEPAXI@Z       00404e80 f i parse.obj
 0001:00003ee0       ??_ENamedObj@@UAEPAXI@Z    00404ee0 f i parse.obj
 0001:00003ee0       ??_GNamedObj@@UAEPAXI@Z    00404ee0 f i parse.obj
 0001:00003f10       ??_EObj@@UAEPAXI@Z         00404f10 f i parse.obj
 0001:00003f10       ??_GObj@@UAEPAXI@Z         00404f10 f i parse.obj
 0001:00003f40       ??_GScalarObj@@UAEPAXI@Z   00404f40 f i parse.obj
 0001:00003f40       ??_EScalarObj@@UAEPAXI@Z   00404f40 f i parse.obj
 0001:00003f70       ??_EStringObj@@UAEPAXI@Z   00404f70 f i parse.obj
 0001:00003f70       ??_GStringObj@@UAEPAXI@Z   00404f70 f i parse.obj
 0001:00003fd0       ??_GTupleObj@@UAEPAXI@Z    00404fd0 f i parse.obj
 0001:00003fd0       ??_ETupleObj@@UAEPAXI@Z    00404fd0 f i parse.obj
 0001:00004000       ?_Assign_rv@?$basic_string@DU?$char_traits@D@std@@V?$allocator@D@2@@std@@QAEX$$QAV12@@Z 00405000 f i parse.obj
 0001:00004070       ?_Buyheadnode@?$_Tree_comp_alloc@V?$_Tmap_traits@V?$basic_string@DU?$char_traits@D@std@@V?$allocator@D@2@@std@@PAVObj@@U?$less@V?$basic_string@DU?$char_traits@D@std@@V?$allocator@D@2@@std@@@2@V?$allocator@U?$pair@$$CBV?$basic_string@DU?$char_traits@D@std@@V?$allocator@D@2@@std@@PAVObj@@@std@@@2@$0A@@std@@@std@@QAEPAU?$_Tree_node@U?$pair@$$CBV?$basic_string@DU?$char_traits@D@std@@V?$allocator@D@2@@std@@PAVObj@@@std@@PAX@2@XZ 00405070 f i parse.obj
 0001:000040a0       ?_Buynode0@?$_Tree_comp_alloc@V?$_Tmap_traits@V?$basic_string@DU?$char_traits@D@std@@V?$allocator@D@2@@std@@PAVObj@@U?$less@V?$basic_string@DU?$char_traits@D@std@@V?$allocator@D@2@@std@@@2@V?$allocator@U?$pair@$$CBV?$basic_string@DU?$char_traits@D@std@@V?$allocator@D@2@@std@@PAVObj@@@std@@@2@$0A@@std@@@std@@QAEPAU?$_Tree_node@U?$pair@$$CBV?$basic_string@DU?$char_traits@D@std@@V?$allocator@D@2@@std@@PAVObj@@@std@@PAX@2@XZ 004050a0 f i parse.obj
 0001:000040e0       ?_Chassign@?$basic_string@DU?$char_traits@D@std@@V?$allocator@D@2@@std@@QAEXIID@Z 004050e0 f i parse.obj
 0001:00004130       ?_Destroy_if_not_nil@?$_Tree@V?$_Tmap_traits@V?$basic_string@DU?$char_traits@D@std@@V?$allocator@D@2@@std@@PAVObj@@U?$less@V?$basic_string@DU?$char_traits@D@std@@V?$allocator@D@2@@std@@@2@V?$allocator@U?$pair@$$CBV?$basic_string@DU?$char_traits@D@std@@V?$allocator@D@2@@std@@PAVObj@@@std@@@2@$0A@@std@@@std@@IAEXPAU?$_Tree_node@U?$pair@$$CBV?$basic_string@DU?$char_traits@D@std@@V?$allocator@D@2@@std@@PAVObj@@@std@@PAX@2@@Z 00405130 f i parse.obj
 0001:00004180       ?_Erase@?$_Tree@V?$_Tmap_traits@V?$basic_string@DU?$char_traits@D@std@@V?$allocator@D@2@@std@@PAVObj@@U?$less@V?$basic_string@DU?$char_traits@D@std@@V?$allocator@D@2@@std@@@2@V?$allocator@U?$pair@$$CBV?$basic_string@DU?$char_traits@D@std@@V?$allocator@D@2@@std@@PAVObj@@@std@@@2@$0A@@std@@@std@@IAEXPAU?$_Tree_node@U?$pair@$$CBV?$basic_string@DU?$char_traits@D@std@@V?$allocator@D@2@@std@@PAVObj@@@std@@PAX@2@@Z 00405180 f i parse.obj
 0001:00004230       ?_Lrotate@?$_Tree@V?$_Tmap_traits@V?$basic_string@DU?$char_traits@D@std@@V?$allocator@D@2@@std@@PAVObj@@U?$less@V?$basic_string@DU?$char_traits@D@std@@V?$allocator@D@2@@std@@@2@V?$allocator@U?$pair@$$CBV?$basic_string@DU?$char_traits@D@std@@V?$allocator@D@2@@std@@PAVObj@@@std@@@2@$0A@@std@@@std@@IAEXPAU?$_Tree_node@U?$pair@$$CBV?$basic_string@DU?$char_traits@D@std@@V?$allocator@D@2@@std@@PAVObj@@@std@@PAX@2@@Z 00405230 f i parse.obj
 0001:00004290       ?_Reallocate@?$vector@PAVObj@@V?$allocator@PAVObj@@@std@@@std@@IAEXI@Z 00405290 f i parse.obj
 0001:000042f0       ?_Reserve@?$vector@PAVObj@@V?$allocator@PAVObj@@@std@@@std@@IAEXI@Z 004052f0 f i parse.obj
 0001:00004360       ?_Rrotate@?$_Tree@V?$_Tmap_traits@V?$basic_string@DU?$char_traits@D@std@@V?$allocator@D@2@@std@@PAVObj@@U?$less@V?$basic_string@DU?$char_traits@D@std@@V?$allocator@D@2@@std@@@2@V?$allocator@U?$pair@$$CBV?$basic_string@DU?$char_traits@D@std@@V?$allocator@D@2@@std@@PAVObj@@@std@@@2@$0A@@std@@@std@@IAEXPAU?$_Tree_node@U?$pair@$$CBV?$basic_string@DU?$char_traits@D@std@@V?$allocator@D@2@@std@@PAVObj@@@std@@PAX@2@@Z 00405360 f i parse.obj
 0001:000043c0       ?allocate@?$allocator@PAVObj@@@std@@QAEPAPAVObj@@I@Z 004053c0 f i parse.obj
 0001:00004430       ?append@?$basic_string@DU?$char_traits@D@std@@V?$allocator@D@2@@std@@QAEAAV12@ABV12@II@Z 00405430 f i parse.obj
 0001:00004520       ?append@?$basic_string@DU?$char_traits@D@std@@V?$allocator@D@2@@std@@QAEAAV12@ID@Z 00405520 f i parse.obj
 0001:000045d0       ?compare@?$char_traits@D@std@@SAHPBD0I@Z 004055d0 f i parse.obj
 0001:00004880       ?erase@?$_Tree@V?$_Tmap_traits@V?$basic_string@DU?$char_traits@D@std@@V?$allocator@D@2@@std@@PAVObj@@U?$less@V?$basic_string@DU?$char_traits@D@std@@V?$allocator@D@2@@std@@@2@V?$allocator@U?$pair@$$CBV?$basic_string@DU?$char_traits@D@std@@V?$allocator@D@2@@std@@PAVObj@@@std@@@2@$0A@@std@@@std@@QAE?AV?$_Tree_iterator@V?$_Tree_val@U?$_Tree_simple_types@U?$pair@$$CBV?$basic_string@DU?$char_traits@D@std@@V?$allocator@D@2@@std@@PAVObj@@@std@@@std@@@std@@@2@V?$_Tree_const_iterator@V?$_Tree_val@U?$_Tree_simple_types@U?$pair@$$CBV?$basic_string@DU?$char_traits@D@std@@V?$allocator@D@2@@std@@PAVObj@@@std@@@std@@@std@@@2@0@Z 00405880 f i parse.obj
 0001:00004970       ?erase@?$_Tree@V?$_Tmap_traits@V?$basic_string@DU?$char_traits@D@std@@V?$allocator@D@2@@std@@PAVObj@@U?$less@V?$basic_string@DU?$char_traits@D@std@@V?$allocator@D@2@@std@@@2@V?$allocator@U?$pair@$$CBV?$basic_string@DU?$char_traits@D@std@@V?$allocator@D@2@@std@@PAVObj@@@std@@@2@$0A@@std@@@std@@QAE?AV?$_Tree_iterator@V?$_Tree_val@U?$_Tree_simple_types@U?$pair@$$CBV?$basic_string@DU?$char_traits@D@std@@V?$allocator@D@2@@std@@PAVObj@@@std@@@std@@@std@@@2@V?$_Tree_const_iterator@V?$_Tree_val@U?$_Tree_simple_types@U?$pair@$$CBV?$basic_string@DU?$char_traits@D@std@@V?$allocator@D@2@@std@@PAVObj@@@std@@@std@@@std@@@2@@Z 00405970 f i parse.obj
 0001:00004c60       ?getBoolean@BooleanObj@@UBE_NXZ 00405c60 f i parse.obj
 0001:00004c70       ?getBoolean@Obj@@UBE_NXZ   00405c70 f i parse.obj
 0001:00004d00       ?getChild@NamedObj@@UBEPAVObj@@XZ 00405d00 f i parse.obj
 0001:00004d10       ?getChild@Obj@@UBEPAV1@XZ  00405d10 f i parse.obj
 0001:00004da0       ?getDict@DictObj@@UBEABV?$map@V?$basic_string@DU?$char_traits@D@std@@V?$allocator@D@2@@std@@PAVObj@@U?$less@V?$basic_string@DU?$char_traits@D@std@@V?$allocator@D@2@@std@@@2@V?$allocator@U?$pair@$$CBV?$basic_string@DU?$char_traits@D@std@@V?$allocator@D@2@@std@@PAVObj@@@std@@@2@@std@@XZ 00405da0 f i parse.obj
 0001:00004db0       ?getDict@Obj@@UBEABV?$map@V?$basic_string@DU?$char_traits@D@std@@V?$allocator@D@2@@std@@PAVObj@@U?$less@V?$basic_string@DU?$char_traits@D@std@@V?$allocator@D@2@@std@@@2@V?$allocator@U?$pair@$$CBV?$basic_string@DU?$char_traits@D@std@@V?$allocator@D@2@@std@@PAVObj@@@std@@@2@@std@@XZ 00405db0 f i parse.obj
 0001:00004e40       ?getID@IdObj@@UBE?AV?$basic_string@DU?$char_traits@D@std@@V?$allocator@D@2@@std@@XZ 00405e40 f i parse.obj
 0001:00004e80       ?getID@Obj@@UBE?AV?$basic_string@DU?$char_traits@D@std@@V?$allocator@D@2@@std@@XZ 00405e80 f i parse.obj
 0001:00004f10       ?getName@NamedObj@@UBE?AV?$basic_string@DU?$char_traits@D@std@@V?$allocator@D@2@@std@@XZ 00405f10 f i parse.obj
 0001:00004f50       ?getName@Obj@@UBE?AV?$basic_string@DU?$char_traits@D@std@@V?$allocator@D@2@@std@@XZ 00405f50 f i parse.obj
 0001:00004fe0       ?getScalar@Obj@@UBENXZ     00405fe0 f i parse.obj
 0001:00005070       ?getScalar@ScalarObj@@UBENXZ 00406070 f i parse.obj
 0001:00005080       ?getString@Obj@@UBE?AV?$basic_string@DU?$char_traits@D@std@@V?$allocator@D@2@@std@@XZ 00406080 f i parse.obj
 0001:00005110       ?getString@StringObj@@UBE?AV?$basic_string@DU?$char_traits@D@std@@V?$allocator@D@2@@std@@XZ 00406110 f i parse.obj
 0001:00005150       ?getTuple@Obj@@UBEABV?$vector@PAVObj@@V?$allocator@PAVObj@@@std@@@std@@XZ 00406150 f i parse.obj
 0001:000051e0       ?getTuple@TupleObj@@UBEABV?$vector@PAVObj@@V?$allocator@PAVObj@@@std@@@std@@XZ 004061e0 f i parse.obj
 0001:000051f0       ?getTypeName@BooleanObj@@UBE?AV?$basic_string@DU?$char_traits@D@std@@V?$allocator@D@2@@std@@XZ 004061f0 f i parse.obj
 0001:00005230       ?getTypeName@DictObj@@UBE?AV?$basic_string@DU?$char_traits@D@std@@V?$allocator@D@2@@std@@XZ 00406230 f i parse.obj
 0001:00005270       ?getTypeName@IdObj@@UBE?AV?$basic_string@DU?$char_traits@D@std@@V?$allocator@D@2@@std@@XZ 00406270 f i parse.obj
 0001:000052b0       ?getTypeName@NamedObj@@UBE?AV?$basic_string@DU?$char_traits@D@std@@V?$allocator@D@2@@std@@XZ 004062b0 f i parse.obj
 0001:000052f0       ?getTypeName@Obj@@UBE?AV?$basic_string@DU?$char_traits@D@std@@V?$allocator@D@2@@std@@XZ 004062f0 f i parse.obj
 0001:00005330       ?getTypeName@ScalarObj@@UBE?AV?$basic_string@DU?$char_traits@D@std@@V?$allocator@D@2@@std@@XZ 00406330 f i parse.obj
 0001:00005370       ?getTypeName@StringObj@@UBE?AV?$basic_string@DU?$char_traits@D@std@@V?$allocator@D@2@@std@@XZ 00406370 f i parse.obj
 0001:000053b0       ?getTypeName@TupleObj@@UBE?AV?$basic_string@DU?$char_traits@D@std@@V?$allocator@D@2@@std@@XZ 004063b0 f i parse.obj
 0001:000053f0       ?insert@?$basic_string@DU?$char_traits@D@std@@V?$allocator@D@2@@std@@QAEAAV12@IABV12@II@Z 004063f0 f i parse.obj
 0001:00005580       ?printOn@BooleanObj@@UBEXAAV?$basic_ostream@DU?$char_traits@D@std@@@std@@@Z 00406580 f i parse.obj
 0001:000055b0       ?printOn@DictObj@@UBEXAAV?$basic_ostream@DU?$char_traits@D@std@@@std@@@Z 004065b0 f i parse.obj
 0001:00005680       ?printOn@IdObj@@UBEXAAV?$basic_ostream@DU?$char_traits@D@std@@@std@@@Z 00406680 f i parse.obj
 0001:000056a0       ?printOn@NamedObj@@UBEXAAV?$basic_ostream@DU?$char_traits@D@std@@@std@@@Z 004066a0 f i parse.obj
 0001:000056d0       ?printOn@Obj@@UBEXAAV?$basic_ostream@DU?$char_traits@D@std@@@std@@@Z 004066d0 f i parse.obj
 0001:000056e0       ?printOn@ScalarObj@@UBEXAAV?$basic_ostream@DU?$char_traits@D@std@@@std@@@Z 004066e0 f i parse.obj
 0001:00005700       ?printOn@StringObj@@UBEXAAV?$basic_ostream@DU?$char_traits@D@std@@@std@@@Z 00406700 f i parse.obj
 0001:00005730       ?printOn@TupleObj@@UBEXAAV?$basic_ostream@DU?$char_traits@D@std@@@std@@@Z 00406730 f i parse.obj
 0001:00005af0       ?readFile@@YAPAVObj@@AAV?$basic_istream@DU?$char_traits@D@std@@@std@@@Z 00406af0 f   parse.obj
 0001:00006370       ??$?HDU?$char_traits@D@std@@V?$allocator@D@1@@std@@YA?AV?$basic_string@DU?$char_traits@D@std@@V?$allocator@D@2@@0@$$QAV10@PBD@Z 00407370 f i read.obj
 0001:000063d0       ??$_Buynode@ABQAVGeometry@@@?$_List_buy@PAVGeometry@@V?$allocator@PAVGeometry@@@std@@@std@@QAEPAU?$_List_node@PAVGeometry@@PAX@1@PAU21@0ABQAVGeometry@@@Z 004073d0 f i read.obj
 0001:000063f0       ??$_Buynode@ABQAVLight@@@?$_List_buy@PAVLight@@V?$allocator@PAVLight@@@std@@@std@@QAEPAU?$_List_node@PAVLight@@PAX@1@PAU21@0ABQAVLight@@@Z 004073f0 f i read.obj
 0001:00006410       ??$_Buynode@ABQAVTransformNode@@@?$_List_buy@PAVTransformNode@@V?$allocator@PAVTransformNode@@@std@@@std@@QAEPAU?$_List_node@PAVTransformNode@@PAX@1@PAU21@0ABQAVTransformNode@@@Z 00407410 f i read.obj
 0001:00006430       ??$_Buynode@ABUpiecewise_construct_t@std@@V?$tuple@ABV?$basic_string@DU?$char_traits@D@std@@V?$allocator@D@2@@std@@@2@V?$tuple@$$V@2@@?$_Tree_comp_alloc@V?$_Tmap_traits@V?$basic_string@DU?$char_traits@D@std@@V?$allocator@D@2@@std@@PAVMaterial@@U?$less@V?$basic_string@DU?$char_traits@D@std@@V?$allocator@D@2@@std@@@2@V?$allocator@U?$pair@$$CBV?$basic_string@DU?$char_traits@D@std@@V?$allocator@D@2@@std@@PAVMaterial@@@std@@@2@$0A@@std@@@std@@QAEPAU?$_Tree_node@U?$pair@$$CBV?$basic_string@DU?$char_traits@D@std@@V?$allocator@D@2@@std@@PAVMaterial@@@std@@PAX@1@ABUpiecewise_construct_t@1@$$QAV?$tuple@ABV?$basic_string@DU?$char_traits@D@std@@V?$allocator@D@2@@std@@@1@$$QAV?$tuple@$$V@1@@Z 00407430 f i read.obj
 0001:000064f0       ??$_Insert_at@AAU?$pair@$$CBV?$basic_string@DU?$char_traits@D@std@@V?$allocator@D@2@@std@@PAVMaterial@@@std@@PAU?$_Tree_node@U?$pair@$$CBV?$basic_string@DU?$char_traits@D@std@@V?$allocator@D@2@@std@@PAVMaterial@@@std@@PAX@2@@?$_Tree@V?$_Tmap_traits@V?$basic_string@DU?$char_traits@D@std@@V?$allocator@D@2@@std@@PAVMaterial@@U?$less@V?$basic_string@DU?$char_traits@D@std@@V?$allocator@D@2@@std@@@2@V?$allocator@U?$pair@$$CBV?$basic_string@DU?$char_traits@D@std@@V?$allocator@D@2@@std@@PAVMaterial@@@std@@@2@$0A@@std@@@std@@IAE?AV?$_Tree_iterator@V?$_Tree_val@U?$_Tree_simple_types@U?$pair@$$CBV?$basic_string@DU?$char_traits@D@std@@V?$allocator@D@2@@std@@PAVMaterial@@@std@@@std@@@std@@@1@_NPAU?$_Tree_node@U?$pair@$$CBV?$basic_string@DU?$char_traits@D@std@@V?$allocator@D@2@@std@@PAVMaterial@@@std@@PAX@1@AAU?$pair@$$CBV?$basic_string@DU?$char_traits@D@std@@V?$allocator@D@2@@std@@PAVMaterial@@@1@1@Z 004074f0 f i read.obj
 0001:000066c0       ??$_Insert_hint@AAU?$pair@$$CBV?$basic_string@DU?$char_traits@D@std@@V?$allocator@D@2@@std@@PAVMaterial@@@std@@PAU?$_Tree_node@U?$pair@$$CBV?$basic_string@DU?$char_traits@D@std@@V?$allocator@D@2@@std@@PAVMaterial@@@std@@PAX@2@@?$_Tree@V?$_Tmap_traits@V?$basic_string@DU?$char_traits@D@std@@V?$allocator@D@2@@std@@PAVMaterial@@U?$less@V?$basic_string@DU?$char_traits@D@std@@V?$allocator@D@2@@std@@@2@V?$allocator@U?$pair@$$CBV?$basic_string@DU?$char_traits@D@std@@V?$allocator@D@2@@std@@PAVMaterial@@@std@@@2@$0A@@std@@@std@@IAE?AV?$_Tree_iterator@V?$_Tree_val@U?$_Tree_simple_types@U?$pair@$$CBV?$basic_string@DU?$char_traits@D@std@@V?$allocator@D@2@@std@@PAVMaterial@@@std@@@std@@@std@@@1@V?$_Tree_const_iterator@V?$_Tree_val@U?$_Tree_simple_types@U?$pair@$$CBV?$basic_string@DU?$char_traits@D@std@@V?$allocator@D@2@@std@@PAVMaterial@@@std@@@std@@@std@@@1@AAU?$pair@$$CBV?$basic_string@DU?$char_traits@D@std@@V?$allocator@D@2@@std@@PAVMaterial@@@1@PAU?$_Tree_node@U?$pair@$$CBV?$basic_string@DU?$char_traits@D@std@@V?$allocator@D@2@@std@@PAVMaterial@@@std@@PAX@1@@Z 004076c0 f i read.obj
 0001:00006920       ??$_Insert_nohint@AAU?$pair@$$CBV?$basic_string@DU?$char_traits@D@std@@V?$allocator@D@2@@std@@PAVMaterial@@@std@@PAU?$_Tree_node@U?$pair@$$CBV?$basic_string@DU?$char_traits@D@std@@V?$allocator@D@2@@std@@PAVMaterial@@@std@@PAX@2@@?$_Tree@V?$_Tmap_traits@V?$basic_string@DU?$char_traits@D@std@@V?$allocator@D@2@@std@@PAVMaterial@@U?$less@V?$basic_string@DU?$char_traits@D@std@@V?$allocator@D@2@@std@@@2@V?$allocator@U?$pair@$$CBV?$basic_string@DU?$char_traits@D@std@@V?$allocator@D@2@@std@@PAVMaterial@@@std@@@2@$0A@@std@@@std@@IAE?AU?$pair@V?$_Tree_iterator@V?$_Tree_val@U?$_Tree_simple_types@U?$pair@$$CBV?$basic_string@DU?$char_traits@D@std@@V?$allocator@D@2@@std@@PAVMaterial@@@std@@@std@@@std@@@std@@_N@1@_NAAU?$pair@$$CBV?$basic_string@DU?$char_traits@D@std@@V?$allocator@D@2@@std@@PAVMaterial@@@1@PAU?$_Tree_node@U?$pair@$$CBV?$basic_string@DU?$char_traits@D@std@@V?$allocator@D@2@@std@@PAVMaterial@@@std@@PAX@1@@Z 00407920 f i read.obj
 0001:00006b90       ??$_Lbound@V?$basic_string@DU?$char_traits@D@std@@V?$allocator@D@2@@std@@@?$_Tree@V?$_Tmap_traits@V?$basic_string@DU?$char_traits@D@std@@V?$allocator@D@2@@std@@PAVMaterial@@U?$less@V?$basic_string@DU?$char_traits@D@std@@V?$allocator@D@2@@std@@@2@V?$allocator@U?$pair@$$CBV?$basic_string@DU?$char_traits@D@std@@V?$allocator@D@2@@std@@PAVMaterial@@@std@@@2@$0A@@std@@@std@@IBEPAU?$_Tree_node@U?$pair@$$CBV?$basic_string@DU?$char_traits@D@std@@V?$allocator@D@2@@std@@PAVMaterial@@@std@@PAX@1@ABV?$basic_string@DU?$char_traits@D@std@@V?$allocator@D@2@@1@@Z 00407b90 f i read.obj
 0001:00006c70       ??$_Try_emplace@ABV?$basic_string@DU?$char_traits@D@std@@V?$allocator@D@2@@std@@$$V@?$map@V?$basic_string@DU?$char_traits@D@std@@V?$allocator@D@2@@std@@PAVMaterial@@U?$less@V?$basic_string@DU?$char_traits@D@std@@V?$allocator@D@2@@std@@@2@V?$allocator@U?$pair@$$CBV?$basic_string@DU?$char_traits@D@std@@V?$allocator@D@2@@std@@PAVMaterial@@@std@@@2@@std@@QAE?AU?$pair@V?$_Tree_iterator@V?$_Tree_val@U?$_Tree_simple_types@U?$pair@$$CBV?$basic_string@DU?$char_traits@D@std@@V?$allocator@D@2@@std@@PAVMaterial@@@std@@@std@@@std@@@std@@_N@1@ABV?$basic_string@DU?$char_traits@D@std@@V?$allocator@D@2@@1@@Z 00407c70 f i read.obj
 0001:00006d20       ??$endl@DU?$char_traits@D@std@@@std@@YAAAV?$basic_ostream@DU?$char_traits@D@std@@@0@AAV10@@Z 00407d20 f i read.obj
 0001:00006d50       ??$ends@DU?$char_traits@D@std@@@std@@YAAAV?$basic_ostream@DU?$char_traits@D@std@@@0@AAV10@@Z 00407d50 f i read.obj
 0001:00006d70       ??$use_facet@V?$codecvt@DDU_Mbstatet@@@std@@@std@@YAABV?$codecvt@DDU_Mbstatet@@@0@ABVlocale@0@@Z 00407d70 f i read.obj
 0001:00006e70       ??0?$basic_ifstream@DU?$char_traits@D@std@@@std@@QAE@PBDHH@Z 00407e70 f i read.obj
 0001:00006f80       ??0?$basic_string@DU?$char_traits@D@std@@V?$allocator@D@2@@std@@QAE@ABV01@@Z 00407f80 f i read.obj
 0001:00006fb0       ??0?$fpos@U_Mbstatet@@@std@@QAE@U_Mbstatet@@_J@Z 00407fb0 f i read.obj
 0001:00006fe0       ??0Scene@@QAE@XZ           00407fe0 f i read.obj
 0001:00007180       ??0TransformNode@@IAE@PAV0@ABVmat4f@@@Z 00408180 f i read.obj
 0001:00007580       ??0bad_cast@std@@QAE@ABV01@@Z 00408580 f i read.obj
 0001:000075c0       ??0exception@std@@QAE@ABV01@@Z 004085c0 f i read.obj
 0001:000075f0       ??0mat4f@@QAE@ABVvec4f@@000@Z 004085f0 f i read.obj
 0001:000076c0       ??0ostrstream@std@@QAE@XZ  004086c0 f i read.obj
 0001:000077b0       ??0vec4f@@QAE@XZ           004087b0 f i read.obj
 0001:000077c0       ??1?$basic_filebuf@DU?$char_traits@D@std@@@std@@UAE@XZ 004087c0 f i read.obj
 0001:00007840       ??1?$basic_ifstream@DU?$char_traits@D@std@@@std@@UAE@XZ 00408840 f i read.obj
 0001:000078f0       ??1?$list@PAVGeometry@@V?$allocator@PAVGeometry@@@std@@@std@@QAE@XZ 004088f0 f i read.obj
 0001:00007940       ??1?$list@PAVLight@@V?$allocator@PAVLight@@@std@@@std@@QAE@XZ 00408940 f i read.obj
 0001:00007990       ??1?$list@PAVTransformNode@@V?$allocator@PAVTransformNode@@@std@@@std@@QAE@XZ 00408990 f i read.obj
 0001:000079e0       ??1?$map@V?$basic_string@DU?$char_traits@D@std@@V?$allocator@D@2@@std@@PAVMaterial@@U?$less@V?$basic_string@DU?$char_traits@D@std@@V?$allocator@D@2@@std@@@2@V?$allocator@U?$pair@$$CBV?$basic_string@DU?$char_traits@D@std@@V?$allocator@D@2@@std@@PAVMaterial@@@std@@@2@@std@@QAE@XZ 004089e0 f i read.obj
 0001:00007a40       ??1MaterialSceneObject@@UAE@XZ 00408a40 f i read.obj
 0001:00007a70       ??1SceneElement@@UAE@XZ    00408a70 f i read.obj
 0001:00007a80       ??1TransformNode@@QAE@XZ   00408a80 f i read.obj
 0001:00007b10       ??1TransformRoot@@QAE@XZ   00408b10 f i read.obj
 0001:00007b20       ??1bad_cast@std@@UAE@XZ    00408b20 f i read.obj
 0001:00007b40       ??1exception@std@@UAE@XZ   00408b40 f i read.obj
 0001:00007b60       ??1locale@std@@QAE@XZ      00408b60 f i read.obj
 0001:00007bb0       ??1ostrstream@std@@UAE@XZ  00408bb0 f i read.obj
 0001:00007c50       ??1strstreambuf@std@@UAE@XZ 00408c50 f i read.obj
 0001:00007cc0       ??4?$basic_string@DU?$char_traits@D@std@@V?$allocator@D@2@@std@@QAEAAV01@$$QAV01@@Z 00408cc0 f i read.obj
 0001:00007d40       ??6@YAAAV?$basic_ostream@DU?$char_traits@D@std@@@std@@AAV01@ABVException@@@Z 00408d40 f i read.obj
 0001:00007dc0       ??D@YA?AVmat4f@@ABV0@0@Z   00408dc0 f i read.obj
 0001:00008270       ??E?$_Tree_unchecked_const_iterator@V?$_Tree_val@U?$_Tree_simple_types@U?$pair@$$CBV?$basic_string@DU?$char_traits@D@std@@V?$allocator@D@2@@std@@PAVMaterial@@@std@@@std@@@std@@U_Iterator_base0@2@@std@@QAEAAV01@XZ 00409270 f i read.obj
 0001:000082c0       ??F?$_Tree_unchecked_const_iterator@V?$_Tree_val@U?$_Tree_simple_types@U?$pair@$$CBV?$basic_string@DU?$char_traits@D@std@@V?$allocator@D@2@@std@@PAVMaterial@@@std@@@std@@@std@@U_Iterator_base0@2@@std@@QAEAAV01@XZ 004092c0 f i read.obj
 0001:00008320       ??_D?$basic_ifstream@DU?$char_traits@D@std@@@std@@QAEXXZ 00409320 f i read.obj
 0001:00008340       ??_Dostrstream@std@@QAEXXZ 00409340 f i read.obj
 0001:00008354       ??_E?$basic_ifstream@DU?$char_traits@D@std@@@std@@$4PPPPPPPM@A@AEPAXI@Z 00409354 f i read.obj
 0001:0000835c       ??_Eostrstream@std@@$4PPPPPPPM@A@AEPAXI@Z 0040935c f i read.obj
 0001:00008370       ??_G?$basic_filebuf@DU?$char_traits@D@std@@@std@@UAEPAXI@Z 00409370 f i read.obj
 0001:00008370       ??_E?$basic_filebuf@DU?$char_traits@D@std@@@std@@UAEPAXI@Z 00409370 f i read.obj
 0001:00008410       ??_E?$basic_ifstream@DU?$char_traits@D@std@@@std@@UAEPAXI@Z 00409410 f i read.obj
 0001:00008410       ??_G?$basic_ifstream@DU?$char_traits@D@std@@@std@@UAEPAXI@Z 00409410 f i read.obj
 0001:00008450       ??_EBox@@UAEPAXI@Z         00409450 f i read.obj
 0001:00008450       ??_GBox@@UAEPAXI@Z         00409450 f i read.obj
 0001:00008490       ??_ECone@@UAEPAXI@Z        00409490 f i read.obj
 0001:00008490       ??_GCone@@UAEPAXI@Z        00409490 f i read.obj
 0001:000084e0       ??_GCylinder@@UAEPAXI@Z    004094e0 f i read.obj
 0001:000084e0       ??_ECylinder@@UAEPAXI@Z    004094e0 f i read.obj
 0001:00008520       ??_GDirectionalLight@@UAEPAXI@Z 00409520 f i read.obj
 0001:00008520       ??_EDirectionalLight@@UAEPAXI@Z 00409520 f i read.obj
 0001:00008550       ??_EGeometry@@UAEPAXI@Z    00409550 f i read.obj
 0001:00008550       ??_GGeometry@@UAEPAXI@Z    00409550 f i read.obj
 0001:00008580       ??_GLight@@UAEPAXI@Z       00409580 f i read.obj
 0001:00008580       ??_ELight@@UAEPAXI@Z       00409580 f i read.obj
 0001:000085b0       ??_EMaterialSceneObject@@UAEPAXI@Z 004095b0 f i read.obj
 0001:000085b0       ??_GMaterialSceneObject@@UAEPAXI@Z 004095b0 f i read.obj
 0001:000085f0       ??_GPointLight@@UAEPAXI@Z  004095f0 f i read.obj
 0001:000085f0       ??_EPointLight@@UAEPAXI@Z  004095f0 f i read.obj
 0001:00008620       ??_GScene@@UAEPAXI@Z       00409620 f i read.obj
 0001:00008620       ??_EScene@@UAEPAXI@Z       00409620 f i read.obj
 0001:00008650       ??_GSceneElement@@UAEPAXI@Z 00409650 f i read.obj
 0001:00008650       ??_ESceneElement@@UAEPAXI@Z 00409650 f i read.obj
 0001:00008680       ??_GSceneObject@@UAEPAXI@Z 00409680 f i read.obj
 0001:00008680       ??_ESceneObject@@UAEPAXI@Z 00409680 f i read.obj
 0001:000086b0       ??_GSphere@@UAEPAXI@Z      004096b0 f i read.obj
 0001:000086b0       ??_ESphere@@UAEPAXI@Z      004096b0 f i read.obj
 0001:000086f0       ??_GSquare@@UAEPAXI@Z      004096f0 f i read.obj
 0001:000086f0       ??_ESquare@@UAEPAXI@Z      004096f0 f i read.obj
 0001:00008730       ??_GTrimesh@@UAEPAXI@Z     00409730 f i read.obj
 0001:00008730       ??_ETrimesh@@UAEPAXI@Z     00409730 f i read.obj
 0001:00008760       ??_Gbad_cast@std@@UAEPAXI@Z 00409760 f i read.obj
 0001:00008760       ??_Ebad_cast@std@@UAEPAXI@Z 00409760 f i read.obj
 0001:000087a0       ??_Gexception@std@@UAEPAXI@Z 004097a0 f i read.obj
 0001:000087a0       ??_Eexception@std@@UAEPAXI@Z 004097a0 f i read.obj
 0001:000087e0       ??_Eostrstream@std@@UAEPAXI@Z 004097e0 f i read.obj
 0001:000087e0       ??_Gostrstream@std@@UAEPAXI@Z 004097e0 f i read.obj
 0001:00008820       ??_Estrstreambuf@std@@UAEPAXI@Z 00409820 f i read.obj
 0001:00008820       ??_Gstrstreambuf@std@@UAEPAXI@Z 00409820 f i read.obj
 0001:000088b0       ?ComputeBoundingBox@Geometry@@UAEXXZ 004098b0 f i read.obj
 0001:00008ef0       ?ComputeLocalBoundingBox@Box@@UAE?AVBoundingBox@@XZ 00409ef0 f i read.obj
 0001:00008f30       ?ComputeLocalBoundingBox@Cone@@UAE?AVBoundingBox@@XZ 00409f30 f i read.obj
 0001:00008f90       ?ComputeLocalBoundingBox@Cylinder@@UAE?AVBoundingBox@@XZ 00409f90 f i read.obj
 0001:00008fd0       ?ComputeLocalBoundingBox@Geometry@@UAE?AVBoundingBox@@XZ 00409fd0 f i read.obj
 0001:00009000       ?ComputeLocalBoundingBox@Sphere@@UAE?AVBoundingBox@@XZ 0040a000 f i read.obj
 0001:00009040       ?ComputeLocalBoundingBox@Square@@UAE?AVBoundingBox@@XZ 0040a040 f i read.obj
 0001:00009090       ?_Buyheadnode@?$_Tree_comp_alloc@V?$_Tmap_traits@V?$basic_string@DU?$char_traits@D@std@@V?$allocator@D@2@@std@@PAVMaterial@@U?$less@V?$basic_string@DU?$char_traits@D@std@@V?$allocator@D@2@@std@@@2@V?$allocator@U?$pair@$$CBV?$basic_string@DU?$char_traits@D@std@@V?$allocator@D@2@@std@@PAVMaterial@@@std@@@2@$0A@@std@@@std@@QAEPAU?$_Tree_node@U?$pair@$$CBV?$basic_string@DU?$char_traits@D@std@@V?$allocator@D@2@@std@@PAVMaterial@@@std@@PAX@2@XZ 0040a090 f i read.obj
 0001:000090c0       ?_Buynode0@?$_List_alloc@U?$_List_base_types@PAVGeometry@@V?$allocator@PAVGeometry@@@std@@@std@@@std@@QAEPAU?$_List_node@PAVGeometry@@PAX@2@PAU32@0@Z 0040a0c0 f i read.obj
 0001:00009100       ?_Buynode0@?$_List_alloc@U?$_List_base_types@PAVLight@@V?$allocator@PAVLight@@@std@@@std@@@std@@QAEPAU?$_List_node@PAVLight@@PAX@2@PAU32@0@Z 0040a100 f i read.obj
 0001:00009140       ?_Buynode0@?$_List_alloc@U?$_List_base_types@PAVTransformNode@@V?$allocator@PAVTransformNode@@@std@@@std@@@std@@QAEPAU?$_List_node@PAVTransformNode@@PAX@2@PAU32@0@Z 0040a140 f i read.obj
 0001:00009180       ?_Buynode0@?$_Tree_comp_alloc@V?$_Tmap_traits@V?$basic_string@DU?$char_traits@D@std@@V?$allocator@D@2@@std@@PAVMaterial@@U?$less@V?$basic_string@DU?$char_traits@D@std@@V?$allocator@D@2@@std@@@2@V?$allocator@U?$pair@$$CBV?$basic_string@DU?$char_traits@D@std@@V?$allocator@D@2@@std@@PAVMaterial@@@std@@@2@$0A@@std@@@std@@QAEPAU?$_Tree_node@U?$pair@$$CBV?$basic_string@DU?$char_traits@D@std@@V?$allocator@D@2@@std@@PAVMaterial@@@std@@PAX@2@XZ 0040a180 f i read.obj
 0001:000091c0       ?_Destroy_if_not_nil@?$_Tree@V?$_Tmap_traits@V?$basic_string@DU?$char_traits@D@std@@V?$allocator@D@2@@std@@PAVMaterial@@U?$less@V?$basic_string@DU?$char_traits@D@std@@V?$allocator@D@2@@std@@@2@V?$allocator@U?$pair@$$CBV?$basic_string@DU?$char_traits@D@std@@V?$allocator@D@2@@std@@PAVMaterial@@@std@@@2@$0A@@std@@@std@@IAEXPAU?$_Tree_node@U?$pair@$$CBV?$basic_string@DU?$char_traits@D@std@@V?$allocator@D@2@@std@@PAVMaterial@@@std@@PAX@2@@Z 0040a1c0 f i read.obj
 0001:00009210       ?_Endwrite@?$basic_filebuf@DU?$char_traits@D@std@@@std@@IAE_NXZ 0040a210 f i read.obj
 0001:00009380       ?_Erase@?$_Tree@V?$_Tmap_traits@V?$basic_string@DU?$char_traits@D@std@@V?$allocator@D@2@@std@@PAVMaterial@@U?$less@V?$basic_string@DU?$char_traits@D@std@@V?$allocator@D@2@@std@@@2@V?$allocator@U?$pair@$$CBV?$basic_string@DU?$char_traits@D@std@@V?$allocator@D@2@@std@@PAVMaterial@@@std@@@2@$0A@@std@@@std@@IAEXPAU?$_Tree_node@U?$pair@$$CBV?$basic_string@DU?$char_traits@D@std@@V?$allocator@D@2@@std@@PAVMaterial@@@std@@PAX@2@@Z 0040a380 f i read.obj
 0001:00009430       ?_Init@?$basic_filebuf@DU?$char_traits@D@std@@@std@@IAEXPAU_iobuf@@W4_Initfl@12@@Z 0040a430 f i read.obj
 0001:000094c0       ?_Lock@?$basic_filebuf@DU?$char_traits@D@std@@@std@@UAEXXZ 0040a4c0 f i read.obj
 0001:000094d0       ?_Lrotate@?$_Tree@V?$_Tmap_traits@V?$basic_string@DU?$char_traits@D@std@@V?$allocator@D@2@@std@@PAVMaterial@@U?$less@V?$basic_string@DU?$char_traits@D@std@@V?$allocator@D@2@@std@@@2@V?$allocator@U?$pair@$$CBV?$basic_string@DU?$char_traits@D@std@@V?$allocator@D@2@@std@@PAVMaterial@@@std@@@2@$0A@@std@@@std@@IAEXPAU?$_Tree_node@U?$pair@$$CBV?$basic_string@DU?$char_traits@D@std@@V?$allocator@D@2@@std@@PAVMaterial@@@std@@PAX@2@@Z 0040a4d0 f i read.obj
 0001:00009530       ?_Reset_back@?$basic_filebuf@DU?$char_traits@D@std@@@std@@AAEXXZ 0040a530 f i read.obj
 0001:00009560       ?_Rrotate@?$_Tree@V?$_Tmap_traits@V?$basic_string@DU?$char_traits@D@std@@V?$allocator@D@2@@std@@PAVMaterial@@U?$less@V?$basic_string@DU?$char_traits@D@std@@V?$allocator@D@2@@std@@@2@V?$allocator@U?$pair@$$CBV?$basic_string@DU?$char_traits@D@std@@V?$allocator@D@2@@std@@PAVMaterial@@@std@@@2@$0A@@std@@@std@@IAEXPAU?$_Tree_node@U?$pair@$$CBV?$basic_string@DU?$char_traits@D@std@@V?$allocator@D@2@@std@@PAVMaterial@@@std@@PAX@2@@Z 0040a560 f i read.obj
 0001:000095c0       ?_Set_back@?$basic_filebuf@DU?$char_traits@D@std@@@std@@AAEXXZ 0040a5c0 f i read.obj
 0001:00009600       ?_Unlock@?$basic_filebuf@DU?$char_traits@D@std@@@std@@UAEXXZ 0040a600 f i read.obj
 0001:00009610       ?add@Scene@@QAEXPAVGeometry@@@Z 0040a610 f i read.obj
 0001:00009670       ?add@Scene@@QAEXPAVLight@@@Z 0040a670 f i read.obj
 0001:000096c0       ?append@?$basic_string@DU?$char_traits@D@std@@V?$allocator@D@2@@std@@QAEAAV12@PBDI@Z 0040a6c0 f i read.obj
 0001:000097e0       ?close@?$basic_filebuf@DU?$char_traits@D@std@@@std@@QAEPAV12@XZ 0040a7e0 f i read.obj
 0001:00009850       ?createChild@TransformNode@@QAEPAV1@ABVmat4f@@@Z 0040a850 f i read.obj
 0001:00009910       ?erase@?$_Tree@V?$_Tmap_traits@V?$basic_string@DU?$char_traits@D@std@@V?$allocator@D@2@@std@@PAVMaterial@@U?$less@V?$basic_string@DU?$char_traits@D@std@@V?$allocator@D@2@@std@@@2@V?$allocator@U?$pair@$$CBV?$basic_string@DU?$char_traits@D@std@@V?$allocator@D@2@@std@@PAVMaterial@@@std@@@2@$0A@@std@@@std@@QAE?AV?$_Tree_iterator@V?$_Tree_val@U?$_Tree_simple_types@U?$pair@$$CBV?$basic_string@DU?$char_traits@D@std@@V?$allocator@D@2@@std@@PAVMaterial@@@std@@@std@@@std@@@2@V?$_Tree_const_iterator@V?$_Tree_val@U?$_Tree_simple_types@U?$pair@$$CBV?$basic_string@DU?$char_traits@D@std@@V?$allocator@D@2@@std@@PAVMaterial@@@std@@@std@@@std@@@2@0@Z 0040a910 f i read.obj
 0001:00009a00       ?erase@?$_Tree@V?$_Tmap_traits@V?$basic_string@DU?$char_traits@D@std@@V?$allocator@D@2@@std@@PAVMaterial@@U?$less@V?$basic_string@DU?$char_traits@D@std@@V?$allocator@D@2@@std@@@2@V?$allocator@U?$pair@$$CBV?$basic_string@DU?$char_traits@D@std@@V?$allocator@D@2@@std@@PAVMaterial@@@std@@@2@$0A@@std@@@std@@QAE?AV?$_Tree_iterator@V?$_Tree_val@U?$_Tree_simple_types@U?$pair@$$CBV?$basic_string@DU?$char_traits@D@std@@V?$allocator@D@2@@std@@PAVMaterial@@@std@@@std@@@std@@@2@V?$_Tree_const_iterator@V?$_Tree_val@U?$_Tree_simple_types@U?$pair@$$CBV?$basic_string@DU?$char_traits@D@std@@V?$allocator@D@2@@std@@PAVMaterial@@@std@@@std@@@std@@@2@@Z 0040aa00 f i read.obj
 0001:00009cf0       ?find@?$_Tree@V?$_Tmap_traits@V?$basic_string@DU?$char_traits@D@std@@V?$allocator@D@2@@std@@PAVMaterial@@U?$less@V?$basic_string@DU?$char_traits@D@std@@V?$allocator@D@2@@std@@@2@V?$allocator@U?$pair@$$CBV?$basic_string@DU?$char_traits@D@std@@V?$allocator@D@2@@std@@PAVMaterial@@@std@@@2@$0A@@std@@@std@@QBE?AV?$_Tree_const_iterator@V?$_Tree_val@U?$_Tree_simple_types@U?$pair@$$CBV?$basic_string@DU?$char_traits@D@std@@V?$allocator@D@2@@std@@PAVMaterial@@@std@@@std@@@std@@@2@ABV?$basic_string@DU?$char_traits@D@std@@V?$allocator@D@2@@2@@Z 0040acf0 f i read.obj
 0001:00009d80       ?find@?$_Tree@V?$_Tmap_traits@V?$basic_string@DU?$char_traits@D@std@@V?$allocator@D@2@@std@@PAVObj@@U?$less@V?$basic_string@DU?$char_traits@D@std@@V?$allocator@D@2@@std@@@2@V?$allocator@U?$pair@$$CBV?$basic_string@DU?$char_traits@D@std@@V?$allocator@D@2@@std@@PAVObj@@@std@@@2@$0A@@std@@@std@@QBE?AV?$_Tree_const_iterator@V?$_Tree_val@U?$_Tree_simple_types@U?$pair@$$CBV?$basic_string@DU?$char_traits@D@std@@V?$allocator@D@2@@std@@PAVObj@@@std@@@std@@@std@@@2@ABV?$basic_string@DU?$char_traits@D@std@@V?$allocator@D@2@@2@@Z 0040ad80 f i read.obj
 0001:0000a250       ?getMaterial@MaterialSceneObject@@UBEABVMaterial@@XZ 0040b250 f i read.obj
 0001:0000a260       ?getMsg@Exception@@QBE?AV?$basic_string@DU?$char_traits@D@std@@V?$allocator@D@2@@std@@XZ 0040b260 f i read.obj
 0001:0000a2a0       ?hasBoundingBoxCapability@Box@@UBE_NXZ 0040b2a0 f i read.obj
 0001:0000a2b0       ?hasBoundingBoxCapability@Cone@@UBE_NXZ 0040b2b0 f i read.obj
 0001:0000a2c0       ?hasBoundingBoxCapability@Cylinder@@UBE_NXZ 0040b2c0 f i read.obj
 0001:0000a2d0       ?hasBoundingBoxCapability@Sphere@@UBE_NXZ 0040b2d0 f i read.obj
 0001:0000a2e0       ?hasBoundingBoxCapability@Square@@UBE_NXZ 0040b2e0 f i read.obj
 0001:0000a2f0       ?imbue@?$basic_filebuf@DU?$char_traits@D@std@@@std@@MAEXABVlocale@2@@Z 0040b2f0 f i read.obj
 0001:0000a3f0       ?open@?$basic_filebuf@DU?$char_traits@D@std@@@std@@QAEPAV12@PBDHH@Z 0040b3f0 f i read.obj
 0001:0000a4d0       ?overflow@?$basic_filebuf@DU?$char_traits@D@std@@@std@@MAEHH@Z 0040b4d0 f i read.obj
 0001:0000a6e0       ?overflow@strstreambuf@std@@MAEHH@Z 0040b6e0 f i read.obj
 0001:0000a890       ?pbackfail@?$basic_filebuf@DU?$char_traits@D@std@@@std@@MAEHH@Z 0040b890 f i read.obj
 0001:0000a920       ?pbackfail@strstreambuf@std@@MAEHH@Z 0040b920 f i read.obj
 0001:0000d880       ?readScene@@YAPAVScene@@AAV?$basic_istream@DU?$char_traits@D@std@@@std@@@Z 0040e880 f   read.obj
 0001:0000db20       ?readScene@@YAPAVScene@@ABV?$basic_string@DU?$char_traits@D@std@@V?$allocator@D@2@@std@@@Z 0040eb20 f   read.obj
 0001:0000dc50       ?rotate@mat4f@@SA?AV1@ABVvec3f@@N@Z 0040ec50 f i read.obj
 0001:0000de50       ?seekoff@?$basic_filebuf@DU?$char_traits@D@std@@@std@@MAE?AV?$fpos@U_Mbstatet@@@2@_JHH@Z 0040ee50 f i read.obj
 0001:0000df50       ?seekoff@strstreambuf@std@@MAE?AV?$fpos@U_Mbstatet@@@2@_JHH@Z 0040ef50 f i read.obj
 0001:0000e0b0       ?seekpos@?$basic_filebuf@DU?$char_traits@D@std@@@std@@MAE?AV?$fpos@U_Mbstatet@@@2@V32@H@Z 0040f0b0 f i read.obj
 0001:0000e190       ?seekpos@strstreambuf@std@@MAE?AV?$fpos@U_Mbstatet@@@2@V32@H@Z 0040f190 f i read.obj
 0001:0000e280       ?setMaterial@MaterialSceneObject@@UAEXPAVMaterial@@@Z 0040f280 f i read.obj
 0001:0000e290       ?setbuf@?$basic_filebuf@DU?$char_traits@D@std@@@std@@MAEPAV?$basic_streambuf@DU?$char_traits@D@std@@@2@PAD_J@Z 0040f290 f i read.obj
 0001:0000e2e0       ?str@ostrstream@std@@QAEPADXZ 0040f2e0 f i read.obj
 0001:0000e320       ?sync@?$basic_filebuf@DU?$char_traits@D@std@@@std@@MAEHXZ 0040f320 f i read.obj
 0001:0000e3c0       ?uflow@?$basic_filebuf@DU?$char_traits@D@std@@@std@@MAEHXZ 0040f3c0 f i read.obj
 0001:0000e5c0       ?underflow@?$basic_filebuf@DU?$char_traits@D@std@@@std@@MAEHXZ 0040f5c0 f i read.obj
 0001:0000e600       ?underflow@strstreambuf@std@@MAEHXZ 0040f600 f i read.obj
 0001:0000e7d0       ?what@exception@std@@UBEPBDXZ 0040f7d0 f i read.obj
 0001:0000e880       ?inverse@mat3f@@QBE?AV1@XZ 0040f880 f   vecmath.obj
 0001:0000ec80       ?inverse@mat4f@@QBE?AV1@XZ 0040fc80 f   vecmath.obj
 0001:0000f0e0       ??0Camera@@QAE@XZ          004100e0 f   camera.obj
 0001:0000f180       ?rayThrough@Camera@@QAEXNNAAVray@@@Z 00410180 f   camera.obj
 0001:0000f2a0       ?setAspectRatio@Camera@@QAEXN@Z 004102a0 f   camera.obj
 0001:0000f440       ?setEye@Camera@@QAEXABVvec3f@@@Z 00410440 f   camera.obj
 0001:0000f470       ?setFOV@Camera@@QAEXN@Z    00410470 f   camera.obj
 0001:0000f630       ?setLook@Camera@@QAEXABVvec3f@@0@Z 00410630 f   camera.obj
 0001:0000f870       ?setLook@Camera@@QAEXNNNN@Z 00410870 f   camera.obj
 0001:0000fb10       ?update@Camera@@AAEXXZ     00410b10 f   camera.obj
 0001:0000fca0       ?distanceAttenuation@DirectionalLight@@UBENABVvec3f@@@Z 00410ca0 f   light.obj
 0001:0000fcb0       ?distanceAttenuation@PointLight@@UBENABVvec3f@@@Z 00410cb0 f   light.obj
 0001:0000fcc0       ?getColor@DirectionalLight@@UBE?AVvec3f@@ABV2@@Z 00410cc0 f   light.obj
 0001:0000fce0       ?getColor@PointLight@@UBE?AVvec3f@@ABV2@@Z 00410ce0 f   light.obj
 0001:0000fd00       ?getDirection@DirectionalLight@@UBE?AVvec3f@@ABV2@@Z 00410d00 f   light.obj
 0001:0000fd30       ?getDirection@PointLight@@UBE?AVvec3f@@ABV2@@Z 00410d30 f   light.obj
 0001:0000fdc0       ?shadowAttenuation@DirectionalLight@@UBE?AVvec3f@@ABV2@@Z 00410dc0 f   light.obj
 0001:0000fde0       ?shadowAttenuation@PointLight@@UBE?AVvec3f@@ABV2@@Z 00410de0 f   light.obj
 0001:0000fe00       ?shade@Material@@UBE?AVvec3f@@PAVScene@@ABVray@@ABVisect@@@Z 00410e00 f   material.obj
 0001:0000fe20       ?getMaterial@isect@@QBEABVMaterial@@XZ 00410e20 f   ray.obj
 0001:0000fe30       ??0Material@@QAE@ABV0@@Z   00410e30 f i scene.obj
 0001:0000ff30       ??1Scene@@UAE@XZ           00410f30 f   scene.obj
 0001:00010110       ??4BoundingBox@@QAEXABV0@@Z 00411110 f   scene.obj
 0001:00010160       ??4Material@@QAEAAV0@ABV0@@Z 00411160 f i scene.obj
 0001:00010260       ??4isect@@QAEAAV0@ABV0@@Z  00411260 f i scene.obj
 0001:00010300       ?hasBoundingBoxCapability@Geometry@@UBE_NXZ 00411300 f   scene.obj
 0001:00010310       ?initScene@Scene@@QAEXXZ   00411310 f   scene.obj
 0001:000104e0       ?intersect@BoundingBox@@QBE_NABVray@@AAN1@Z 004114e0 f   scene.obj
 0001:000105f0       ?intersect@Geometry@@UBE_NABVray@@AAVisect@@@Z 004115f0 f   scene.obj
 0001:00010940       ?intersect@Scene@@QBE_NABVray@@AAVisect@@@Z 00411940 f   scene.obj
 0001:00010cd0       ?intersectLocal@Geometry@@UBE_NABVray@@AAVisect@@@Z 00411cd0 f   scene.obj
 0001:00010ce0       ?intersects@BoundingBox@@QBE_NABV1@@Z 00411ce0 f   scene.obj
 0001:00010d70       ?intersects@BoundingBox@@QBE_NABVvec3f@@@Z 00411d70 f   scene.obj
 0001:00010df0       ?intersectLocal@Box@@UBE_NABVray@@AAVisect@@@Z 00411df0 f   Box.obj
 0001:00010e00       ?intersectBody@Cone@@QBE_NABVray@@AAVisect@@@Z 00411e00 f   Cone.obj
 0001:00011150       ?intersectCaps@Cone@@QBE_NABVray@@AAVisect@@@Z 00412150 f   Cone.obj
 0001:000112f0       ?intersectLocal@Cone@@UBE_NABVray@@AAVisect@@@Z 004122f0 f   Cone.obj
 0001:000113c0       ?intersectBody@Cylinder@@QBE_NABVray@@AAVisect@@@Z 004123c0 f   Cylinder.obj
 0001:000116a0       ?intersectCaps@Cylinder@@QBE_NABVray@@AAVisect@@@Z 004126a0 f   Cylinder.obj
 0001:00011800       ?intersectLocal@Cylinder@@UBE_NABVray@@AAVisect@@@Z 00412800 f   Cylinder.obj
 0001:000118d0       ?intersectLocal@Sphere@@UBE_NABVray@@AAVisect@@@Z 004128d0 f   Sphere.obj
 0001:00011ac0       ?intersectLocal@Square@@UBE_NABVray@@AAVisect@@@Z 00412ac0 f   Square.obj
 0001:00011b90       ??$_Uninitialized_default_fill_n1@PAVvec3f@@IV?$allocator@Vvec3f@@@std@@@std@@YAXPAVvec3f@@IAAU?$_Wrap_alloc@V?$allocator@Vvec3f@@@std@@@0@U?$integral_constant@_N$0A@@0@@Z 00412b90 f i trimesh.obj
 0001:00011bc0       ??$_Uninitialized_move_al_unchecked1@PAVvec3f@@PAV1@V?$allocator@Vvec3f@@@std@@@std@@YAPAVvec3f@@PAV1@00AAU?$_Wrap_alloc@V?$allocator@Vvec3f@@@std@@@0@U_General_ptr_iterator_tag@0@U_Any_tag@0@@Z 00412bc0 f i trimesh.obj
 0001:00011c00       ??1Trimesh@@UAE@XZ         00412c00 f   trimesh.obj
 0001:00011e60       ??D@YA?AVMaterial@@NV0@@Z  00412e60 f i trimesh.obj
 0001:00012000       ??YMaterial@@QAEAAV0@ABV0@@Z 00413000 f i trimesh.obj
 0001:00012170       ??_ETrimeshFace@@UAEPAXI@Z 00413170 f i trimesh.obj
 0001:00012170       ??_GTrimeshFace@@UAEPAXI@Z 00413170 f i trimesh.obj
 0001:000121b0       ?ComputeLocalBoundingBox@TrimeshFace@@UAE?AVBoundingBox@@XZ 004131b0 f i trimesh.obj
 0001:000122d0       ?_Reallocate@?$vector@PAVMaterial@@V?$allocator@PAVMaterial@@@std@@@std@@IAEXI@Z 004132d0 f i trimesh.obj
 0001:00012330       ?_Reallocate@?$vector@PAVTrimeshFace@@V?$allocator@PAVTrimeshFace@@@std@@@std@@IAEXI@Z 00413330 f i trimesh.obj
 0001:00012390       ?_Reallocate@?$vector@Vvec3f@@V?$allocator@Vvec3f@@@std@@@std@@IAEXI@Z 00413390 f i trimesh.obj
 0001:00012470       ?_Reserve@?$vector@PAVMaterial@@V?$allocator@PAVMaterial@@@std@@@std@@IAEXI@Z 00413470 f i trimesh.obj
 0001:000124e0       ?_Reserve@?$vector@PAVTrimeshFace@@V?$allocator@PAVTrimeshFace@@@std@@@std@@IAEXI@Z 004134e0 f i trimesh.obj
 0001:00012550       ?_Reserve@?$vector@Vvec3f@@V?$allocator@Vvec3f@@@std@@@std@@IAEXI@Z 00413550 f i trimesh.obj
 0001:000125f0       ?_Tidy@?$vector@Vvec3f@@V?$allocator@Vvec3f@@@std@@@std@@IAEXXZ 004135f0 f i trimesh.obj
 0001:00012640       ?addFace@Trimesh@@QAE_NHHH@Z 00413640 f   trimesh.obj
 0001:00012760       ?addMaterial@Trimesh@@QAEXPAVMaterial@@@Z 00413760 f   trimesh.obj
 0001:00012780       ?addNormal@Trimesh@@QAEXABVvec3f@@@Z 00413780 f   trimesh.obj
 0001:00012790       ?addVertex@Trimesh@@QAEXABVvec3f@@@Z 00413790 f   trimesh.obj
 0001:000127a0       ?allocate@?$allocator@PAVMaterial@@@std@@QAEPAPAVMaterial@@I@Z 004137a0 f i trimesh.obj
 0001:00012810       ?allocate@?$allocator@PAVTrimeshFace@@@std@@QAEPAPAVTrimeshFace@@I@Z 00413810 f i trimesh.obj
 0001:00012880       ?allocate@?$allocator@Vvec3f@@@std@@QAEPAVvec3f@@I@Z 00413880 f i trimesh.obj
 0001:000128f0       ?doubleCheck@Trimesh@@QAEPADXZ 004138f0 f   trimesh.obj
 0001:00012990       ?generateNormals@Trimesh@@QAEXXZ 00413990 f   trimesh.obj
 0001:00012c20       ?hasBoundingBoxCapability@TrimeshFace@@UBE_NXZ 00413c20 f i trimesh.obj
 0001:00012c30       ?intersectLocal@TrimeshFace@@UBE_NABVray@@AAVisect@@@Z 00413c30 f   trimesh.obj
 0001:00013370       ?push_back@?$vector@PAVMaterial@@V?$allocator@PAVMaterial@@@std@@@std@@QAEXABQAVMaterial@@@Z 00414370 f i trimesh.obj
 0001:000133e0       ?push_back@?$vector@PAVTrimeshFace@@V?$allocator@PAVTrimeshFace@@@std@@@std@@QAEXABQAVTrimeshFace@@@Z 004143e0 f i trimesh.obj
 0001:00013450       ?push_back@?$vector@Vvec3f@@V?$allocator@Vvec3f@@@std@@@std@@QAEXABVvec3f@@@Z 00414450 f i trimesh.obj
 0001:00013500       ?resize@?$vector@Vvec3f@@V?$allocator@Vvec3f@@@std@@@std@@QAEXI@Z 00414500 f i trimesh.obj
 0001:00013600       ?visual@Fl@@SAHH@Z         00414600 f   fltk:Fl_visual.obj
 0001:00013660       ?option@Fl@@SA_NW4Fl_Option@1@@Z 00414660 f   fltk:Fl.obj
 0001:000138f0       ?option@Fl@@SAXW4Fl_Option@1@_N@Z 004148f0 f   fltk:Fl.obj
 0001:00013930       ?version@Fl@@SANXZ         00414930 f   fltk:Fl.obj
 0001:00013940       ?scrollbar_size@Fl@@SAHXZ  00414940 f   fltk:Fl.obj
 0001:00013950       ?scrollbar_size@Fl@@SAXH@Z 00414950 f   fltk:Fl.obj
 0001:00013960       ?wait@Fl@@SAHXZ            00414960 f   fltk:Fl.obj
 0001:000139b0       ?wait@Fl@@SANN@Z           004149b0 f   fltk:Fl.obj
 0001:000139e0       ?check@Fl@@SAHXZ           004149e0 f   fltk:Fl.obj
 0001:00013a20       ?ready@Fl@@SAHXZ           00414a20 f   fltk:Fl.obj
 0001:00013a30       ?run@Fl@@SAHXZ             00414a30 f   fltk:Fl.obj
 0001:00013a60       ?add_timeout@Fl@@SAXNP6AXPAX@Z0@Z 00414a60 f   fltk:Fl.obj
 0001:00013a90       ?repeat_timeout@Fl@@SAXNP6AXPAX@Z0@Z 00414a90 f   fltk:Fl.obj
 0001:00013c40       ?has_timeout@Fl@@SAHP6AXPAX@Z0@Z 00414c40 f   fltk:Fl.obj
 0001:00013ca0       ?remove_timeout@Fl@@SAXP6AXPAX@Z0@Z 00414ca0 f   fltk:Fl.obj
 0001:00013d10       ?add_check@Fl@@SAXP6AXPAX@Z0@Z 00414d10 f   fltk:Fl.obj
 0001:00013d90       ?has_check@Fl@@SAHP6AXPAX@Z0@Z 00414d90 f   fltk:Fl.obj
 0001:00013de0       ?remove_check@Fl@@SAXP6AXPAX@Z0@Z 00414de0 f   fltk:Fl.obj
 0001:00013e60       ?add_fd@Fl@@SAXHHP6AXHPAX@Z0@Z 00414e60 f   fltk:Fl.obj
 0001:00014130       ?add_fd@Fl@@SAXHP6AXHPAX@Z0@Z 00415130 f   fltk:Fl.obj
 0001:00014150       ?remove_fd@Fl@@SAXHH@Z     00415150 f   fltk:Fl.obj
 0001:00014450       ?remove_fd@Fl@@SAXH@Z      00415450 f   fltk:Fl.obj
 0001:00014470       ?redraw@Fl@@SAXXZ          00415470 f   fltk:Fl.obj
 0001:000144a0       ?flush@Fl@@SAXXZ           004154a0 f   fltk:Fl.obj
 0001:00014570       ?first_window@Fl@@SAPAVFl_Window@@XZ 00415570 f   fltk:Fl.obj
 0001:000145a0       ?first_window@Fl@@SAXPAVFl_Window@@@Z 004155a0 f   fltk:Fl.obj
 0001:000145f0       ?next_window@Fl@@SAPAVFl_Window@@PBV2@@Z 004155f0 f   fltk:Fl.obj
 0001:00014630       ?get_mouse@Fl@@SAXAAH0@Z   00415630 f   fltk:Fl.obj
 0001:00014660       ?event_inside@Fl@@SAHHHHH@Z 00415660 f   fltk:Fl.obj
 0001:000146b0       ?event_inside@Fl@@SAHPBVFl_Widget@@@Z 004156b0 f   fltk:Fl.obj
 0001:00014730       ?enable_im@Fl@@SAXXZ       00415730 f   fltk:Fl.obj
 0001:00014770       ?disable_im@Fl@@SAXXZ      00415770 f   fltk:Fl.obj
 0001:000147b0       ?handle@Fl@@SAHHPAVFl_Window@@@Z 004157b0 f   fltk:Fl.obj
 0001:000147f0       ?handle_@Fl@@SAHHPAVFl_Window@@@Z 004157f0 f   fltk:Fl.obj
 0001:00014ed0       ?belowmouse@Fl@@SAXPAVFl_Widget@@@Z 00415ed0 f   fltk:Fl.obj
 0001:00014f70       ?pushed@Fl@@SAXPAVFl_Widget@@@Z 00415f70 f   fltk:Fl.obj
 0001:00014f80       ?focus@Fl@@SAXPAVFl_Widget@@@Z 00415f80 f   fltk:Fl.obj
 0001:00015080       ?add_handler@Fl@@SAXP6AHH@Z@Z 00416080 f   fltk:Fl.obj
 0001:000150c0       ?remove_handler@Fl@@SAXP6AHH@Z@Z 004160c0 f   fltk:Fl.obj
 0001:00015140       ?add_system_handler@Fl@@SAXP6AHPAX0@Z0@Z 00416140 f   fltk:Fl.obj
 0001:00015190       ?remove_system_handler@Fl@@SAXP6AHPAX0@Z@Z 00416190 f   fltk:Fl.obj
 0001:00015210       ?event_dispatch@Fl@@SAXP6AHHPAVFl_Window@@@Z@Z 00416210 f   fltk:Fl.obj
 0001:00015220       ?event_dispatch@Fl@@SAP6AHHPAVFl_Window@@@ZXZ 00416220 f   fltk:Fl.obj
 0001:00015230       ?copy@Fl@@SAXPBDHH0@Z      00416230 f   fltk:Fl.obj
 0001:00015360       ?copy@Fl@@SAXPBDHH@Z       00416360 f   fltk:Fl.obj
 0001:00015380       ?paste@Fl@@SAXAAVFl_Widget@@HPBD@Z 00416380 f   fltk:Fl.obj
 0001:00016070       ?paste@Fl@@SAXAAVFl_Widget@@H@Z 00417070 f   fltk:Fl.obj
 0001:00016090       ?add_clipboard_notify@Fl@@SAXP6AXHPAX@Z0@Z 00417090 f   fltk:Fl.obj
 0001:000160f0       ?remove_clipboard_notify@Fl@@SAXP6AXHPAX@Z@Z 004170f0 f   fltk:Fl.obj
 0001:00016160       ?clipboard_contains@Fl@@SAHPBD@Z 00417160 f   fltk:Fl.obj
 0001:00016210       ?selection_owner@Fl@@SAXPAVFl_Widget@@@Z 00417210 f   fltk:Fl.obj
 0001:00016220       ?selection@Fl@@SAXAAVFl_Widget@@PBDH@Z 00417220 f   fltk:Fl.obj
 0001:00016240       ?paste@Fl@@SAXAAVFl_Widget@@@Z 00417240 f   fltk:Fl.obj
 0001:00016260       ?x@Fl@@SAHXZ               00417260 f   fltk:Fl.obj
 0001:000162a0       ?y@Fl@@SAHXZ               004172a0 f   fltk:Fl.obj
 0001:000162e0       ?w@Fl@@SAHXZ               004172e0 f   fltk:Fl.obj
 0001:00016320       ?h@Fl@@SAHXZ               00417320 f   fltk:Fl.obj
 0001:00016360       ?thread_message@Fl@@SAPAXXZ 00417360 f   fltk:Fl.obj
 0001:00016380       ?delete_widget@Fl@@SAXPAVFl_Widget@@@Z 00417380 f   fltk:Fl.obj
 0001:00016480       ?do_widget_deletion@Fl@@SAXXZ 00417480 f   fltk:Fl.obj
 0001:00016500       ?watch_widget_pointer@Fl@@SAXAAPAVFl_Widget@@@Z 00417500 f   fltk:Fl.obj
 0001:000165a0       ?release_widget_pointer@Fl@@SAXAAPAVFl_Widget@@@Z 004175a0 f   fltk:Fl.obj
 0001:00016620       ?clear_widget_pointer@Fl@@SAXPBVFl_Widget@@@Z 00417620 f   fltk:Fl.obj
 0001:00016690       ??0Fl_Widget_Tracker@@QAE@PAVFl_Widget@@@Z 00417690 f   fltk:Fl.obj
 0001:000166c0       ??1Fl_Widget_Tracker@@QAE@XZ 004176c0 f   fltk:Fl.obj
 0001:00016710       ?redraw@Fl_Widget@@QAEXXZ  00417710 f   fltk:Fl.obj
 0001:00016730       ?redraw_label@Fl_Widget@@QAEXXZ 00417730 f   fltk:Fl.obj
 0001:00016d30       ?damage@Fl_Widget@@QAEXE@Z 00417d30 f   fltk:Fl.obj
 0001:00016df0       ?damage@Fl_Widget@@QAEXEHHHH@Z 00417df0 f   fltk:Fl.obj
 0001:00016fe0       ?size_range_@Fl_Window@@AAEXXZ 00417fe0 f   fltk:Fl.obj
 0001:00017000       ?fullscreen_x@Fl_Window@@AAEXXZ 00418000 f   fltk:Fl.obj
 0001:00017070       ?fullscreen_off_x@Fl_Window@@AAEXHHHH@Z 00418070 f   fltk:Fl.obj
 0001:00017250       ?flush@Fl_Window@@MAEXXZ   00418250 f   fltk:Fl.obj
 0001:000172c0       ?handle@Fl_Window@@UAEHH@Z 004182c0 f   fltk:Fl.obj
 0001:00017430       ?resize@Fl_Window@@UAEXHHHH@Z 00418430 f   fltk:Fl.obj
 0001:00017710       ?label@Fl_Window@@QAEXPBD0@Z 00418710 f   fltk:Fl.obj
 0001:00017800       ?default_icons@Fl_Window@@SAXPAUHICON__@@0@Z 00418800 f   fltk:Fl.obj
 0001:00017820       ?icons@Fl_Window@@QAEXPAUHICON__@@0@Z 00418820 f   fltk:Fl.obj
 0001:00017880       ?show@Fl_Window@@UAEXXZ    00418880 f   fltk:Fl.obj
 0001:00017940       ?hide@Fl_Window@@UAEXXZ    00418940 f   fltk:Fl.obj
 0001:00017da0       ?make_current@Fl_Window@@QAEXXZ 00418da0 f   fltk:Fl.obj
 0001:00017e00       ?decorated_w@Fl_Window@@QAEHXZ 00418e00 f   fltk:Fl.obj
 0001:00017ed0       ?decorated_h@Fl_Window@@QAEHXZ 00418ed0 f   fltk:Fl.obj
 0001:00017fa0       ?XRectangleRegion@@YAPAUHRGN__@@HHHH@Z 00418fa0 f   fltk:Fl.obj
 0001:00018050       ?fake_X_wm@Fl_X@@SAHPBVFl_Window@@AAH1111@Z 00419050 f   fltk:Fl.obj
 0001:00018780       ?make_fullscreen@Fl_X@@QAEXHHHH@Z 00419780 f   fltk:Fl.obj
 0001:000188e0       ?set_minmax@Fl_X@@QAEXPAUtagMINMAXINFO@@@Z 004198e0 f   fltk:Fl.obj
 0001:000189d0       ?set_default_icons@Fl_X@@SAXQAPBVFl_RGB_Image@@H@Z 004199d0 f   fltk:Fl.obj
 0001:00018a90       ?set_default_icons@Fl_X@@SAXPAUHICON__@@0@Z 00419a90 f   fltk:Fl.obj
 0001:00018b00       ?set_icons@Fl_X@@QAEXXZ    00419b00 f   fltk:Fl.obj
 0001:00018ca0       ?set_cursor@Fl_X@@QAEHW4Fl_Cursor@@@Z 00419ca0 f   fltk:Fl.obj
 0001:00018e30       ?set_cursor@Fl_X@@QAEHPBVFl_RGB_Image@@HH@Z 00419e30 f   fltk:Fl.obj
 0001:00018eb0       ?make@Fl_X@@SAPAV1@PAVFl_Window@@@Z 00419eb0 f   fltk:Fl.obj
 0001:00019b50       ?fl_release_dc@@YAXPAUHWND__@@PAUHDC__@@@Z 0041ab50 f   fltk:Fl.obj
 0001:00019bf0       ?fl_save_dc@@YAXPAUHWND__@@PAUHDC__@@@Z 0041abf0 f   fltk:Fl.obj
 0001:00019c60       ?fl_open_display@@YAXXZ    0041ac60 f   fltk:Fl.obj
 0001:00019c90       ?fl_find@@YAPAVFl_Window@@PAUHWND__@@@Z 0041ac90 f   fltk:Fl.obj
 0001:00019d10       ?fl_GetDC@@YAPAUHDC__@@PAUHWND__@@@Z 0041ad10 f   fltk:Fl.obj
 0001:00019db0       ?fl_free_fonts@@YAXXZ      0041adb0 f   fltk:Fl.obj
 0001:00019e70       ?fl_cleanup_dc_list@@YAXXZ 0041ae70 f   fltk:Fl.obj
 0001:00019f40       ?fl_clipboard_notify_change@@YAXXZ 0041af40 f   fltk:Fl.obj
 0001:00019fc0       ?fl_clipboard_notify_empty@@YA_NXZ 0041afc0 f   fltk:Fl.obj
 0001:00019ff0       ?fl_trigger_clipboard_notify@@YAXH@Z 0041aff0 f   fltk:Fl.obj
 0001:0001a030       ?fl_ready@@YAHXZ           0041b030 f   fltk:Fl.obj
 0001:0001a110       ?fl_wait@@YAHN@Z           0041b110 f   fltk:Fl.obj
 0001:0001a520       ?fl_send_system_handlers@@YAHPAX@Z 0041b520 f   fltk:Fl.obj
 0001:0001a580       ?fl_fix_focus@@YAXXZ       0041b580 f   fltk:Fl.obj
 0001:0001a760       ?fl_throw_focus@@YAXPAVFl_Widget@@@Z 0041b760 f   fltk:Fl.obj
 0001:0001a930       ?fl_clipboard_notify_retarget@@YAXPAUHWND__@@@Z 0041b930 f   fltk:Fl.obj
 0001:0001a990       ?fl_update_clipboard@@YAXXZ 0041b990 f   fltk:Fl.obj
 0001:0001aaa0       ?fl_set_status@@YAXHHHH@Z  0041baa0 f   fltk:Fl.obj
 0001:0001aab0       ?fl_set_spot@@YAXHHHHHHPAVFl_Window@@@Z 0041bab0 f   fltk:Fl.obj
 0001:0001ac10       ?fl_reset_spot@@YAXXZ      0041bc10 f   fltk:Fl.obj
 0001:0001ac20       ?print_window@Fl_Paged_Device@@QAEXPAVFl_Window@@HH@Z 0041bc20 f   fltk:Fl.obj
 0001:0001b250       ?fl_get_lcid_codepage@@YAIK@Z 0041c250 f   fltk:Fl.obj
 0001:0001b2b0       ?fl_get_codepage@@YAXXZ    0041c2b0 f   fltk:Fl.obj
 0001:0001c870       ?fl_filename_name@@YAPBDPBD@Z 0041d870 f   fltk:Fl.obj
 0001:0001ce70       ?fl_xid_@@YAPAUHWND__@@PBVFl_Window@@@Z 0041de70 f   fltk:Fl.obj
 0001:0001cea0       ??0Lf2CrlfConvert@@QAE@PBDH@Z 0041dea0 f i fltk:Fl.obj
 0001:0001d060       ??1Fl_Win32_At_Exit@@QAE@XZ 0041e060 f i fltk:Fl.obj
 0001:0001d0d0       ??1Lf2CrlfConvert@@QAE@XZ  0041e0d0 f i fltk:Fl.obj
 0001:0001d100       ??1NameList@@QAE@XZ        0041e100 f i fltk:Fl.obj
 0001:0001d160       ??_EFl_Device@@UAEPAXI@Z   0041e160 f i fltk:Fl.obj
 0001:0001d160       ??_GFl_Device@@UAEPAXI@Z   0041e160 f i fltk:Fl.obj
 0001:0001d190       ??_EFl_GDI_Graphics_Driver@@UAEPAXI@Z 0041e190 f i fltk:Fl.obj
 0001:0001d190       ??_GFl_GDI_Graphics_Driver@@UAEPAXI@Z 0041e190 f i fltk:Fl.obj
 0001:0001d1f0       ??_EFl_Graphics_Driver@@UAEPAXI@Z 0041e1f0 f i fltk:Fl.obj
 0001:0001d1f0       ??_GFl_Graphics_Driver@@UAEPAXI@Z 0041e1f0 f i fltk:Fl.obj
 0001:0001d250       ??_EFl_Image@@UAEPAXI@Z    0041e250 f i fltk:Fl.obj
 0001:0001d250       ??_GFl_Image@@UAEPAXI@Z    0041e250 f i fltk:Fl.obj
 0001:0001d280       ??_EFl_RGB_Image@@UAEPAXI@Z 0041e280 f i fltk:Fl.obj
 0001:0001d280       ??_GFl_RGB_Image@@UAEPAXI@Z 0041e280 f i fltk:Fl.obj
 0001:0001d2b0       ??_GFl_Surface_Device@@UAEPAXI@Z 0041e2b0 f i fltk:Fl.obj
 0001:0001d2b0       ??_EFl_Surface_Device@@UAEPAXI@Z 0041e2b0 f i fltk:Fl.obj
 0001:0001d2f0       ?add_name@NameList@@QAEXPBD@Z 0041e2f0 f i fltk:Fl.obj
 0001:0001d370       ?class_name@Fl_Device@@UAEPBDXZ 0041e370 f i fltk:Fl.obj
 0001:0001d380       ?class_name@Fl_GDI_Graphics_Driver@@UAEPBDXZ 0041e380 f i fltk:Fl.obj
 0001:0001d390       ?class_name@Fl_Graphics_Driver@@UAEPBDXZ 0041e390 f i fltk:Fl.obj
 0001:0001d3a0       ?class_name@Fl_Surface_Device@@UAEPBDXZ 0041e3a0 f i fltk:Fl.obj
 0001:0001d3b0       ?color@Fl_Graphics_Driver@@MAEXEEE@Z 0041e3b0 f i fltk:Fl.obj
 0001:0001d3c0       ?color@Fl_Graphics_Driver@@MAEXI@Z 0041e3c0 f i fltk:Fl.obj
 0001:0001d3e0       ?descent@Fl_Graphics_Driver@@UAEHXZ 0041e3e0 f i fltk:Fl.obj
 0001:0001d3f0       ?draw@Fl_Graphics_Driver@@MAEXHPBDHHH@Z 0041e3f0 f i fltk:Fl.obj
 0001:0001d400       ?draw@Fl_Graphics_Driver@@MAEXPAVFl_Bitmap@@HHHHHH@Z 0041e400 f i fltk:Fl.obj
 0001:0001d410       ?draw@Fl_Graphics_Driver@@MAEXPAVFl_Pixmap@@HHHHHH@Z 0041e410 f i fltk:Fl.obj
 0001:0001d420       ?draw@Fl_Graphics_Driver@@MAEXPAVFl_RGB_Image@@HHHHHH@Z 0041e420 f i fltk:Fl.obj
 0001:0001d430       ?draw@Fl_Graphics_Driver@@MAEXPBDHHH@Z 0041e430 f i fltk:Fl.obj
 0001:0001d440       ?draw_image@Fl_Graphics_Driver@@MAEXP6AXPAXHHHPAE@Z0HHHHH@Z 0041e440 f i fltk:Fl.obj
 0001:0001d450       ?draw_image@Fl_Graphics_Driver@@MAEXPBEHHHHHH@Z 0041e450 f i fltk:Fl.obj
 0001:0001d460       ?draw_image_mono@Fl_Graphics_Driver@@MAEXP6AXPAXHHHPAE@Z0HHHHH@Z 0041e460 f i fltk:Fl.obj
 0001:0001d470       ?draw_image_mono@Fl_Graphics_Driver@@MAEXPBEHHHHHH@Z 0041e470 f i fltk:Fl.obj
 0001:0001d480       ?font@Fl_Graphics_Driver@@UAEXHH@Z 0041e480 f i fltk:Fl.obj
 0001:0001d4a0       ?height@Fl_Graphics_Driver@@UAEHXZ 0041e4a0 f i fltk:Fl.obj
 0001:0001d4c0       ?rtl_draw@Fl_Graphics_Driver@@MAEXPBDHHH@Z 0041e4c0 f i fltk:Fl.obj
 0001:0001d4d0       ?width@Fl_Graphics_Driver@@UAENI@Z 0041e4d0 f i fltk:Fl.obj
 0001:0001d500       ?width@Fl_Graphics_Driver@@UAENPBDH@Z 0041e500 f i fltk:Fl.obj
 0001:0001d510       ?fl_beep@@YAXH@Z           0041e510 f   fltk:fl_ask.obj
 0001:0001d580       ?fl_message@@YAXPBDZZ      0041e580 f   fltk:fl_ask.obj
 0001:0001d5e0       ?fl_alert@@YAXPBDZZ        0041e5e0 f   fltk:fl_ask.obj
 0001:0001d640       ?fl_ask@@YAHPBDZZ          0041e640 f   fltk:fl_ask.obj
 0001:0001d690       ?fl_choice@@YAHPBD000ZZ    0041e690 f   fltk:fl_ask.obj
 0001:0001d6e0       ?fl_input@@YAPBDPBD0ZZ     0041e6e0 f   fltk:fl_ask.obj
 0001:0001d730       ?fl_password@@YAPBDPBD0ZZ  0041e730 f   fltk:fl_ask.obj
 0001:0001d780       ?fl_message_icon@@YAPAVFl_Widget@@XZ 0041e780 f   fltk:fl_ask.obj
 0001:0001d790       ?fl_message_hotspot@@YAXH@Z 0041e790 f   fltk:fl_ask.obj
 0001:0001d7c0       ?fl_message_hotspot@@YAHXZ 0041e7c0 f   fltk:fl_ask.obj
 0001:0001d7d0       ?fl_message_title@@YAXPBD@Z 0041e7d0 f   fltk:fl_ask.obj
 0001:0001d7f0       ?fl_message_title_default@@YAXPBD@Z 0041e7f0 f   fltk:fl_ask.obj
 0001:0001e670       ??$__vcrt_va_start_verify_argument_type@PBD@@YAXXZ 0041f670 f i fltk:fl_ask.obj
 0001:0001e680       ?default_atclose@Fl@@SAXPAVFl_Window@@PAX@Z 0041f680 f   fltk:Fl_Window.obj
 0001:0001e6b0       ?window@Fl_Widget@@QBEPAVFl_Window@@XZ 0041f6b0 f   fltk:Fl_Window.obj
 0001:0001e700       ?top_window@Fl_Widget@@QBEPAVFl_Window@@XZ 0041f700 f   fltk:Fl_Window.obj
 0001:0001e740       ?top_window_offset@Fl_Widget@@QBEPAVFl_Window@@AAH0@Z 0041f740 f   fltk:Fl_Window.obj
 0001:0001e7c0       ?_Fl_Window@Fl_Window@@AAEXXZ 0041f7c0 f   fltk:Fl_Window.obj
 0001:0001e8b0       ?free_icons@Fl_Window@@IAEXXZ 0041f8b0 f   fltk:Fl_Window.obj
 0001:0001e9c0       ??0Fl_Window@@QAE@HHPBD@Z  0041f9c0 f   fltk:Fl_Window.obj
 0001:0001ea60       ??0Fl_Window@@QAE@HHHHPBD@Z 0041fa60 f   fltk:Fl_Window.obj
 0001:0001eb00       ??1Fl_Window@@UAE@XZ       0041fb00 f   fltk:Fl_Window.obj
 0001:0001ebf0       ?label@Fl_Window@@QAEXPBD@Z 0041fbf0 f   fltk:Fl_Window.obj
 0001:0001ec20       ?iconlabel@Fl_Window@@QAEXPBD@Z 0041fc20 f   fltk:Fl_Window.obj
 0001:0001ec50       ?copy_label@Fl_Window@@QAEXPBD@Z 0041fc50 f   fltk:Fl_Window.obj
 0001:0001ec90       ?default_xclass@Fl_Window@@SAXPBD@Z 0041fc90 f   fltk:Fl_Window.obj
 0001:0001ecd0       ?default_xclass@Fl_Window@@SAPBDXZ 0041fcd0 f   fltk:Fl_Window.obj
 0001:0001ecf0       ?xclass@Fl_Window@@QBEPBDXZ 0041fcf0 f   fltk:Fl_Window.obj
 0001:0001ed20       ?xclass@Fl_Window@@QAEXPBD@Z 0041fd20 f   fltk:Fl_Window.obj
 0001:0001ed80       ?default_icon@Fl_Window@@SAXPBVFl_RGB_Image@@@Z 0041fd80 f   fltk:Fl_Window.obj
 0001:0001eda0       ?default_icons@Fl_Window@@SAXQAPBVFl_RGB_Image@@H@Z 0041fda0 f   fltk:Fl_Window.obj
 0001:0001edc0       ?icon@Fl_Window@@QAEXPBVFl_RGB_Image@@@Z 0041fdc0 f   fltk:Fl_Window.obj
 0001:0001ede0       ?icons@Fl_Window@@QAEXQAPBVFl_RGB_Image@@H@Z 0041fde0 f   fltk:Fl_Window.obj
 0001:0001eeb0       ?icon@Fl_Window@@QBEPBXXZ  0041feb0 f   fltk:Fl_Window.obj
 0001:0001eed0       ?icon@Fl_Window@@QAEXPBX@Z 0041fed0 f   fltk:Fl_Window.obj
 0001:0001eef0       ?wait_for_expose@Fl_Window@@QAEXXZ 0041fef0 f   fltk:Fl_Window.obj
 0001:0001ef40       ?x_root@Fl_Window@@QBEHXZ  0041ff40 f   fltk:Fl_Window.obj
 0001:0001ef80       ?y_root@Fl_Window@@QBEHXZ  0041ff80 f   fltk:Fl_Window.obj
 0001:0001efc0       ?current@Fl_Window@@SAPAV1@XZ 0041ffc0 f   fltk:Fl_Window.obj
 0001:0001efd0       ?default_callback@Fl_Window@@SAXPAV1@PAX@Z 0041ffd0 f   fltk:Fl_Window.obj
 0001:0001eff0       ??_GFl_Window@@UAEPAXI@Z   0041fff0 f i fltk:Fl_Window.obj
 0001:0001eff0       ??_EFl_Window@@UAEPAXI@Z   0041fff0 f i fltk:Fl_Window.obj
 0001:0001f030       ?as_gl_window@Fl_Widget@@UAEPAVFl_Gl_Window@@XZ 00420030 f i fltk:Fl_Window.obj
 0001:0001f040       ?navigation@Fl_Group@@AAEHH@Z 00420040 f   fltk:Fl_Group.obj
 0001:0001f200       ?draw@Fl_Group@@MAEXXZ     00420200 f   fltk:Fl_Group.obj
 0001:0001f240       ?draw_child@Fl_Group@@IBEXAAVFl_Widget@@@Z 00420240 f   fltk:Fl_Group.obj
 0001:0001f2f0       ?draw_children@Fl_Group@@IAEXXZ 004202f0 f   fltk:Fl_Group.obj
 0001:0001f4d0       ?draw_outside_label@Fl_Group@@IBEXABVFl_Widget@@@Z 004204d0 f   fltk:Fl_Group.obj
 0001:0001f760       ?update_child@Fl_Group@@IBEXAAVFl_Widget@@@Z 00420760 f   fltk:Fl_Group.obj
 0001:0001f820       ?sizes@Fl_Group@@IAEPAHXZ  00420820 f   fltk:Fl_Group.obj
 0001:0001fb60       ?handle@Fl_Group@@UAEHH@Z  00420b60 f   fltk:Fl_Group.obj
 0001:00020520       ?begin@Fl_Group@@QAEXXZ    00421520 f   fltk:Fl_Group.obj
 0001:00020540       ?end@Fl_Group@@QAEXXZ      00421540 f   fltk:Fl_Group.obj
 0001:00020560       ?current@Fl_Group@@SAPAV1@XZ 00421560 f   fltk:Fl_Group.obj
 0001:00020570       ?current@Fl_Group@@SAXPAV1@@Z 00421570 f   fltk:Fl_Group.obj
 0001:00020580       ?find@Fl_Group@@QBEHPBVFl_Widget@@@Z 00421580 f   fltk:Fl_Group.obj
 0001:000205e0       ?array@Fl_Group@@QBEPBQAVFl_Widget@@XZ 004215e0 f   fltk:Fl_Group.obj
 0001:00020610       ?resize@Fl_Group@@UAEXHHHH@Z 00421610 f   fltk:Fl_Group.obj
 0001:00020a20       ??0Fl_Group@@QAE@HHHHPBD@Z 00421a20 f   fltk:Fl_Group.obj
 0001:00020ad0       ??1Fl_Group@@UAE@XZ        00421ad0 f   fltk:Fl_Group.obj
 0001:00020b20       ?add@Fl_Group@@QAEXAAVFl_Widget@@@Z 00421b20 f   fltk:Fl_Group.obj
 0001:00020b40       ?insert@Fl_Group@@QAEXAAVFl_Widget@@H@Z 00421b40 f   fltk:Fl_Group.obj
 0001:00020ce0       ?remove@Fl_Group@@QAEXH@Z  00421ce0 f   fltk:Fl_Group.obj
 0001:00020de0       ?remove@Fl_Group@@QAEXAAVFl_Widget@@@Z 00421de0 f   fltk:Fl_Group.obj
 0001:00020e20       ?clear@Fl_Group@@QAEXXZ    00421e20 f   fltk:Fl_Group.obj
 0001:00020fb0       ?init_sizes@Fl_Group@@QAEXXZ 00421fb0 f   fltk:Fl_Group.obj
 0001:00020fe0       ??0Fl_Input_Choice@@QAE@HHHHPBD@Z 00421fe0 f   fltk:Fl_Group.obj
 0001:00021290       ??0Fl_Spinner@@QAE@HHHHPBD@Z 00422290 f   fltk:Fl_Group.obj
 0001:000216c0       ??1Fl_Input@@UAE@XZ        004226c0 f i fltk:Fl_Group.obj
 0001:000216e0       ??1Fl_Repeat_Button@@UAE@XZ 004226e0 f i fltk:Fl_Group.obj
 0001:00021700       ??1Fl_Spinner@@UAE@XZ      00422700 f i fltk:Fl_Group.obj
 0001:00021740       ??_GFl_Group@@UAEPAXI@Z    00422740 f i fltk:Fl_Group.obj
 0001:00021740       ??_EFl_Group@@UAEPAXI@Z    00422740 f i fltk:Fl_Group.obj
 0001:00021770       ??_EFl_Input_Choice@@UAEPAXI@Z 00422770 f i fltk:Fl_Group.obj
 0001:00021770       ??_GFl_Input_Choice@@UAEPAXI@Z 00422770 f i fltk:Fl_Group.obj
 0001:000217a0       ??_GFl_Spinner@@UAEPAXI@Z  004227a0 f i fltk:Fl_Group.obj
 0001:000217a0       ??_EFl_Spinner@@UAEPAXI@Z  004227a0 f i fltk:Fl_Group.obj
 0001:000217e0       ??_GInputMenuButton@Fl_Input_Choice@@UAEPAXI@Z 004227e0 f i fltk:Fl_Group.obj
 0001:000217e0       ??_EInputMenuButton@Fl_Input_Choice@@UAEPAXI@Z 004227e0 f i fltk:Fl_Group.obj
 0001:00021810       ?as_group@Fl_Widget@@UAEPAVFl_Group@@XZ 00422810 f i fltk:Fl_Group.obj
 0001:00021820       ?as_window@Fl_Widget@@UAEPAVFl_Window@@XZ 00422820 f i fltk:Fl_Group.obj
 0001:00021830       ?draw@InputMenuButton@Fl_Input_Choice@@EAEXXZ 00422830 f i fltk:Fl_Group.obj
 0001:00021930       ?draw_focus@Fl_Widget@@IAEXXZ 00422930 f i fltk:Fl_Group.obj
 0001:00021990       ?handle@Fl_Spinner@@UAEHH@Z 00422990 f i fltk:Fl_Group.obj
 0001:00021a60       ?inp_cb@Fl_Input_Choice@@CAXPAVFl_Widget@@PAX@Z 00422a60 f i fltk:Fl_Group.obj
 0001:00021b80       ?menu_cb@Fl_Input_Choice@@CAXPAVFl_Widget@@PAX@Z 00422b80 f i fltk:Fl_Group.obj
 0001:00021d80       ?menu_x@Fl_Input_Choice@@AAEHXZ 00422d80 f i fltk:Fl_Group.obj
 0001:00021dd0       ?resize@Fl_Input_Choice@@UAEXHHHH@Z 00422dd0 f i fltk:Fl_Group.obj
 0001:00021f30       ?resize@Fl_Spinner@@UAEXHHHH@Z 00422f30 f i fltk:Fl_Group.obj
 0001:00022020       ?sb_cb@Fl_Spinner@@CAXPAVFl_Widget@@PAV1@@Z 00423020 f i fltk:Fl_Group.obj
 0001:000221a0       ?update@Fl_Spinner@@AAEXXZ 004231a0 f i fltk:Fl_Group.obj
 0001:00022380       ?setonly@Fl_Menu_Item@@QAEXXZ 00423380 f   fltk:Fl_Menu_.obj
 0001:00022430       ??0Fl_Menu_@@QAE@HHHHPBD@Z 00423430 f   fltk:Fl_Menu_.obj
 0001:000224e0       ??1Fl_Menu_@@UAE@XZ        004234e0 f   fltk:Fl_Menu_.obj
 0001:00022530       ?item_pathname@Fl_Menu_@@QBEHPADHPBUFl_Menu_Item@@@Z 00423530 f   fltk:Fl_Menu_.obj
 0001:00022780       ?picked@Fl_Menu_@@QAEPBUFl_Menu_Item@@PBU2@@Z 00423780 f   fltk:Fl_Menu_.obj
 0001:000228a0       ?find_item@Fl_Menu_@@QAEPBUFl_Menu_Item@@PBD@Z 004238a0 f   fltk:Fl_Menu_.obj
 0001:000228e0       ?find_item@Fl_Menu_@@QAEPBUFl_Menu_Item@@P6AXPAVFl_Widget@@PAX@Z@Z 004238e0 f   fltk:Fl_Menu_.obj
 0001:00022930       ?find_index@Fl_Menu_@@QBEHPBD@Z 00423930 f   fltk:Fl_Menu_.obj
 0001:00022b60       ?find_index@Fl_Menu_@@QBEHPBUFl_Menu_Item@@@Z 00423b60 f   fltk:Fl_Menu_.obj
 0001:00022bb0       ?find_index@Fl_Menu_@@QBEHP6AXPAVFl_Widget@@PAX@Z@Z 00423bb0 f   fltk:Fl_Menu_.obj
 0001:00022c00       ?menu@Fl_Menu_@@QAEXPBUFl_Menu_Item@@@Z 00423c00 f   fltk:Fl_Menu_.obj
 0001:00022c30       ?copy@Fl_Menu_@@QAEXPBUFl_Menu_Item@@PAX@Z 00423c30 f   fltk:Fl_Menu_.obj
 0001:00022cd0       ?size@Fl_Menu_@@QBEHXZ     00423cd0 f   fltk:Fl_Menu_.obj
 0001:00022d00       ?clear@Fl_Menu_@@QAEXXZ    00423d00 f   fltk:Fl_Menu_.obj
 0001:00022dc0       ?clear_submenu@Fl_Menu_@@QAEHH@Z 00423dc0 f   fltk:Fl_Menu_.obj
 0001:00022e40       ?value@Fl_Menu_@@QAEHPBUFl_Menu_Item@@@Z 00423e40 f   fltk:Fl_Menu_.obj
 0001:00022e80       ??_EFl_Menu_@@UAEPAXI@Z    00423e80 f i fltk:Fl_Menu_.obj
 0001:00022e80       ??_GFl_Menu_@@UAEPAXI@Z    00423e80 f i fltk:Fl_Menu_.obj
 0001:00022eb0       ?draw@Fl_Menu_Bar@@MAEXXZ  00423eb0 f   fltk:Fl_Menu_Bar.obj
 0001:00023060       ?handle@Fl_Menu_Bar@@UAEHH@Z 00424060 f   fltk:Fl_Menu_Bar.obj
 0001:000231d0       ??0Fl_Menu_Bar@@QAE@HHHHPBD@Z 004241d0 f   fltk:Fl_Menu_Bar.obj
 0001:00023210       ??_EFl_Menu_Bar@@UAEPAXI@Z 00424210 f i fltk:Fl_Menu_Bar.obj
 0001:00023210       ??_GFl_Menu_Bar@@UAEPAXI@Z 00424210 f i fltk:Fl_Menu_Bar.obj
 0001:00023240       ??0Fl_Valuator@@IAE@HHHHPBD@Z 00424240 f   fltk:Fl_Valuator.obj
 0001:000232f0       ?softclamp@Fl_Valuator@@IAENN@Z 004242f0 f   fltk:Fl_Valuator.obj
 0001:00023410       ?handle_drag@Fl_Valuator@@IAEXN@Z 00424410 f   fltk:Fl_Valuator.obj
 0001:00023480       ?handle_release@Fl_Valuator@@IAEXXZ 00424480 f   fltk:Fl_Valuator.obj
 0001:000234e0       ?value_damage@Fl_Valuator@@MAEXXZ 004244e0 f   fltk:Fl_Valuator.obj
 0001:00023500       ?step@Fl_Valuator@@QAEXN@Z 00424500 f   fltk:Fl_Valuator.obj
 0001:000235f0       ?precision@Fl_Valuator@@QAEXH@Z 004245f0 f   fltk:Fl_Valuator.obj
 0001:00023650       ?value@Fl_Valuator@@QAEHN@Z 00424650 f   fltk:Fl_Valuator.obj
 0001:000236b0       ?format@Fl_Valuator@@UAEHPAD@Z 004246b0 f   fltk:Fl_Valuator.obj
 0001:00023800       ?round@Fl_Valuator@@QAENN@Z 00424800 f   fltk:Fl_Valuator.obj
 0001:00023880       ?clamp@Fl_Valuator@@QAENN@Z 00424880 f   fltk:Fl_Valuator.obj
 0001:00023940       ?increment@Fl_Valuator@@QAENNH@Z 00424940 f   fltk:Fl_Valuator.obj
 0001:00023a10       ??_EFl_Valuator@@UAEPAXI@Z 00424a10 f i fltk:Fl_Valuator.obj
 0001:00023a10       ??_GFl_Valuator@@UAEPAXI@Z 00424a10 f i fltk:Fl_Valuator.obj
 0001:00023a50       ?draw@Fl_Value_Slider@@MAEXXZ 00424a50 f   fltk:Fl_Value_Slider.obj
 0001:00023dc0       ?handle@Fl_Value_Slider@@UAEHH@Z 00424dc0 f   fltk:Fl_Value_Slider.obj
 0001:00023ed0       ??0Fl_Value_Slider@@QAE@HHHHPBD@Z 00424ed0 f   fltk:Fl_Value_Slider.obj
 0001:00023f50       ??0Fl_Hor_Value_Slider@@QAE@HHHHPBD@Z 00424f50 f   fltk:Fl_Value_Slider.obj
 0001:00023f90       ??_EFl_Hor_Value_Slider@@UAEPAXI@Z 00424f90 f i fltk:Fl_Value_Slider.obj
 0001:00023f90       ??_GFl_Hor_Value_Slider@@UAEPAXI@Z 00424f90 f i fltk:Fl_Value_Slider.obj
 0001:00023fd0       ??_EFl_Value_Slider@@UAEPAXI@Z 00424fd0 f i fltk:Fl_Value_Slider.obj
 0001:00023fd0       ??_GFl_Value_Slider@@UAEPAXI@Z 00424fd0 f i fltk:Fl_Value_Slider.obj
 0001:00024010       ?key_release_timeout@Fl_Button@@KAXPAX@Z 00425010 f   fltk:Fl_Button.obj
 0001:000240b0       ?simulate_key_action@Fl_Button@@IAEXXZ 004250b0 f   fltk:Fl_Button.obj
 0001:00024190       ?draw@Fl_Button@@MAEXXZ    00425190 f   fltk:Fl_Button.obj
 0001:000242e0       ?handle@Fl_Button@@UAEHH@Z 004252e0 f   fltk:Fl_Button.obj
 0001:00024890       ??0Fl_Button@@QAE@HHHHPBD@Z 00425890 f   fltk:Fl_Button.obj
 0001:00024900       ?value@Fl_Button@@QAEHH@Z  00425900 f   fltk:Fl_Button.obj
 0001:00024990       ?setonly@Fl_Button@@QAEXXZ 00425990 f   fltk:Fl_Button.obj
 0001:00024a10       ??0Fl_Radio_Button@@QAE@HHHHPBD@Z 00425a10 f   fltk:Fl_Button.obj
 0001:00024a50       ??0Fl_Toggle_Button@@QAE@HHHHPBD@Z 00425a50 f   fltk:Fl_Button.obj
 0001:00024a90       ??_GFl_Button@@UAEPAXI@Z   00425a90 f i fltk:Fl_Button.obj
 0001:00024a90       ??_EFl_Button@@UAEPAXI@Z   00425a90 f i fltk:Fl_Button.obj
 0001:00024ac0       ??_EFl_Radio_Button@@UAEPAXI@Z 00425ac0 f i fltk:Fl_Button.obj
 0001:00024ac0       ??_GFl_Radio_Button@@UAEPAXI@Z 00425ac0 f i fltk:Fl_Button.obj
 0001:00024af0       ??_EFl_Toggle_Button@@UAEPAXI@Z 00425af0 f i fltk:Fl_Button.obj
 0001:00024af0       ??_GFl_Toggle_Button@@UAEPAXI@Z 00425af0 f i fltk:Fl_Button.obj
 0001:00024b20       ?fl_dir_chooser@@YAPADPBD0H@Z 00425b20 f   fltk:fl_file_dir.obj
 0001:00024cc0       ?fl_file_chooser@@YAPADPBD00H@Z 00425cc0 f   fltk:fl_file_dir.obj
 0001:00025000       ?fl_file_chooser_callback@@YAXP6AXPBD@Z@Z 00426000 f   fltk:fl_file_dir.obj
 0001:00025010       ?fl_file_chooser_ok_label@@YAXPBD@Z 00426010 f   fltk:fl_file_dir.obj
 0001:00025080       _fl_utf8bytes              00426080 f   fltk:fl_utf.obj
 0001:000250e0       _fl_utf8decode             004260e0 f   fltk:fl_utf.obj
 0001:000253d0       _fl_utf8encode             004263d0 f   fltk:fl_utf.obj
 0001:00025560       _fl_utf8fwd                00426560 f   fltk:fl_utf.obj
 0001:00025610       _fl_utf8back               00426610 f   fltk:fl_utf.obj
 0001:000256b0       _fl_ucs_to_Utf16           004266b0 f   fltk:fl_utf.obj
 0001:000257d0       _fl_utf8toUtf16            004267d0 f   fltk:fl_utf.obj
 0001:00025970       _fl_utf8towc               00426970 f   fltk:fl_utf.obj
 0001:00025990       _fl_utf8fromwc             00426990 f   fltk:fl_utf.obj
 0001:00025ce0       _fl_utf8toa                00426ce0 f   fltk:fl_utf.obj
 0001:00025e00       _fl_utf8froma              00426e00 f   fltk:fl_utf.obj
 0001:00025f30       _fl_utf8locale             00426f30 f   fltk:fl_utf.obj
 0001:00025f70       _fl_utf8test               00426f70 f   fltk:fl_utf.obj
 0001:00025ff0       _fl_wcwidth_               00426ff0 f   fltk:fl_utf.obj
 0001:00026010       _fl_wcwidth                00427010 f   fltk:fl_utf.obj
 0001:00026060       _fl_utf8to_mb              00427060 f   fltk:fl_utf.obj
 0001:000261e0       _fl_utf8from_mb            004271e0 f   fltk:fl_utf.obj
 0001:00026510       ?call_screen_init@Fl@@SAXXZ 00427510 f   fltk:screen_xywh.obj
 0001:00026520       ?screen_count@Fl@@SAHXZ    00427520 f   fltk:screen_xywh.obj
 0001:00026560       ?screen_xywh@Fl@@SAXAAH000HH@Z 00427560 f   fltk:screen_xywh.obj
 0001:00026590       ?screen_xywh@Fl@@SAXAAH000H@Z 00427590 f   fltk:screen_xywh.obj
 0001:00026650       ?screen_xywh@Fl@@SAXAAH000HHHH@Z 00427650 f   fltk:screen_xywh.obj
 0001:00026690       ?screen_num@Fl@@SAHHH@Z    00427690 f   fltk:screen_xywh.obj
 0001:00026720       ?screen_num@Fl@@SAHHHHH@Z  00427720 f   fltk:screen_xywh.obj
 0001:000267d0       ?screen_dpi@Fl@@SAXAAM0H@Z 004277d0 f   fltk:screen_xywh.obj
 0001:00026840       ?screen_work_area@Fl@@SAXAAH000HH@Z 00427840 f   fltk:screen_xywh.obj
 0001:00026870       ?screen_work_area@Fl@@SAXAAH000H@Z 00427870 f   fltk:screen_xywh.obj
 0001:00026c10       ?add_awake_handler_@Fl@@SAHP6AXPAX@Z0@Z 00427c10 f   fltk:Fl_lock.obj
 0001:00026cf0       ?get_awake_handler_@Fl@@SAHAAP6AXPAX@ZAAPAX@Z 00427cf0 f   fltk:Fl_lock.obj
 0001:00026d80       ?lock@Fl@@SAHXZ            00427d80 f   fltk:Fl_lock.obj
 0001:00026dd0       ?unlock@Fl@@SAXXZ          00427dd0 f   fltk:Fl_lock.obj
 0001:00026de0       ?awake@Fl@@SAXPAX@Z        00427de0 f   fltk:Fl_lock.obj
 0001:00026e00       ?awake@Fl@@SAHP6AXPAX@Z0@Z 00427e00 f   fltk:Fl_lock.obj
 0001:00026eb0       ?compose@Fl@@SAHAAH@Z      00427eb0 f   fltk:Fl_compose.obj
 0001:00026f50       ?compose_reset@Fl@@SAXXZ   00427f50 f   fltk:Fl_compose.obj
 0001:00026f60       ?set_labeltype@Fl@@SAXW4Fl_Labeltype@@P6AXPBUFl_Label@@HHHHI@ZP6AX1AAH3@Z@Z 00427f60 f   fltk:fl_labeltype.obj
 0001:00026f80       ?draw@Fl_Label@@QBEXHHHHI@Z 00427f80 f   fltk:fl_labeltype.obj
 0001:00026fd0       ?measure@Fl_Label@@QBEXAAH0@Z 00427fd0 f   fltk:fl_labeltype.obj
 0001:00027040       ?draw_label@Fl_Widget@@IBEXXZ 00428040 f   fltk:fl_labeltype.obj
 0001:00027110       ?draw_label@Fl_Widget@@IBEXHHHH@Z 00428110 f   fltk:fl_labeltype.obj
 0001:00027170       ?draw_label@Fl_Widget@@QBEXHHHHI@Z 00428170 f   fltk:fl_labeltype.obj
 0001:00027200       ?fl_no_label@@YAXPBUFl_Label@@HHHHI@Z 00428200 f   fltk:fl_labeltype.obj
 0001:00027210       ?fl_normal_label@@YAXPBUFl_Label@@HHHHI@Z 00428210 f   fltk:fl_labeltype.obj
 0001:000272a0       ?fl_normal_measure@@YAXPBUFl_Label@@AAH1@Z 004282a0 f   fltk:fl_labeltype.obj
 0001:00027340       ?readqueue@Fl@@SAPAVFl_Widget@@XZ 00428340 f   fltk:Fl_Widget.obj
 0001:00027390       ??0Fl_Widget@@IAE@HHHHPBD@Z 00428390 f   fltk:Fl_Widget.obj
 0001:000274a0       ?draw_focus@Fl_Widget@@IBEXW4Fl_Boxtype@@HHHH@Z 004284a0 f   fltk:Fl_Widget.obj
 0001:000276d0       ??1Fl_Widget@@UAE@XZ       004286d0 f   fltk:Fl_Widget.obj
 0001:000277b0       ?handle@Fl_Widget@@UAEHH@Z 004287b0 f   fltk:Fl_Widget.obj
 0001:000277c0       ?resize@Fl_Widget@@UAEXHHHH@Z 004287c0 f   fltk:Fl_Widget.obj
 0001:00027800       ?damage_resize@Fl_Widget@@QAEHHHHH@Z 00428800 f   fltk:Fl_Widget.obj
 0001:00027890       ?label@Fl_Widget@@QAEXPBD@Z 00428890 f   fltk:Fl_Widget.obj
 0001:00027900       ?copy_label@Fl_Widget@@QAEXPBD@Z 00428900 f   fltk:Fl_Widget.obj
 0001:00027970       ?visible_r@Fl_Widget@@QBEHXZ 00428970 f   fltk:Fl_Widget.obj
 0001:000279c0       ?show@Fl_Widget@@UAEXXZ    004289c0 f   fltk:Fl_Widget.obj
 0001:00027a70       ?hide@Fl_Widget@@UAEXXZ    00428a70 f   fltk:Fl_Widget.obj
 0001:00027b10       ?active_r@Fl_Widget@@QBEHXZ 00428b10 f   fltk:Fl_Widget.obj
 0001:00027b60       ?activate@Fl_Widget@@QAEXXZ 00428b60 f   fltk:Fl_Widget.obj
 0001:00027c10       ?deactivate@Fl_Widget@@QAEXXZ 00428c10 f   fltk:Fl_Widget.obj
 0001:00027c80       ?take_focus@Fl_Widget@@QAEHXZ 00428c80 f   fltk:Fl_Widget.obj
 0001:00027d10       ?default_callback@Fl_Widget@@SAXPAV1@PAX@Z 00428d10 f   fltk:Fl_Widget.obj
 0001:00027d80       ?do_callback@Fl_Widget@@QAEXPAV1@PAX@Z 00428d80 f   fltk:Fl_Widget.obj
 0001:00027e40       ?contains@Fl_Widget@@QBEHPBV1@@Z 00428e40 f   fltk:Fl_Widget.obj
 0001:00027f30       ??_GFl_Widget@@UAEPAXI@Z   00428f30 f i fltk:Fl_Widget.obj
 0001:00027f30       ??_EFl_Widget@@UAEPAXI@Z   00428f30 f i fltk:Fl_Widget.obj
 0001:00027f60       ?draw_empty@Fl_Image@@IAEXHH@Z 00428f60 f   fltk:Fl_Image.obj
 0001:00028070       ?labeltype@Fl_Image@@KAXPBUFl_Label@@HHHHI@Z 00429070 f   fltk:Fl_Image.obj
 0001:00028150       ?measure@Fl_Image@@KAXPBUFl_Label@@AAH1@Z 00429150 f   fltk:Fl_Image.obj
 0001:00028190       ??1Fl_Image@@UAE@XZ        00429190 f   fltk:Fl_Image.obj
 0001:000281b0       ?copy@Fl_Image@@UAEPAV1@HH@Z 004291b0 f   fltk:Fl_Image.obj
 0001:00028240       ?color_average@Fl_Image@@UAEXIM@Z 00429240 f   fltk:Fl_Image.obj
 0001:00028250       ?desaturate@Fl_Image@@UAEXXZ 00429250 f   fltk:Fl_Image.obj
 0001:00028260       ?label@Fl_Image@@UAEXPAVFl_Widget@@@Z 00429260 f   fltk:Fl_Image.obj
 0001:00028280       ?label@Fl_Image@@UAEXPAUFl_Menu_Item@@@Z 00429280 f   fltk:Fl_Image.obj
 0001:000282b0       ?draw@Fl_Image@@UAEXHHHHHH@Z 004292b0 f   fltk:Fl_Image.obj
 0001:000282d0       ?uncache@Fl_Image@@UAEXXZ  004292d0 f   fltk:Fl_Image.obj
 0001:000282e0       ?RGB_scaling@Fl_Image@@SAXW4Fl_RGB_Scaling@@@Z 004292e0 f   fltk:Fl_Image.obj
 0001:000282f0       ?RGB_scaling@Fl_Image@@SA?AW4Fl_RGB_Scaling@@XZ 004292f0 f   fltk:Fl_Image.obj
 0001:00028300       ??0Fl_RGB_Image@@QAE@PBVFl_Pixmap@@I@Z 00429300 f   fltk:Fl_Image.obj
 0001:00028440       ??1Fl_RGB_Image@@UAE@XZ    00429440 f   fltk:Fl_Image.obj
 0001:000284b0       ?copy@Fl_RGB_Image@@UAEPAVFl_Image@@HH@Z 004294b0 f   fltk:Fl_Image.obj
 0001:000292e0       ?color_average@Fl_RGB_Image@@UAEXIM@Z 0042a2e0 f   fltk:Fl_Image.obj
 0001:000296a0       ?desaturate@Fl_RGB_Image@@UAEXXZ 0042a6a0 f   fltk:Fl_Image.obj
 0001:000298d0       ?draw@Fl_RGB_Image@@UAEXHHHHHH@Z 0042a8d0 f   fltk:Fl_Image.obj
 0001:00029910       ?label@Fl_RGB_Image@@UAEXPAVFl_Widget@@@Z 0042a910 f   fltk:Fl_Image.obj
 0001:00029930       ?label@Fl_RGB_Image@@UAEXPAUFl_Menu_Item@@@Z 0042a930 f   fltk:Fl_Image.obj
 0001:00029960       ?uncache@Fl_RGB_Image@@UAEXXZ 0042a960 f   fltk:Fl_Image.obj
 0001:000299b0       ?draw@Fl_GDI_Graphics_Driver@@UAEXPAVFl_RGB_Image@@HHHHHH@Z 0042a9b0 f   fltk:Fl_Image.obj
 0001:0002a020       ?tooltip@Fl_Widget@@QAEXPBD@Z 0042b020 f   fltk:Fl_Tooltip.obj
 0001:0002a090       ?copy_tooltip@Fl_Widget@@QAEXPBD@Z 0042b090 f   fltk:Fl_Tooltip.obj
 0001:0002a120       ?enter_area@Fl_Tooltip@@SAXPAVFl_Widget@@HHHHPBD@Z 0042b120 f   fltk:Fl_Tooltip.obj
 0001:0002a2d0       ?current@Fl_Tooltip@@SAXPAVFl_Widget@@@Z 0042b2d0 f   fltk:Fl_Tooltip.obj
 0001:0002a320       ?enter_@Fl_Tooltip@@CAXPAVFl_Widget@@@Z 0042b320 f   fltk:Fl_Tooltip.obj
 0001:0002a3b0       ?exit_@Fl_Tooltip@@CAXPAVFl_Widget@@@Z 0042b3b0 f   fltk:Fl_Tooltip.obj
 0001:0002a480       ?set_enter_exit_once_@Fl_Tooltip@@CAXXZ 0042b480 f   fltk:Fl_Tooltip.obj
 0001:0002a4b0       ?draw@Fl_TooltipBox@@UAEXXZ 0042b4b0 f   fltk:Fl_Tooltip.obj
 0001:0002a5c0       ?layout@Fl_TooltipBox@@QAEXXZ 0042b5c0 f   fltk:Fl_Tooltip.obj
 0001:0002a8d0       ??0Fl_TooltipBox@@QAE@XZ   0042b8d0 f i fltk:Fl_Tooltip.obj
 0001:0002a970       ??_EFl_TooltipBox@@UAEPAXI@Z 0042b970 f i fltk:Fl_Tooltip.obj
 0001:0002a970       ??_GFl_TooltipBox@@UAEPAXI@Z 0042b970 f i fltk:Fl_Tooltip.obj
 0001:0002a9b0       ?show@Fl_TooltipBox@@UAEXXZ 0042b9b0 f i fltk:Fl_Tooltip.obj
 0001:0002a9d0       ?fl_inactive@@YAII@Z       0042b9d0 f   fltk:fl_color.obj
 0001:0002aa00       ?fl_contrast@@YAIII@Z      0042ba00 f   fltk:fl_color.obj
 0001:0002aaf0       ?fl_color_average@@YAIIIM@Z 0042baf0 f   fltk:fl_color.obj
 0001:0002ac40       ?set_color@Fl@@SAXIEEE@Z   0042bc40 f   fltk:fl_color.obj
 0001:0002ac70       ?set_color@Fl@@SAXII@Z     0042bc70 f   fltk:fl_color.obj
 0001:0002acb0       ?get_color@Fl@@SAII@Z      0042bcb0 f   fltk:fl_color.obj
 0001:0002acd0       ?get_color@Fl@@SAXIAAE00@Z 0042bcd0 f   fltk:fl_color.obj
 0001:0002ad20       ?free_color@Fl@@SAXIH@Z    0042bd20 f   fltk:fl_color.obj
 0001:0002ad40       ?fl_brush@@YAPAUHBRUSH__@@XZ 0042bd40 f   fltk:fl_color.obj
 0001:0002ad50       ?fl_brush_action@@YAPAUHBRUSH__@@H@Z 0042bd50 f   fltk:fl_color.obj
 0001:0002afa0       ?color@Fl_GDI_Graphics_Driver@@UAEXI@Z 0042bfa0 f   fltk:fl_color.obj
 0001:0002b090       ?color@Fl_GDI_Graphics_Driver@@UAEXEEE@Z 0042c090 f   fltk:fl_color.obj
 0001:0002b150       ?fl_cleanup_pens@@YAXXZ    0042c150 f   fltk:fl_color.obj
 0001:0002b1a0       ?fl_save_pen@@YAXXZ        0042c1a0 f   fltk:fl_color.obj
 0001:0002b1e0       ?fl_restore_pen@@YAXXZ     0042c1e0 f   fltk:fl_color.obj
 0001:0002b320       ?fl_select_palette@@YAPAUHPALETTE__@@XZ 0042c320 f   fltk:fl_color.obj
 0001:0002b4b0       ?flush@Fl_Double_Window@@IAEXH@Z 0042c4b0 f   fltk:Fl_Double_Window.obj
 0001:0002b690       ?show@Fl_Double_Window@@UAEXXZ 0042c690 f   fltk:Fl_Double_Window.obj
 0001:0002b6b0       ?flush@Fl_Double_Window@@UAEXXZ 0042c6b0 f   fltk:Fl_Double_Window.obj
 0001:0002b6d0       ?resize@Fl_Double_Window@@UAEXHHHH@Z 0042c6d0 f   fltk:Fl_Double_Window.obj
 0001:0002b760       ?hide@Fl_Double_Window@@UAEXXZ 0042c760 f   fltk:Fl_Double_Window.obj
 0001:0002b7a0       ??1Fl_Double_Window@@UAE@XZ 0042c7a0 f   fltk:Fl_Double_Window.obj
 0001:0002b7f0       ??0Fl_Double_Window@@QAE@HHPBD@Z 0042c7f0 f   fltk:Fl_Double_Window.obj
 0001:0002b830       ??0Fl_Double_Window@@QAE@HHHHPBD@Z 0042c830 f   fltk:Fl_Double_Window.obj
 0001:0002b880       ??0Fl_Overlay_Window@@IAE@HHPBD@Z 0042c880 f   fltk:Fl_Double_Window.obj
 0001:0002b8d0       ??0Fl_Overlay_Window@@IAE@HHHHPBD@Z 0042c8d0 f   fltk:Fl_Double_Window.obj
 0001:0002b930       ?fl_makeDC@@YAPAUHDC__@@PAUHBITMAP__@@@Z 0042c930 f   fltk:Fl_Double_Window.obj
 0001:0002b990       ?fl_copy_offscreen@@YAXHHHHPAUHBITMAP__@@HH@Z 0042c990 f   fltk:Fl_Double_Window.obj
 0001:0002ba20       ?copy_offscreen@Fl_Graphics_Driver@@IAEXHHHHPAUHBITMAP__@@HH@Z 0042ca20 f   fltk:Fl_Double_Window.obj
 0001:0002bb50       ?copy_offscreen_with_alpha@Fl_GDI_Graphics_Driver@@QAEXHHHHPAUHBITMAP__@@HH@Z 0042cb50 f   fltk:Fl_Double_Window.obj
 0001:0002bc30       ?copy_offscreen@Fl_GDI_Graphics_Driver@@QAEXHHHHPAUHBITMAP__@@HH@Z 0042cc30 f   fltk:Fl_Double_Window.obj
 0001:0002bcb0       ?fl_can_do_alpha_blending@@YADXZ 0042ccb0 f   fltk:Fl_Double_Window.obj
 0001:0002bdf0       ??_GFl_Double_Window@@UAEPAXI@Z 0042cdf0 f i fltk:Fl_Double_Window.obj
 0001:0002bdf0       ??_EFl_Double_Window@@UAEPAXI@Z 0042cdf0 f i fltk:Fl_Double_Window.obj
 0001:0002be30       ??_EFl_Overlay_Window@@UAEPAXI@Z 0042ce30 f i fltk:Fl_Double_Window.obj
 0001:0002be30       ??_GFl_Overlay_Window@@UAEPAXI@Z 0042ce30 f i fltk:Fl_Double_Window.obj
 0001:0002be70       ?newUUID@Fl_Preferences@@SAPBDXZ 0042ce70 f   fltk:Fl_Preferences.obj
 0001:0002c220       ??0Fl_Preferences@@QAE@W4Root@0@PBD1@Z 0042d220 f   fltk:Fl_Preferences.obj
 0001:0002c330       ??0Fl_Preferences@@QAE@PBD00@Z 0042d330 f   fltk:Fl_Preferences.obj
 0001:0002c440       ??0Fl_Preferences@@QAE@AAV0@PBD@Z 0042d440 f   fltk:Fl_Preferences.obj
 0001:0002c480       ??0Fl_Preferences@@QAE@PAV0@PBD@Z 0042d480 f   fltk:Fl_Preferences.obj
 0001:0002c620       ??0Fl_Preferences@@QAE@AAV0@H@Z 0042d620 f   fltk:Fl_Preferences.obj
 0001:0002c690       ??0Fl_Preferences@@QAE@PAV0@H@Z 0042d690 f   fltk:Fl_Preferences.obj
 0001:0002c700       ??0Fl_Preferences@@QAE@ABV0@@Z 0042d700 f   fltk:Fl_Preferences.obj
 0001:0002c740       ??0Fl_Preferences@@QAE@PAX@Z 0042d740 f   fltk:Fl_Preferences.obj
 0001:0002c780       ??1Fl_Preferences@@UAE@XZ  0042d780 f   fltk:Fl_Preferences.obj
 0001:0002c830       ?groups@Fl_Preferences@@QAEHXZ 0042d830 f   fltk:Fl_Preferences.obj
 0001:0002c850       ?group@Fl_Preferences@@QAEPBDH@Z 0042d850 f   fltk:Fl_Preferences.obj
 0001:0002c870       ?groupExists@Fl_Preferences@@QAEDPBD@Z 0042d870 f   fltk:Fl_Preferences.obj
 0001:0002c8b0       ?deleteGroup@Fl_Preferences@@QAEDPBD@Z 0042d8b0 f   fltk:Fl_Preferences.obj
 0001:0002c8f0       ?deleteAllGroups@Fl_Preferences@@QAEDXZ 0042d8f0 f   fltk:Fl_Preferences.obj
 0001:0002c910       ?entries@Fl_Preferences@@QAEHXZ 0042d910 f   fltk:Fl_Preferences.obj
 0001:0002c930       ?entry@Fl_Preferences@@QAEPBDH@Z 0042d930 f   fltk:Fl_Preferences.obj
 0001:0002c950       ?entryExists@Fl_Preferences@@QAEDPBD@Z 0042d950 f   fltk:Fl_Preferences.obj
 0001:0002c990       ?deleteEntry@Fl_Preferences@@QAEDPBD@Z 0042d990 f   fltk:Fl_Preferences.obj
 0001:0002c9b0       ?deleteAllEntries@Fl_Preferences@@QAEDXZ 0042d9b0 f   fltk:Fl_Preferences.obj
 0001:0002c9d0       ?clear@Fl_Preferences@@QAEDXZ 0042d9d0 f   fltk:Fl_Preferences.obj
 0001:0002ca00       ?set@Fl_Preferences@@QAEDPBDH@Z 0042da00 f   fltk:Fl_Preferences.obj
 0001:0002ca40       ?set@Fl_Preferences@@QAEDPBDM@Z 0042da40 f   fltk:Fl_Preferences.obj
 0001:0002ca90       ?set@Fl_Preferences@@QAEDPBDMH@Z 0042da90 f   fltk:Fl_Preferences.obj
 0001:0002cae0       ?set@Fl_Preferences@@QAEDPBDN@Z 0042dae0 f   fltk:Fl_Preferences.obj
 0001:0002cb30       ?set@Fl_Preferences@@QAEDPBDNH@Z 0042db30 f   fltk:Fl_Preferences.obj
 0001:0002cb80       ?set@Fl_Preferences@@QAEDPBD0@Z 0042db80 f   fltk:Fl_Preferences.obj
 0001:0002cdc0       ?set@Fl_Preferences@@QAEDPBDPBXH@Z 0042ddc0 f   fltk:Fl_Preferences.obj
 0001:0002ce80       ?get@Fl_Preferences@@QAEDPBDAAHH@Z 0042de80 f   fltk:Fl_Preferences.obj
 0001:0002cee0       ?get@Fl_Preferences@@QAEDPBDAAMM@Z 0042dee0 f   fltk:Fl_Preferences.obj
 0001:0002cf50       ?get@Fl_Preferences@@QAEDPBDAANN@Z 0042df50 f   fltk:Fl_Preferences.obj
 0001:0002cfc0       ?get@Fl_Preferences@@QAEDPBDAAPAD0@Z 0042dfc0 f   fltk:Fl_Preferences.obj
 0001:0002d060       ?get@Fl_Preferences@@QAEDPBDPAD0H@Z 0042e060 f   fltk:Fl_Preferences.obj
 0001:0002d120       ?get@Fl_Preferences@@QAEDPBDAAPAXPBXH@Z 0042e120 f   fltk:Fl_Preferences.obj
 0001:0002d1a0       ?get@Fl_Preferences@@QAEDPBDPAXPBXHH@Z 0042e1a0 f   fltk:Fl_Preferences.obj
 0001:0002d250       ?size@Fl_Preferences@@QAEHPBD@Z 0042e250 f   fltk:Fl_Preferences.obj
 0001:0002d2a0       ?getUserdataPath@Fl_Preferences@@QAEDPADH@Z 0042e2a0 f   fltk:Fl_Preferences.obj
 0001:0002d2d0       ?flush@Fl_Preferences@@QAEXXZ 0042e2d0 f   fltk:Fl_Preferences.obj
 0001:0002d310       ??0Name@Fl_Preferences@@QAE@I@Z 0042e310 f   fltk:Fl_Preferences.obj
 0001:0002d350       ??0Name@Fl_Preferences@@QAA@PBDZZ 0042e350 f   fltk:Fl_Preferences.obj
 0001:0002d3a0       ??1Name@Fl_Preferences@@QAE@XZ 0042e3a0 f   fltk:Fl_Preferences.obj
 0001:0002d3d0       ??4Fl_Preferences@@AAEAAV0@ABV0@@Z 0042e3d0 f   fltk:Fl_Preferences.obj
 0001:0002d400       ?createIndex@Node@Fl_Preferences@@AAEXXZ 0042e400 f   fltk:Fl_Preferences.obj
 0001:0002d4c0       ?updateIndex@Node@Fl_Preferences@@AAEXXZ 0042e4c0 f   fltk:Fl_Preferences.obj
 0001:0002d4e0       ?deleteIndex@Node@Fl_Preferences@@AAEXXZ 0042e4e0 f   fltk:Fl_Preferences.obj
 0001:0002d540       ??0Node@Fl_Preferences@@QAE@PBD@Z 0042e540 f   fltk:Fl_Preferences.obj
 0001:0002d600       ??1Node@Fl_Preferences@@QAE@XZ 0042e600 f   fltk:Fl_Preferences.obj
 0001:0002d690       ?write@Node@Fl_Preferences@@QAEHPAU_iobuf@@@Z 0042e690 f   fltk:Fl_Preferences.obj
 0001:0002d860       ?name@Node@Fl_Preferences@@QAEPBDXZ 0042e860 f   fltk:Fl_Preferences.obj
 0001:0002d8c0       ?find@Node@Fl_Preferences@@QAEPAV12@PBD@Z 0042e8c0 f   fltk:Fl_Preferences.obj
 0001:0002da50       ?search@Node@Fl_Preferences@@QAEPAV12@PBDH@Z 0042ea50 f   fltk:Fl_Preferences.obj
 0001:0002dc20       ?childNode@Node@Fl_Preferences@@QAEPAV12@H@Z 0042ec20 f   fltk:Fl_Preferences.obj
 0001:0002dcb0       ?addChild@Node@Fl_Preferences@@QAEPAV12@PBD@Z 0042ecb0 f   fltk:Fl_Preferences.obj
 0001:0002dd30       ?setParent@Node@Fl_Preferences@@QAEXPAV12@@Z 0042ed30 f   fltk:Fl_Preferences.obj
 0001:0002dda0       ?findRoot@Node@Fl_Preferences@@QAEPAVRootNode@2@XZ 0042eda0 f   fltk:Fl_Preferences.obj
 0001:0002de00       ?remove@Node@Fl_Preferences@@QAEDXZ 0042ee00 f   fltk:Fl_Preferences.obj
 0001:0002dfa0       ?dirty@Node@Fl_Preferences@@QAEDXZ 0042efa0 f   fltk:Fl_Preferences.obj
 0001:0002e000       ?deleteAllChildren@Node@Fl_Preferences@@QAEXXZ 0042f000 f   fltk:Fl_Preferences.obj
 0001:0002e0a0       ?nChildren@Node@Fl_Preferences@@QAEHXZ 0042f0a0 f   fltk:Fl_Preferences.obj
 0001:0002e100       ?child@Node@Fl_Preferences@@QAEPBDH@Z 0042f100 f   fltk:Fl_Preferences.obj
 0001:0002e140       ?set@Node@Fl_Preferences@@QAEXPBD0@Z 0042f140 f   fltk:Fl_Preferences.obj
 0001:0002e2f0       ?set@Node@Fl_Preferences@@QAEXPBD@Z 0042f2f0 f   fltk:Fl_Preferences.obj
 0001:0002e3e0       ?add@Node@Fl_Preferences@@QAEXPBD@Z 0042f3e0 f   fltk:Fl_Preferences.obj
 0001:0002e490       ?get@Node@Fl_Preferences@@QAEPBDPBD@Z 0042f490 f   fltk:Fl_Preferences.obj
 0001:0002e4d0       ?getEntry@Node@Fl_Preferences@@QAEHPBD@Z 0042f4d0 f   fltk:Fl_Preferences.obj
 0001:0002e530       ?deleteEntry@Node@Fl_Preferences@@QAEDPBD@Z 0042f530 f   fltk:Fl_Preferences.obj
 0001:0002e5b0       ?deleteAllEntries@Node@Fl_Preferences@@QAEXXZ 0042f5b0 f   fltk:Fl_Preferences.obj
 0001:0002e6a0       ??0RootNode@Fl_Preferences@@QAE@PAV1@W4Root@1@PBD2@Z 0042f6a0 f   fltk:Fl_Preferences.obj
 0001:0002eb10       ??0RootNode@Fl_Preferences@@QAE@PAV1@PBD11@Z 0042fb10 f   fltk:Fl_Preferences.obj
 0001:0002ec50       ??0RootNode@Fl_Preferences@@QAE@PAV1@@Z 0042fc50 f   fltk:Fl_Preferences.obj
 0001:0002ec90       ??1RootNode@Fl_Preferences@@QAE@XZ 0042fc90 f   fltk:Fl_Preferences.obj
 0001:0002edb0       ?read@RootNode@Fl_Preferences@@QAEHXZ 0042fdb0 f   fltk:Fl_Preferences.obj
 0001:0002f020       ?write@RootNode@Fl_Preferences@@QAEHXZ 00430020 f   fltk:Fl_Preferences.obj
 0001:0002f0d0       ?getPath@RootNode@Fl_Preferences@@QAEDPADH@Z 004300d0 f   fltk:Fl_Preferences.obj
 0001:0002f180       ??0Fl_Plugin@@QAE@PBD0@Z   00430180 f   fltk:Fl_Preferences.obj
 0001:0002f210       ??1Fl_Plugin@@UAE@XZ       00430210 f   fltk:Fl_Preferences.obj
 0001:0002f270       ??0Fl_Plugin_Manager@@QAE@PBD@Z 00430270 f   fltk:Fl_Preferences.obj
 0001:0002f310       ??1Fl_Plugin_Manager@@UAE@XZ 00430310 f   fltk:Fl_Preferences.obj
 0001:0002f330       ?plugin@Fl_Plugin_Manager@@QAEPAVFl_Plugin@@H@Z 00430330 f   fltk:Fl_Preferences.obj
 0001:0002f3f0       ?plugin@Fl_Plugin_Manager@@QAEPAVFl_Plugin@@PBD@Z 004303f0 f   fltk:Fl_Preferences.obj
 0001:0002f4c0       ?addPlugin@Fl_Plugin_Manager@@QAEPAXPBDPAVFl_Plugin@@@Z 004304c0 f   fltk:Fl_Preferences.obj
 0001:0002f570       ?removePlugin@Fl_Plugin_Manager@@SAXPAX@Z 00430570 f   fltk:Fl_Preferences.obj
 0001:0002f580       ?load@Fl_Plugin_Manager@@SAHPBD@Z 00430580 f   fltk:Fl_Preferences.obj
 0001:0002f5b0       ?loadAll@Fl_Plugin_Manager@@SAHPBD0@Z 004305b0 f   fltk:Fl_Preferences.obj
 0001:0002fae0       ??_EFl_Plugin@@UAEPAXI@Z   00430ae0 f i fltk:Fl_Preferences.obj
 0001:0002fae0       ??_GFl_Plugin@@UAEPAXI@Z   00430ae0 f i fltk:Fl_Preferences.obj
 0001:0002fb10       ??_EFl_Plugin_Manager@@UAEPAXI@Z 00430b10 f i fltk:Fl_Preferences.obj
 0001:0002fb10       ??_GFl_Plugin_Manager@@UAEPAXI@Z 00430b10 f i fltk:Fl_Preferences.obj
 0001:0002fb40       ??_EFl_Preferences@@UAEPAXI@Z 00430b40 f i fltk:Fl_Preferences.obj
 0001:0002fb40       ??_GFl_Preferences@@UAEPAXI@Z 00430b40 f i fltk:Fl_Preferences.obj
 0001:0002fb70       ??0Fl_Graphics_Driver@@IAE@XZ 00430b70 f   fltk:Fl_Device.obj
 0001:0002fc30       ?text_extents@Fl_Graphics_Driver@@UAEXPBDHAAH111@Z 00430c30 f   fltk:Fl_Device.obj
 0001:0002fca0       ?set_current@Fl_Surface_Device@@UAEXXZ 00430ca0 f   fltk:Fl_Device.obj
 0001:0002fcc0       ??0Fl_Display_Device@@QAE@PAVFl_Graphics_Driver@@@Z 00430cc0 f   fltk:Fl_Device.obj
 0001:0002fd40       ??1Fl_Surface_Device@@UAE@XZ 00430d40 f i fltk:Fl_Device.obj
 0001:0002fd60       ??_GFl_Display_Device@@UAEPAXI@Z 00430d60 f i fltk:Fl_Device.obj
 0001:0002fd60       ??_EFl_Display_Device@@UAEPAXI@Z 00430d60 f i fltk:Fl_Device.obj
 0001:0002fda0       ?class_name@Fl_Display_Device@@UAEPBDXZ 00430da0 f i fltk:Fl_Device.obj
 0001:0002fdb0       ?rect@Fl_Graphics_Driver@@MAEXHHHH@Z 00430db0 f   fltk:fl_rect.obj
 0001:0002fe60       ?rectf@Fl_Graphics_Driver@@MAEXHHHH@Z 00430e60 f   fltk:fl_rect.obj
 0001:0002fed0       ?xyline@Fl_Graphics_Driver@@MAEXHHH@Z 00430ed0 f   fltk:fl_rect.obj
 0001:0002ff10       ?xyline@Fl_Graphics_Driver@@MAEXHHHH@Z 00430f10 f   fltk:fl_rect.obj
 0001:0002ff80       ?xyline@Fl_Graphics_Driver@@MAEXHHHHH@Z 00430f80 f   fltk:fl_rect.obj
 0001:00030000       ?yxline@Fl_Graphics_Driver@@MAEXHHH@Z 00431000 f   fltk:fl_rect.obj
 0001:00030060       ?yxline@Fl_Graphics_Driver@@MAEXHHHH@Z 00431060 f   fltk:fl_rect.obj
 0001:000300d0       ?yxline@Fl_Graphics_Driver@@MAEXHHHHH@Z 004310d0 f   fltk:fl_rect.obj
 0001:00030150       ?line@Fl_Graphics_Driver@@MAEXHHHH@Z 00431150 f   fltk:fl_rect.obj
 0001:000301b0       ?line@Fl_Graphics_Driver@@MAEXHHHHHH@Z 004311b0 f   fltk:fl_rect.obj
 0001:00030230       ?point@Fl_Graphics_Driver@@MAEXHH@Z 00431230 f   fltk:fl_rect.obj
 0001:00030270       ?loop@Fl_Graphics_Driver@@MAEXHHHHHH@Z 00431270 f   fltk:fl_rect.obj
 0001:000302e0       ?loop@Fl_Graphics_Driver@@MAEXHHHHHHHH@Z 004312e0 f   fltk:fl_rect.obj
 0001:00030360       ?polygon@Fl_Graphics_Driver@@MAEXHHHHHH@Z 00431360 f   fltk:fl_rect.obj
 0001:00030410       ?polygon@Fl_Graphics_Driver@@MAEXHHHHHHHH@Z 00431410 f   fltk:fl_rect.obj
 0001:000304d0       ?push_clip@Fl_Graphics_Driver@@MAEXHHHH@Z 004314d0 f   fltk:fl_rect.obj
 0001:000305a0       ?clip_box@Fl_Graphics_Driver@@MAEHHHHHAAH000@Z 004315a0 f   fltk:fl_rect.obj
 0001:00030770       ?not_clipped@Fl_Graphics_Driver@@MAEHHHHH@Z 00431770 f   fltk:fl_rect.obj
 0001:00030890       ?push_no_clip@Fl_Graphics_Driver@@MAEXXZ 00431890 f   fltk:fl_rect.obj
 0001:000308f0       ?pop_clip@Fl_Graphics_Driver@@MAEXXZ 004318f0 f   fltk:fl_rect.obj
 0001:00030960       ?clip_region@Fl_Graphics_Driver@@IAEPAUHRGN__@@XZ 00431960 f   fltk:fl_rect.obj
 0001:00030980       ?clip_region@Fl_Graphics_Driver@@IAEXPAUHRGN__@@@Z 00431980 f   fltk:fl_rect.obj
 0001:000309e0       ?restore_clip@Fl_Graphics_Driver@@IAEXXZ 004319e0 f   fltk:fl_rect.obj
 0001:00030a30       ?line_style@Fl_Graphics_Driver@@MAEXHHPAD@Z 00431a30 f   fltk:fl_line_style.obj
 0001:00030be0       ?transformed_vertex0@Fl_Graphics_Driver@@AAEXHH@Z 00431be0 f   fltk:fl_vertex.obj
 0001:00030cf0       ?fixloop@Fl_Graphics_Driver@@AAEXXZ 00431cf0 f   fltk:fl_vertex.obj
 0001:00030d80       ?begin_points@Fl_Graphics_Driver@@MAEXXZ 00431d80 f   fltk:fl_vertex.obj
 0001:00030db0       ?begin_line@Fl_Graphics_Driver@@MAEXXZ 00431db0 f   fltk:fl_vertex.obj
 0001:00030de0       ?begin_loop@Fl_Graphics_Driver@@MAEXXZ 00431de0 f   fltk:fl_vertex.obj
 0001:00030e10       ?begin_polygon@Fl_Graphics_Driver@@MAEXXZ 00431e10 f   fltk:fl_vertex.obj
 0001:00030e40       ?vertex@Fl_Graphics_Driver@@MAEXNN@Z 00431e40 f   fltk:fl_vertex.obj
 0001:00030ec0       ?circle@Fl_Graphics_Driver@@MAEXNNN@Z 00431ec0 f   fltk:fl_vertex.obj
 0001:00031150       ?end_points@Fl_Graphics_Driver@@MAEXXZ 00432150 f   fltk:fl_vertex.obj
 0001:000311c0       ?end_line@Fl_Graphics_Driver@@MAEXXZ 004321c0 f   fltk:fl_vertex.obj
 0001:00031220       ?end_loop@Fl_Graphics_Driver@@MAEXXZ 00432220 f   fltk:fl_vertex.obj
 0001:000312a0       ?end_polygon@Fl_Graphics_Driver@@MAEXXZ 004322a0 f   fltk:fl_vertex.obj
 0001:00031320       ?begin_complex_polygon@Fl_Graphics_Driver@@MAEXXZ 00432320 f   fltk:fl_vertex.obj
 0001:00031360       ?gap@Fl_Graphics_Driver@@MAEXXZ 00432360 f   fltk:fl_vertex.obj
 0001:000314d0       ?end_complex_polygon@Fl_Graphics_Driver@@MAEXXZ 004324d0 f   fltk:fl_vertex.obj
 0001:00031560       ?transformed_vertex@Fl_Graphics_Driver@@MAEXNN@Z 00432560 f   fltk:fl_vertex.obj
 0001:000315b0       ?push_matrix@Fl_Graphics_Driver@@IAEXXZ 004325b0 f   fltk:fl_vertex.obj
 0001:00031610       ?pop_matrix@Fl_Graphics_Driver@@IAEXXZ 00432610 f   fltk:fl_vertex.obj
 0001:00031670       ?mult_matrix@Fl_Graphics_Driver@@IAEXNNNNNN@Z 00432670 f   fltk:fl_vertex.obj
 0001:000317c0       ?rotate@Fl_Graphics_Driver@@IAEXN@Z 004327c0 f   fltk:fl_vertex.obj
 0001:00031980       ?transform_x@Fl_Graphics_Driver@@IAENNN@Z 00432980 f   fltk:fl_vertex.obj
 0001:000319d0       ?transform_y@Fl_Graphics_Driver@@IAENNN@Z 004329d0 f   fltk:fl_vertex.obj
 0001:00031a20       ?transform_dx@Fl_Graphics_Driver@@IAENNN@Z 00432a20 f   fltk:fl_vertex.obj
 0001:00031a60       ?transform_dy@Fl_Graphics_Driver@@IAENNN@Z 00432a60 f   fltk:fl_vertex.obj
 0001:00031aa0       ?curve@Fl_Graphics_Driver@@MAEXNNNNNNNN@Z 00432aa0 f   fltk:fl_curve.obj
 0001:00032030       ?arc@Fl_Graphics_Driver@@MAEXNNNNN@Z 00433030 f   fltk:fl_arc.obj
 0001:000323d0       ?arc@Fl_Graphics_Driver@@MAEXHHHHNN@Z 004333d0 f   fltk:fl_arci.obj
 0001:00032610       ?pie@Fl_Graphics_Driver@@MAEXHHHHNN@Z 00433610 f   fltk:fl_arci.obj
 0001:000328b0       ?draw@Fl_GDI_Graphics_Driver@@UAEXPBDHHH@Z 004338b0 f   fltk:fl_font.obj
 0001:000329b0       ?draw@Fl_GDI_Graphics_Driver@@UAEXHPBDHHH@Z 004339b0 f   fltk:fl_font.obj
 0001:00032b00       ?rtl_draw@Fl_GDI_Graphics_Driver@@UAEXPBDHHH@Z 00433b00 f   fltk:fl_font.obj
 0001:00032c40       ?font@Fl_GDI_Graphics_Driver@@UAEXHH@Z 00433c40 f   fltk:fl_font.obj
 0001:00032c70       ?width@Fl_GDI_Graphics_Driver@@UAENPBDH@Z 00433c70 f   fltk:fl_font.obj
 0001:00032d20       ?width@Fl_GDI_Graphics_Driver@@UAENI@Z 00433d20 f   fltk:fl_font.obj
 0001:00032f70       ?text_extents@Fl_GDI_Graphics_Driver@@UAEXPBDHAAH111@Z 00433f70 f   fltk:fl_font.obj
 0001:00033430       ?height@Fl_GDI_Graphics_Driver@@UAEHXZ 00434430 f   fltk:fl_font.obj
 0001:00033470       ?descent@Fl_GDI_Graphics_Driver@@UAEHXZ 00434470 f   fltk:fl_font.obj
 0001:000334a0       ?fl_width@@YANPBD@Z        004344a0 f   fltk:fl_font.obj
 0001:000334f0       ?fl_text_extents@@YAXPBDAAH111@Z 004344f0 f   fltk:fl_font.obj
 0001:00033570       ?fl_draw@@YAXPBDHH@Z       00434570 f   fltk:fl_font.obj
 0001:000335b0       ?fl_draw@@YAXHPBDHH@Z      004345b0 f   fltk:fl_font.obj
 0001:000335f0       ??0Fl_Font_Descriptor@@QAE@PBDH@Z 004345f0 f   fltk:fl_font.obj
 0001:000337a0       ??1Fl_Font_Descriptor@@QAE@XZ 004347a0 f   fltk:fl_font.obj
 0001:00033ae0       ?fl_draw@@YAXPBDHMM@Z      00434ae0 f   fltk:fl_font.obj
 0001:00033b10       ?copy_data@Fl_Pixmap@@AAEXXZ 00434b10 f   fltk:Fl_Pixmap.obj
 0001:00033df0       ?delete_data@Fl_Pixmap@@AAEXXZ 00434df0 f   fltk:Fl_Pixmap.obj
 0001:00033e70       ?set_data@Fl_Pixmap@@AAEXPBQBD@Z 00434e70 f   fltk:Fl_Pixmap.obj
 0001:00033ef0       ?prepare@Fl_Pixmap@@AAEHHHHHAAH00000@Z 00434ef0 f   fltk:Fl_Pixmap.obj
 0001:00034140       ?measure@Fl_Pixmap@@IAEXXZ 00435140 f   fltk:Fl_Pixmap.obj
 0001:000341b0       ??1Fl_Pixmap@@UAE@XZ       004351b0 f   fltk:Fl_Pixmap.obj
 0001:00034210       ?copy@Fl_Pixmap@@UAEPAVFl_Image@@HH@Z 00435210 f   fltk:Fl_Pixmap.obj
 0001:000348c0       ?color_average@Fl_Pixmap@@UAEXIM@Z 004358c0 f   fltk:Fl_Pixmap.obj
 0001:00034ee0       ?desaturate@Fl_Pixmap@@UAEXXZ 00435ee0 f   fltk:Fl_Pixmap.obj
 0001:00035400       ?draw@Fl_Pixmap@@UAEXHHHHHH@Z 00436400 f   fltk:Fl_Pixmap.obj
 0001:00035440       ?label@Fl_Pixmap@@UAEXPAVFl_Widget@@@Z 00436440 f   fltk:Fl_Pixmap.obj
 0001:00035460       ?label@Fl_Pixmap@@UAEXPAUFl_Menu_Item@@@Z 00436460 f   fltk:Fl_Pixmap.obj
 0001:00035490       ?uncache@Fl_Pixmap@@UAEXXZ 00436490 f   fltk:Fl_Pixmap.obj
 0001:000354e0       ?draw@Fl_GDI_Graphics_Driver@@UAEXPAVFl_Pixmap@@HHHHHH@Z 004364e0 f   fltk:Fl_Pixmap.obj
 0001:00035620       ?draw@Fl_GDI_Printer_Graphics_Driver@@UAEXPAVFl_Pixmap@@HHHHHH@Z 00436620 f   fltk:Fl_Pixmap.obj
 0001:000358d0       ??0Fl_Pixmap@@QAE@PBQAD@Z  004368d0 f i fltk:Fl_Pixmap.obj
 0001:000359a0       ??0Fl_Pixmap@@QAE@PBQBD@Z  004369a0 f i fltk:Fl_Pixmap.obj
 0001:00035a70       ??_EFl_Pixmap@@UAEPAXI@Z   00436a70 f i fltk:Fl_Pixmap.obj
 0001:00035a70       ??_GFl_Pixmap@@UAEPAXI@Z   00436a70 f i fltk:Fl_Pixmap.obj
 0001:00035aa0       ___local_stdio_scanf_options 00436aa0 f i fltk:Fl_Pixmap.obj
 0001:00035ab0       _sscanf                    00436ab0 f i fltk:Fl_Pixmap.obj
 0001:00035b00       ?start@Fl_Bitmap@@AAEHHHHHAAH00000@Z 00436b00 f   fltk:Fl_Bitmap.obj
 0001:00035cb0       ??1Fl_Bitmap@@UAE@XZ       00436cb0 f   fltk:Fl_Bitmap.obj
 0001:00035d20       ?copy@Fl_Bitmap@@UAEPAVFl_Image@@HH@Z 00436d20 f   fltk:Fl_Bitmap.obj
 0001:00036120       ?draw@Fl_Bitmap@@UAEXHHHHHH@Z 00437120 f   fltk:Fl_Bitmap.obj
 0001:00036160       ?label@Fl_Bitmap@@UAEXPAVFl_Widget@@@Z 00437160 f   fltk:Fl_Bitmap.obj
 0001:00036180       ?label@Fl_Bitmap@@UAEXPAUFl_Menu_Item@@@Z 00437180 f   fltk:Fl_Bitmap.obj
 0001:000361b0       ?uncache@Fl_Bitmap@@UAEXXZ 004371b0 f   fltk:Fl_Bitmap.obj
 0001:000361e0       ?fl_create_bitmask@@YAPAUHBITMAP__@@HHPBE@Z 004371e0 f   fltk:Fl_Bitmap.obj
 0001:000364a0       ?fl_create_alphamask@@YAPAUHBITMAP__@@HHHHPBE@Z 004374a0 f   fltk:Fl_Bitmap.obj
 0001:000365e0       ?fl_delete_bitmask@@YAXPAUHBITMAP__@@@Z 004375e0 f   fltk:Fl_Bitmap.obj
 0001:000365f0       ?draw@Fl_GDI_Graphics_Driver@@UAEXPAVFl_Bitmap@@HHHHHH@Z 004375f0 f   fltk:Fl_Bitmap.obj
 0001:000366c0       ?draw@Fl_GDI_Printer_Graphics_Driver@@UAEXPAVFl_Bitmap@@HHHHHH@Z 004376c0 f   fltk:Fl_Bitmap.obj
 0001:00036b60       ??_EFl_Bitmap@@UAEPAXI@Z   00437b60 f i fltk:Fl_Bitmap.obj
 0001:00036b60       ??_GFl_Bitmap@@UAEPAXI@Z   00437b60 f i fltk:Fl_Bitmap.obj
 0001:00036b90       ?draw_image@Fl_GDI_Graphics_Driver@@UAEXPBEHHHHHH@Z 00437b90 f   fltk:fl_draw_image.obj
 0001:00036c40       ?draw_image@Fl_GDI_Graphics_Driver@@UAEXP6AXPAXHHHPAE@Z0HHHHH@Z 00437c40 f   fltk:fl_draw_image.obj
 0001:00036d00       ?draw_image_mono@Fl_GDI_Graphics_Driver@@UAEXPBEHHHHHH@Z 00437d00 f   fltk:fl_draw_image.obj
 0001:00036d90       ?draw_image_mono@Fl_GDI_Graphics_Driver@@UAEXP6AXPAXHHHPAE@Z0HHHHH@Z 00437d90 f   fltk:fl_draw_image.obj
 0001:00036e20       ?fl_rectf@@YAXHHHHEEE@Z    00437e20 f   fltk:fl_draw_image.obj
 0001:000379e0       ?fl_read_image@@YAPAEPAEHHHHH@Z 004389e0 f   fltk:fl_read_image.obj
 0001:00037cf0       ?get_system_colors@Fl@@SAXXZ 00438cf0 f   fltk:Fl_get_system_colors.obj
 0001:00037d70       ?foreground@Fl@@SAXEEE@Z   00438d70 f   fltk:Fl_get_system_colors.obj
 0001:00037da0       ?background@Fl@@SAXEEE@Z   00438da0 f   fltk:Fl_get_system_colors.obj
 0001:00038030       ?background2@Fl@@SAXEEE@Z  00439030 f   fltk:Fl_get_system_colors.obj
 0001:00038080       ?scheme@Fl@@SAHPBD@Z       00439080 f   fltk:Fl_get_system_colors.obj
 0001:000381d0       ?reload_scheme@Fl@@SAHXZ   004391d0 f   fltk:Fl_get_system_colors.obj
 0001:00038860       ?fl_parse_color@@YAHPBDAAE11@Z 00439860 f   fltk:Fl_get_system_colors.obj
 0001:00038b70       ?border@Fl_Window@@QAEXH@Z 00439b70 f   fltk:Fl_Window_fullscreen.obj
 0001:00038c00       ?fullscreen@Fl_Window@@QAEXXZ 00439c00 f   fltk:Fl_Window_fullscreen.obj
 0001:00038cb0       ?fullscreen_off@Fl_Window@@QAEXXZ 00439cb0 f   fltk:Fl_Window_fullscreen.obj
 0001:00038d20       ?fullscreen_off@Fl_Window@@QAEXHHHH@Z 00439d20 f   fltk:Fl_Window_fullscreen.obj
 0001:00038dc0       ?fullscreen_screens@Fl_Window@@QAEXHHHH@Z 00439dc0 f   fltk:Fl_Window_fullscreen.obj
 0001:00038e70       ?dnd@Fl@@SAHXZ             00439e70 f   fltk:fl_dnd.obj
 0001:00038fb0       ??_EFLDataObject@@UAEPAXI@Z 00439fb0 f i fltk:fl_dnd.obj
 0001:00038fb0       ??_GFLDataObject@@UAEPAXI@Z 00439fb0 f i fltk:fl_dnd.obj
 0001:00038fe0       ??_GFLDropSource@@UAEPAXI@Z 00439fe0 f i fltk:fl_dnd.obj
 0001:00038fe0       ??_EFLDropSource@@UAEPAXI@Z 00439fe0 f i fltk:fl_dnd.obj
 0001:00039010       ??_EFLDropTarget@@UAEPAXI@Z 0043a010 f i fltk:fl_dnd.obj
 0001:00039010       ??_GFLDropTarget@@UAEPAXI@Z 0043a010 f i fltk:fl_dnd.obj
 0001:00039040       ?AddRef@FLDataObject@@UAGKXZ 0043a040 f i fltk:fl_dnd.obj
 0001:00039070       ?AddRef@FLDropSource@@UAGKXZ 0043a070 f i fltk:fl_dnd.obj
 0001:000390a0       ?AddRef@FLDropTarget@@UAGKXZ 0043a0a0 f i fltk:fl_dnd.obj
 0001:000390d0       ?DAdvise@FLDataObject@@UAGJPAUtagFORMATETC@@KPAUIAdviseSink@@PAK@Z 0043a0d0 f i fltk:fl_dnd.obj
 0001:000390e0       ?DUnadvise@FLDataObject@@UAGJK@Z 0043a0e0 f i fltk:fl_dnd.obj
 0001:000390f0       ?DragEnter@FLDropTarget@@UAGJPAUIDataObject@@KU_POINTL@@PAK@Z 0043a0f0 f i fltk:fl_dnd.obj
 0001:000391f0       ?DragLeave@FLDropTarget@@UAGJXZ 0043a1f0 f i fltk:fl_dnd.obj
 0001:00039270       ?DragOver@FLDropTarget@@UAGJKU_POINTL@@PAK@Z 0043a270 f i fltk:fl_dnd.obj
 0001:00039380       ?Drop@FLDropTarget@@UAGJPAUIDataObject@@KU_POINTL@@PAK@Z 0043a380 f i fltk:fl_dnd.obj
 0001:00039580       ?EnumDAdvise@FLDataObject@@UAGJPAPAUIEnumSTATDATA@@@Z 0043a580 f i fltk:fl_dnd.obj
 0001:00039590       ?EnumFormatEtc@FLDataObject@@UAGJKPAPAUIEnumFORMATETC@@@Z 0043a590 f i fltk:fl_dnd.obj
 0001:000395a0       ?GetCanonicalFormatEtc@FLDataObject@@UAGJPAUtagFORMATETC@@0@Z 0043a5a0 f i fltk:fl_dnd.obj
 0001:000395b0       ?GetData@FLDataObject@@UAGJPAUtagFORMATETC@@PAUtagSTGMEDIUM@@@Z 0043a5b0 f i fltk:fl_dnd.obj
 0001:000396a0       ?GetDataHere@FLDataObject@@UAGJPAUtagFORMATETC@@PAUtagSTGMEDIUM@@@Z 0043a6a0 f i fltk:fl_dnd.obj
 0001:000396b0       ?GiveFeedback@FLDropSource@@UAGJK@Z 0043a6b0 f i fltk:fl_dnd.obj
 0001:000396c0       ?QueryContinueDrag@FLDropSource@@UAGJHK@Z 0043a6c0 f i fltk:fl_dnd.obj
 0001:000396f0       ?QueryGetData@FLDataObject@@UAGJPAUtagFORMATETC@@@Z 0043a6f0 f i fltk:fl_dnd.obj
 0001:00039730       ?QueryInterface@FLDataObject@@UAGJABU_GUID@@PAPAX@Z 0043a730 f i fltk:fl_dnd.obj
 0001:00039800       ?QueryInterface@FLDropSource@@UAGJABU_GUID@@PAPAX@Z 0043a800 f i fltk:fl_dnd.obj
 0001:000398d0       ?QueryInterface@FLDropTarget@@UAGJABU_GUID@@PAPAX@Z 0043a8d0 f i fltk:fl_dnd.obj
 0001:000399a0       ?Release@FLDataObject@@UAGKXZ 0043a9a0 f i fltk:fl_dnd.obj
 0001:00039a00       ?Release@FLDropSource@@UAGKXZ 0043aa00 f i fltk:fl_dnd.obj
 0001:00039a60       ?Release@FLDropTarget@@UAGKXZ 0043aa60 f i fltk:fl_dnd.obj
 0001:00039ac0       ?SetData@FLDataObject@@UAGJPAUtagFORMATETC@@PAUtagSTGMEDIUM@@H@Z 0043aac0 f i fltk:fl_dnd.obj
 0001:00039ad0       ?fillCurrentDragData@FLDropTarget@@CADPAUIDataObject@@@Z 0043aad0 f i fltk:fl_dnd.obj
 0001:00039f20       _fl_utf8len                0043af20 f   fltk:fl_utf8.obj
 0001:00039f90       _fl_utf8len1               0043af90 f   fltk:fl_utf8.obj
 0001:0003a000       _fl_utf_nb_char            0043b000 f   fltk:fl_utf8.obj
 0001:0003a070       _fl_nonspacing             0043b070 f   fltk:fl_utf8.obj
 0001:0003a090       _fl_utf2mbcs               0043b090 f   fltk:fl_utf8.obj
 0001:0003a170       _fl_utf8_to_locale         0043b170 f   fltk:fl_utf8.obj
 0001:0003a290       _fl_locale_to_utf8         0043b290 f   fltk:fl_utf8.obj
 0001:0003a3a0       _fl_utf_strncasecmp        0043b3a0 f   fltk:fl_utf8.obj
 0001:0003a450       _fl_utf_strcasecmp         0043b450 f   fltk:fl_utf8.obj
 0001:0003a470       _fl_tolower                0043b470 f   fltk:fl_utf8.obj
 0001:0003a490       _fl_toupper                0043b490 f   fltk:fl_utf8.obj
 0001:0003a4b0       _fl_utf_tolower            0043b4b0 f   fltk:fl_utf8.obj
 0001:0003a550       _fl_utf_toupper            0043b550 f   fltk:fl_utf8.obj
 0001:0003a5f0       _fl_chmod                  0043b5f0 f   fltk:fl_utf8.obj
 0001:0003a680       _fl_access                 0043b680 f   fltk:fl_utf8.obj
 0001:0003a710       _fl_stat                   0043b710 f   fltk:fl_utf8.obj
 0001:0003a7a0       _fl_getcwd                 0043b7a0 f   fltk:fl_utf8.obj
 0001:0003a850       _fl_fopen                  0043b850 f   fltk:fl_utf8.obj
 0001:0003a950       _fl_system                 0043b950 f   fltk:fl_utf8.obj
 0001:0003a9e0       _fl_execvp                 0043b9e0 f   fltk:fl_utf8.obj
 0001:0003abb0       _fl_open                   0043bbb0 f   fltk:fl_utf8.obj
 0001:0003acf0       _fl_unlink                 0043bcf0 f   fltk:fl_utf8.obj
 0001:0003ad80       _fl_rmdir                  0043bd80 f   fltk:fl_utf8.obj
 0001:0003ae10       _fl_getenv                 0043be10 f   fltk:fl_utf8.obj
 0001:0003af20       _fl_mkdir                  0043bf20 f   fltk:fl_utf8.obj
 0001:0003afb0       _fl_rename                 0043bfb0 f   fltk:fl_utf8.obj
 0001:0003b0b0       _fl_make_path_for_file     0043c0b0 f   fltk:fl_utf8.obj
 0001:0003b130       _fl_make_path              0043c130 f   fltk:fl_utf8.obj
 0001:0003b290       ??$__vcrt_va_start_verify_argument_type@H@@YAXXZ 0043c290 f i fltk:fl_utf8.obj
 0001:0003b2a0       _fl_snprintf               0043c2a0 f   fltk:vsnprintf.obj
 0001:0003b2e0       _fl_vsnprintf              0043c2e0 f   fltk:vsnprintf.obj
 0001:0003bd70       ?grab@Fl@@SAXPAVFl_Window@@@Z 0043cd70 f   fltk:Fl_grab.obj
 0001:0003be10       ?test_shortcut@Fl@@SAHI@Z  0043ce10 f   fltk:fl_shortcut.obj
 0001:0003bf30       ?test_shortcut@Fl_Widget@@QAEHXZ 0043cf30 f   fltk:fl_shortcut.obj
 0001:0003bf70       ?label_shortcut@Fl_Widget@@SAIPBD@Z 0043cf70 f   fltk:fl_shortcut.obj
 0001:0003bfe0       ?test_shortcut@Fl_Widget@@SAHPBD_N@Z 0043cfe0 f   fltk:fl_shortcut.obj
 0001:0003c070       ?fl_old_shortcut@@YAIPBD@Z 0043d070 f   fltk:fl_shortcut.obj
 0001:0003c1c0       ?fl_shortcut_label@@YAPBDI@Z 0043d1c0 f   fltk:fl_shortcut.obj
 0001:0003c1e0       ?fl_shortcut_label@@YAPBDIPAPBD@Z 0043d1e0 f   fltk:fl_shortcut.obj
 0001:0003c480       ?draw@Fl_Box@@MAEXXZ       0043d480 f   fltk:Fl_Box.obj
 0001:0003c4a0       ??0Fl_Box@@QAE@HHHHPBD@Z   0043d4a0 f   fltk:Fl_Box.obj
 0001:0003c4e0       ??0Fl_Box@@QAE@W4Fl_Boxtype@@HHHHPBD@Z 0043d4e0 f   fltk:Fl_Box.obj
 0001:0003c520       ?handle@Fl_Box@@UAEHH@Z    0043d520 f   fltk:Fl_Box.obj
 0001:0003c550       ??_GFl_Box@@UAEPAXI@Z      0043d550 f i fltk:Fl_Box.obj
 0001:0003c550       ??_EFl_Box@@UAEPAXI@Z      0043d550 f i fltk:Fl_Box.obj
 0001:0003c580       ?draw@Fl_Return_Button@@MAEXXZ 0043d580 f   fltk:Fl_Return_Button.obj
 0001:0003c720       ?handle@Fl_Return_Button@@UAEHH@Z 0043d720 f   fltk:Fl_Return_Button.obj
 0001:0003c780       ??0Fl_Return_Button@@QAE@HHHHPBD@Z 0043d780 f   fltk:Fl_Return_Button.obj
 0001:0003c7c0       ?fl_return_arrow@@YAHHHHH@Z 0043d7c0 f   fltk:Fl_Return_Button.obj
 0001:0003c980       ??_EFl_Return_Button@@UAEPAXI@Z 0043d980 f i fltk:Fl_Return_Button.obj
 0001:0003c980       ??_GFl_Return_Button@@UAEPAXI@Z 0043d980 f i fltk:Fl_Return_Button.obj
 0001:0003c9b0       ?hotspot@Fl_Window@@QAEXHHH@Z 0043d9b0 f   fltk:Fl_Window_hotspot.obj
 0001:0003cbc0       ?hotspot@Fl_Window@@QAEXPBVFl_Widget@@H@Z 0043dbc0 f   fltk:Fl_Window_hotspot.obj
 0001:0003cc50       ?expand@Fl_Input_@@ABEPBDPBDPAD@Z 0043dc50 f   fltk:Fl_Input_.obj
 0001:0003cf10       ?expandpos@Fl_Input_@@ABENPBD00PAH@Z 0043df10 f   fltk:Fl_Input_.obj
 0001:0003d090       ?minimal_update@Fl_Input_@@AAEXHH@Z 0043e090 f   fltk:Fl_Input_.obj
 0001:0003d0c0       ?minimal_update@Fl_Input_@@AAEXH@Z 0043e0c0 f   fltk:Fl_Input_.obj
 0001:0003d130       ?put_in_buffer@Fl_Input_@@AAEXH@Z 0043e130 f   fltk:Fl_Input_.obj
 0001:0003d2b0       ?setfont@Fl_Input_@@ABEXXZ 0043e2b0 f   fltk:Fl_Input_.obj
 0001:0003d300       ?word_start@Fl_Input_@@IBEHH@Z 0043e300 f   fltk:Fl_Input_.obj
 0001:0003d390       ?word_end@Fl_Input_@@IBEHH@Z 0043e390 f   fltk:Fl_Input_.obj
 0001:0003d430       ?line_start@Fl_Input_@@IBEHH@Z 0043e430 f   fltk:Fl_Input_.obj
 0001:0003d580       ?line_end@Fl_Input_@@IBEHH@Z 0043e580 f   fltk:Fl_Input_.obj
 0001:0003d710       ?drawtext@Fl_Input_@@IAEXHHHH@Z 0043e710 f   fltk:Fl_Input_.obj
 0001:0003ea30       ?up_down_position@Fl_Input_@@IAEHHH@Z 0043fa30 f   fltk:Fl_Input_.obj
 0001:0003ebd0       ?handle_mouse@Fl_Input_@@IAEXHHHHH@Z 0043fbd0 f   fltk:Fl_Input_.obj
 0001:0003f300       ?handletext@Fl_Input_@@IAEHHHHHH@Z 00440300 f   fltk:Fl_Input_.obj
 0001:0003fa10       ?maybe_do_callback@Fl_Input_@@IAEXXZ 00440a10 f   fltk:Fl_Input_.obj
 0001:0003fa50       ?linesPerPage@Fl_Input_@@IAEHXZ 00440a50 f   fltk:Fl_Input_.obj
 0001:0003faf0       ?resize@Fl_Input_@@UAEXHHHH@Z 00440af0 f   fltk:Fl_Input_.obj
 0001:0003fb50       ??0Fl_Input_@@QAE@HHHHPBD@Z 00440b50 f   fltk:Fl_Input_.obj
 0001:0003fc80       ??1Fl_Input_@@UAE@XZ       00440c80 f   fltk:Fl_Input_.obj
 0001:0003fcd0       ?value@Fl_Input_@@QAEHPBD@Z 00440cd0 f   fltk:Fl_Input_.obj
 0001:0003fd10       ?value@Fl_Input_@@QAEHPBDH@Z 00440d10 f   fltk:Fl_Input_.obj
 0001:0003fd50       ?static_value@Fl_Input_@@QAEHPBD@Z 00440d50 f   fltk:Fl_Input_.obj
 0001:0003fd90       ?static_value@Fl_Input_@@QAEHPBDH@Z 00440d90 f   fltk:Fl_Input_.obj
 0001:0003ff20       ?index@Fl_Input_@@QBEIH@Z  00440f20 f   fltk:Fl_Input_.obj
 0001:0003ff60       ?position@Fl_Input_@@QAEHHH@Z 00440f60 f   fltk:Fl_Input_.obj
 0001:00040270       ?replace@Fl_Input_@@QAEHHHPBDH@Z 00441270 f   fltk:Fl_Input_.obj
 0001:000408b0       ?copy@Fl_Input_@@QAEHH@Z   004418b0 f   fltk:Fl_Input_.obj
 0001:00040940       ?undo@Fl_Input_@@QAEHXZ    00441940 f   fltk:Fl_Input_.obj
 0001:00040b40       ?copy_cuts@Fl_Input_@@QAEHXZ 00441b40 f   fltk:Fl_Input_.obj
 0001:00040cd0       ??_EFl_Input_@@UAEPAXI@Z   00441cd0 f i fltk:Fl_Input_.obj
 0001:00040cd0       ??_GFl_Input_@@UAEPAXI@Z   00441cd0 f i fltk:Fl_Input_.obj
 0001:00040d10       ?handle_key@Fl_Input@@AAEHXZ 00441d10 f   fltk:Fl_Input.obj
 0001:00041820       ?shift_position@Fl_Input@@AAEHH@Z 00442820 f   fltk:Fl_Input.obj
 0001:00041870       ?shift_up_down_position@Fl_Input@@AAEHH@Z 00442870 f   fltk:Fl_Input.obj
 0001:000418a0       ?kf_lines_up@Fl_Input@@AAEHH@Z 004428a0 f   fltk:Fl_Input.obj
 0001:00041940       ?kf_lines_down@Fl_Input@@AAEHH@Z 00442940 f   fltk:Fl_Input.obj
 0001:000419f0       ?kf_page_up@Fl_Input@@AAEHXZ 004429f0 f   fltk:Fl_Input.obj
 0001:00041a10       ?kf_page_down@Fl_Input@@AAEHXZ 00442a10 f   fltk:Fl_Input.obj
 0001:00041a30       ?kf_insert_toggle@Fl_Input@@AAEHXZ 00442a30 f   fltk:Fl_Input.obj
 0001:00041a70       ?kf_delete_word_right@Fl_Input@@AAEHXZ 00442a70 f   fltk:Fl_Input.obj
 0001:00041b20       ?kf_delete_word_left@Fl_Input@@AAEHXZ 00442b20 f   fltk:Fl_Input.obj
 0001:00041bd0       ?kf_delete_sol@Fl_Input@@AAEHXZ 00442bd0 f   fltk:Fl_Input.obj
 0001:00041c80       ?kf_delete_eol@Fl_Input@@AAEHXZ 00442c80 f   fltk:Fl_Input.obj
 0001:00041d30       ?kf_delete_char_right@Fl_Input@@AAEHXZ 00442d30 f   fltk:Fl_Input.obj
 0001:00041dd0       ?kf_delete_char_left@Fl_Input@@AAEHXZ 00442dd0 f   fltk:Fl_Input.obj
 0001:00041e70       ?kf_move_sol@Fl_Input@@AAEHXZ 00442e70 f   fltk:Fl_Input.obj
 0001:00041ec0       ?kf_move_eol@Fl_Input@@AAEHXZ 00442ec0 f   fltk:Fl_Input.obj
 0001:00041f10       ?kf_clear_eol@Fl_Input@@AAEHXZ 00442f10 f   fltk:Fl_Input.obj
 0001:00041fd0       ?kf_move_char_left@Fl_Input@@AAEHXZ 00442fd0 f   fltk:Fl_Input.obj
 0001:00042040       ?kf_move_char_right@Fl_Input@@AAEHXZ 00443040 f   fltk:Fl_Input.obj
 0001:000420b0       ?kf_move_word_left@Fl_Input@@AAEHXZ 004430b0 f   fltk:Fl_Input.obj
 0001:000420e0       ?kf_move_word_right@Fl_Input@@AAEHXZ 004430e0 f   fltk:Fl_Input.obj
 0001:00042110       ?kf_move_up_and_sol@Fl_Input@@AAEHXZ 00443110 f   fltk:Fl_Input.obj
 0001:000421e0       ?kf_move_down_and_eol@Fl_Input@@AAEHXZ 004431e0 f   fltk:Fl_Input.obj
 0001:000422c0       ?kf_top@Fl_Input@@AAEHXZ   004432c0 f   fltk:Fl_Input.obj
 0001:000422e0       ?kf_bottom@Fl_Input@@AAEHXZ 004432e0 f   fltk:Fl_Input.obj
 0001:00042310       ?kf_select_all@Fl_Input@@AAEHXZ 00443310 f   fltk:Fl_Input.obj
 0001:00042340       ?kf_undo@Fl_Input@@AAEHXZ  00443340 f   fltk:Fl_Input.obj
 0001:00042380       ?kf_redo@Fl_Input@@AAEHXZ  00443380 f   fltk:Fl_Input.obj
 0001:000423c0       ?kf_copy@Fl_Input@@AAEHXZ  004433c0 f   fltk:Fl_Input.obj
 0001:000423e0       ?kf_paste@Fl_Input@@AAEHXZ 004433e0 f   fltk:Fl_Input.obj
 0001:00042430       ?kf_copy_cut@Fl_Input@@AAEHXZ 00443430 f   fltk:Fl_Input.obj
 0001:00042490       ?draw@Fl_Input@@MAEXXZ     00443490 f   fltk:Fl_Input.obj
 0001:00042560       ?handle@Fl_Input@@UAEHH@Z  00443560 f   fltk:Fl_Input.obj
 0001:00042e20       ??0Fl_Input@@QAE@HHHHPBD@Z 00443e20 f   fltk:Fl_Input.obj
 0001:00042e60       ??0Fl_Float_Input@@QAE@HHHHPBD@Z 00443e60 f   fltk:Fl_Input.obj
 0001:00042eb0       ??0Fl_Int_Input@@QAE@HHHHPBD@Z 00443eb0 f   fltk:Fl_Input.obj
 0001:00042f00       ??0Fl_Multiline_Input@@QAE@HHHHPBD@Z 00443f00 f   fltk:Fl_Input.obj
 0001:00042f40       ??0Fl_Output@@QAE@HHHHPBD@Z 00443f40 f   fltk:Fl_Input.obj
 0001:00042f80       ??0Fl_Multiline_Output@@QAE@HHHHPBD@Z 00443f80 f   fltk:Fl_Input.obj
 0001:00042fc0       ??0Fl_Secret_Input@@QAE@HHHHPBD@Z 00443fc0 f   fltk:Fl_Input.obj
 0001:00043010       ?handle@Fl_Secret_Input@@UAEHH@Z 00444010 f   fltk:Fl_Input.obj
 0001:00043040       ??_GFl_Float_Input@@UAEPAXI@Z 00444040 f i fltk:Fl_Input.obj
 0001:00043040       ??_EFl_Float_Input@@UAEPAXI@Z 00444040 f i fltk:Fl_Input.obj
 0001:00043080       ??_EFl_Input@@UAEPAXI@Z    00444080 f i fltk:Fl_Input.obj
 0001:00043080       ??_GFl_Input@@UAEPAXI@Z    00444080 f i fltk:Fl_Input.obj
 0001:000430c0       ??_EFl_Int_Input@@UAEPAXI@Z 004440c0 f i fltk:Fl_Input.obj
 0001:000430c0       ??_GFl_Int_Input@@UAEPAXI@Z 004440c0 f i fltk:Fl_Input.obj
 0001:00043100       ??_GFl_Multiline_Input@@UAEPAXI@Z 00444100 f i fltk:Fl_Input.obj
 0001:00043100       ??_EFl_Multiline_Input@@UAEPAXI@Z 00444100 f i fltk:Fl_Input.obj
 0001:00043140       ??_EFl_Multiline_Output@@UAEPAXI@Z 00444140 f i fltk:Fl_Input.obj
 0001:00043140       ??_GFl_Multiline_Output@@UAEPAXI@Z 00444140 f i fltk:Fl_Input.obj
 0001:00043180       ??_EFl_Output@@UAEPAXI@Z   00444180 f i fltk:Fl_Input.obj
 0001:00043180       ??_GFl_Output@@UAEPAXI@Z   00444180 f i fltk:Fl_Input.obj
 0001:000431c0       ??_EFl_Secret_Input@@UAEPAXI@Z 004441c0 f i fltk:Fl_Input.obj
 0001:000431c0       ??_GFl_Secret_Input@@UAEPAXI@Z 004441c0 f i fltk:Fl_Input.obj
 0001:00043200       ?fl_height@@YAHHH@Z        00444200 f   fltk:fl_draw.obj
 0001:000432d0       ?fl_measure@@YAXPBDAAH1H@Z 004442d0 f   fltk:fl_draw.obj
 0001:00043640       ?fl_draw@@YAXPBDHHHHIPAVFl_Image@@H@Z 00444640 f   fltk:fl_draw.obj
 0001:00043720       ?fl_draw@@YAXPBDHHHHIP6AX0HHH@ZPAVFl_Image@@H@Z 00444720 f   fltk:fl_draw.obj
 0001:00044710       ?fl_expand_text@@YAPBDPBDPADHNAAHAANHH@Z 00445710 f   fltk:fl_draw.obj
 0001:00044b20       ?fl_draw@@YAXPBDHHH@Z      00445b20 f i fltk:fl_draw.obj
 0001:00044b50       ?shape_bitmap_@Fl_Window@@AAEXPAVFl_Bitmap@@@Z 00445b50 f   fltk:Fl_Window_shape.obj
 0001:00044b70       ?shape_alpha_@Fl_Window@@AAEXPAVFl_RGB_Image@@H@Z 00445b70 f   fltk:Fl_Window_shape.obj
 0001:00044d90       ?shape_pixmap_@Fl_Window@@AAEXPAVFl_Pixmap@@@Z 00445d90 f   fltk:Fl_Window_shape.obj
 0001:00044e50       ?shape@Fl_Window@@QAEXPBVFl_Image@@@Z 00445e50 f   fltk:Fl_Window_shape.obj
 0001:00044e60       ?draw@Fl_Window@@MAEXXZ    00445e60 f   fltk:Fl_Window_shape.obj
 0001:000452c0       ?get_boxtype@Fl@@SAP6AXHHHHI@ZW4Fl_Boxtype@@@Z 004462c0 f   fltk:fl_boxtype.obj
 0001:000452d0       ?set_boxtype@Fl@@SAXW4Fl_Boxtype@@P6AXHHHHI@ZEEEE@Z 004462d0 f   fltk:fl_boxtype.obj
 0001:00045330       ?set_boxtype@Fl@@SAXW4Fl_Boxtype@@0@Z 00446330 f   fltk:fl_boxtype.obj
 0001:00045360       ?box_dx@Fl@@SAHW4Fl_Boxtype@@@Z 00446360 f   fltk:fl_boxtype.obj
 0001:00045370       ?box_dy@Fl@@SAHW4Fl_Boxtype@@@Z 00446370 f   fltk:fl_boxtype.obj
 0001:00045380       ?box_dw@Fl@@SAHW4Fl_Boxtype@@@Z 00446380 f   fltk:fl_boxtype.obj
 0001:00045390       ?box_dh@Fl@@SAHW4Fl_Boxtype@@@Z 00446390 f   fltk:fl_boxtype.obj
 0001:000453a0       ?draw_box_active@Fl@@SAHXZ 004463a0 f   fltk:fl_boxtype.obj
 0001:000453b0       ?draw_box@Fl_Widget@@IBEXXZ 004463b0 f   fltk:fl_boxtype.obj
 0001:00045410       ?draw_box@Fl_Widget@@IBEXW4Fl_Boxtype@@I@Z 00446410 f   fltk:fl_boxtype.obj
 0001:00045450       ?draw_box@Fl_Widget@@IBEXW4Fl_Boxtype@@HHHHI@Z 00446450 f   fltk:fl_boxtype.obj
 0001:000454a0       ?draw_backdrop@Fl_Widget@@IBEXXZ 004464a0 f   fltk:fl_boxtype.obj
 0001:00045580       ?fl_frame@@YAXPBDHHHH@Z    00446580 f   fltk:fl_boxtype.obj
 0001:00045780       ?fl_frame2@@YAXPBDHHHH@Z   00446780 f   fltk:fl_boxtype.obj
 0001:00045980       ?fl_draw_box@@YAXW4Fl_Boxtype@@HHHHI@Z 00446980 f   fltk:fl_boxtype.obj
 0001:000459c0       ?fl_gray_ramp@@YAPBEXZ     004469c0 f   fltk:fl_boxtype.obj
 0001:000459f0       ?fl_no_box@@YAXHHHHI@Z     004469f0 f   fltk:fl_boxtype.obj
 0001:00045a00       ?fl_thin_down_frame@@YAXHHHHI@Z 00446a00 f   fltk:fl_boxtype.obj
 0001:00045a30       ?fl_thin_down_box@@YAXHHHHI@Z 00446a30 f   fltk:fl_boxtype.obj
 0001:00045ac0       ?fl_thin_up_frame@@YAXHHHHI@Z 00446ac0 f   fltk:fl_boxtype.obj
 0001:00045af0       ?fl_thin_up_box@@YAXHHHHI@Z 00446af0 f   fltk:fl_boxtype.obj
 0001:00045b80       ?fl_up_frame@@YAXHHHHI@Z   00446b80 f   fltk:fl_boxtype.obj
 0001:00045bb0       ?fl_up_box@@YAXHHHHI@Z     00446bb0 f   fltk:fl_boxtype.obj
 0001:00045c40       ?fl_down_frame@@YAXHHHHI@Z 00446c40 f   fltk:fl_boxtype.obj
 0001:00045c70       ?fl_down_box@@YAXHHHHI@Z   00446c70 f   fltk:fl_boxtype.obj
 0001:00045ce0       ?fl_engraved_frame@@YAXHHHHI@Z 00446ce0 f   fltk:fl_boxtype.obj
 0001:00045d10       ?fl_engraved_box@@YAXHHHHI@Z 00446d10 f   fltk:fl_boxtype.obj
 0001:00045da0       ?fl_embossed_frame@@YAXHHHHI@Z 00446da0 f   fltk:fl_boxtype.obj
 0001:00045dd0       ?fl_embossed_box@@YAXHHHHI@Z 00446dd0 f   fltk:fl_boxtype.obj
 0001:00045e60       ?fl_rectbound@@YAXHHHHI@Z  00446e60 f   fltk:fl_boxtype.obj
 0001:00045f30       ?fl_border_frame@@YAXHHHHI@Z 00446f30 f   fltk:fl_boxtype.obj
 0001:00045fa0       ?fl_internal_boxtype@@YAXW4Fl_Boxtype@@P6AXHHHHI@Z@Z 00446fa0 f   fltk:fl_boxtype.obj
 0001:00045fd0       ?fl_rectf@@YAXHHHHI@Z      00446fd0 f i fltk:fl_boxtype.obj
 0001:00046010       ?draw@Fl_Menu_Button@@MAEXXZ 00447010 f   fltk:Fl_Menu_Button.obj
 0001:00046270       ?handle@Fl_Menu_Button@@UAEHH@Z 00447270 f   fltk:Fl_Menu_Button.obj
 0001:00046480       ?popup@Fl_Menu_Button@@QAEPBUFl_Menu_Item@@XZ 00447480 f   fltk:Fl_Menu_Button.obj
 0001:000465f0       ??0Fl_Menu_Button@@QAE@HHHHPBD@Z 004475f0 f   fltk:Fl_Menu_Button.obj
 0001:00046630       ??_GFl_Menu_Button@@UAEPAXI@Z 00447630 f i fltk:Fl_Menu_Button.obj
 0001:00046630       ??_EFl_Menu_Button@@UAEPAXI@Z 00447630 f i fltk:Fl_Menu_Button.obj
 0001:00046660       ?repeat_callback@Fl_Repeat_Button@@CAXPAX@Z 00447660 f   fltk:Fl_Repeat_Button.obj
 0001:000466b0       ?handle@Fl_Repeat_Button@@UAEHH@Z 004476b0 f   fltk:Fl_Repeat_Button.obj
 0001:000467e0       ??0Fl_Repeat_Button@@QAE@HHHHPBD@Z 004477e0 f   fltk:Fl_Repeat_Button.obj
 0001:00046820       ??_GFl_Repeat_Button@@UAEPAXI@Z 00447820 f i fltk:Fl_Repeat_Button.obj
 0001:00046820       ??_EFl_Repeat_Button@@UAEPAXI@Z 00447820 f i fltk:Fl_Repeat_Button.obj
 0001:00046850       ?next@Fl_Menu_Item@@QBEPBU1@H@Z 00447850 f   fltk:Fl_Menu.obj
 0001:000468f0       ?measure@Fl_Menu_Item@@QBEHPAHPBVFl_Menu_@@@Z 004478f0 f   fltk:Fl_Menu.obj
 0001:00046a10       ?draw@Fl_Menu_Item@@QBEXHHHHPBVFl_Menu_@@H@Z 00447a10 f   fltk:Fl_Menu.obj
 0001:00047310       ?popup@Fl_Menu_Item@@QBEPBU1@HHPBDPBU1@PBVFl_Menu_@@@Z 00448310 f   fltk:Fl_Menu.obj
 0001:00047360       ?pulldown@Fl_Menu_Item@@QBEPBU1@HHHHPBU1@PBVFl_Menu_@@0H@Z 00448360 f   fltk:Fl_Menu.obj
 0001:00047e40       ?test_shortcut@Fl_Menu_Item@@QBEPBU1@XZ 00448e40 f   fltk:Fl_Menu.obj
 0001:00047f00       ?find_shortcut@Fl_Menu_Item@@QBEPBU1@PAH_N@Z 00448f00 f   fltk:Fl_Menu.obj
 0001:00047fb0       ?size@Fl_Menu_Item@@QBEHXZ 00448fb0 f   fltk:Fl_Menu.obj
 0001:00048080       ?draw@menutitle@@EAEXXZ    00449080 f   fltk:Fl_Menu.obj
 0001:000480d0       ??0menutitle@@QAE@HHHHPBUFl_Menu_Item@@@Z 004490d0 f   fltk:Fl_Menu.obj
 0001:000481b0       ?draw@menuwindow@@EAEXXZ   004491b0 f   fltk:Fl_Menu.obj
 0001:00048330       ?drawentry@menuwindow@@AAEXPBUFl_Menu_Item@@HH@Z 00449330 f   fltk:Fl_Menu.obj
 0001:000487a0       ?handle@menuwindow@@UAEHH@Z 004497a0 f   fltk:Fl_Menu.obj
 0001:00048e10       ??0menuwindow@@QAE@PBUFl_Menu_Item@@HHHH00HHH@Z 00449e10 f   fltk:Fl_Menu.obj
 0001:00049630       ??1menuwindow@@UAE@XZ      0044a630 f   fltk:Fl_Menu.obj
 0001:000496c0       ?set_selected@menuwindow@@QAEXH@Z 0044a6c0 f   fltk:Fl_Menu.obj
 0001:00049700       ?find_selected@menuwindow@@QAEHHH@Z 0044a700 f   fltk:Fl_Menu.obj
 0001:00049890       ?titlex@menuwindow@@QAEHH@Z 0044a890 f   fltk:Fl_Menu.obj
 0001:00049910       ?autoscroll@menuwindow@@QAEXH@Z 0044a910 f   fltk:Fl_Menu.obj
 0001:00049a00       ?position@menuwindow@@QAEXHH@Z 0044aa00 f   fltk:Fl_Menu.obj
 0001:00049a90       ?is_inside@menuwindow@@QAEHHH@Z 0044aa90 f   fltk:Fl_Menu.obj
 0001:00049b20       ?is_inside@menustate@@QAEHHH@Z 0044ab20 f   fltk:Fl_Menu.obj
 0001:00049d80       ??_Emenutitle@@UAEPAXI@Z   0044ad80 f i fltk:Fl_Menu.obj
 0001:00049d80       ??_Gmenutitle@@UAEPAXI@Z   0044ad80 f i fltk:Fl_Menu.obj
 0001:00049dc0       ??_Gmenuwindow@@UAEPAXI@Z  0044adc0 f i fltk:Fl_Menu.obj
 0001:00049dc0       ??_Emenuwindow@@UAEPAXI@Z  0044adc0 f i fltk:Fl_Menu.obj
 0001:00049e00       ?insert@Fl_Menu_Item@@QAEHHPBDHP6AXPAVFl_Widget@@PAX@Z2H@Z 0044ae00 f   fltk:Fl_Menu_add.obj
 0001:0004a260       ?add@Fl_Menu_Item@@QAEHPBDHP6AXPAVFl_Widget@@PAX@Z2H@Z 0044b260 f   fltk:Fl_Menu_add.obj
 0001:0004a290       ?insert@Fl_Menu_@@QAEHHPBDHP6AXPAVFl_Widget@@PAX@Z2H@Z 0044b290 f   fltk:Fl_Menu_add.obj
 0001:0004a4a0       ?add@Fl_Menu_@@QAEHPBDHP6AXPAVFl_Widget@@PAX@Z2H@Z 0044b4a0 f   fltk:Fl_Menu_add.obj
 0001:0004a4d0       ?add@Fl_Menu_@@QAEHPBD@Z   0044b4d0 f   fltk:Fl_Menu_add.obj
 0001:0004a600       ?replace@Fl_Menu_@@QAEXHPBD@Z 0044b600 f   fltk:Fl_Menu_add.obj
 0001:0004a690       ?remove@Fl_Menu_@@QAEXH@Z  0044b690 f   fltk:Fl_Menu_add.obj
 0001:0004a920       _fl_strlcat                0044b920 f   fltk:flstring.obj
 0001:0004a9a0       _fl_strlcpy                0044b9a0 f   fltk:flstring.obj
 0001:0004a9f0       _fl_ascii_strcasecmp       0044b9f0 f   fltk:flstring.obj
 0001:0004ab50       ?_Fl_Slider@Fl_Slider@@AAEXXZ 0044bb50 f   fltk:Fl_Slider.obj
 0001:0004ab80       ?draw_bg@Fl_Slider@@AAEXHHHH@Z 0044bb80 f   fltk:Fl_Slider.obj
 0001:0004ac70       ?draw@Fl_Slider@@IAEXHHHH@Z 0044bc70 f   fltk:Fl_Slider.obj
 0001:0004b510       ?handle@Fl_Slider@@IAEHHHHHH@Z 0044c510 f   fltk:Fl_Slider.obj
 0001:0004c010       ?draw@Fl_Slider@@MAEXXZ    0044d010 f   fltk:Fl_Slider.obj
 0001:0004c0e0       ?handle@Fl_Slider@@UAEHH@Z 0044d0e0 f   fltk:Fl_Slider.obj
 0001:0004c1c0       ??0Fl_Slider@@QAE@HHHHPBD@Z 0044d1c0 f   fltk:Fl_Slider.obj
 0001:0004c240       ??0Fl_Slider@@QAE@EHHHHPBD@Z 0044d240 f   fltk:Fl_Slider.obj
 0001:0004c2f0       ?scrollvalue@Fl_Slider@@QAEHHHHH@Z 0044d2f0 f   fltk:Fl_Slider.obj
 0001:0004c3c0       ?bounds@Fl_Slider@@QAEXNN@Z 0044d3c0 f   fltk:Fl_Slider.obj
 0001:0004c430       ?slider_size@Fl_Slider@@QAEXN@Z 0044d430 f   fltk:Fl_Slider.obj
 0001:0004c4b0       ??0Fl_Fill_Slider@@QAE@HHHHPBD@Z 0044d4b0 f   fltk:Fl_Slider.obj
 0001:0004c4f0       ??0Fl_Hor_Slider@@QAE@HHHHPBD@Z 0044d4f0 f   fltk:Fl_Slider.obj
 0001:0004c530       ??0Fl_Hor_Fill_Slider@@QAE@HHHHPBD@Z 0044d530 f   fltk:Fl_Slider.obj
 0001:0004c570       ??0Fl_Hor_Nice_Slider@@QAE@HHHHPBD@Z 0044d570 f   fltk:Fl_Slider.obj
 0001:0004c5c0       ??0Fl_Nice_Slider@@QAE@HHHHPBD@Z 0044d5c0 f   fltk:Fl_Slider.obj
 0001:0004c610       ??1Fl_Valuator@@UAE@XZ     0044d610 f i fltk:Fl_Slider.obj
 0001:0004c630       ??_EFl_Fill_Slider@@UAEPAXI@Z 0044d630 f i fltk:Fl_Slider.obj
 0001:0004c630       ??_GFl_Fill_Slider@@UAEPAXI@Z 0044d630 f i fltk:Fl_Slider.obj
 0001:0004c670       ??_EFl_Hor_Fill_Slider@@UAEPAXI@Z 0044d670 f i fltk:Fl_Slider.obj
 0001:0004c670       ??_GFl_Hor_Fill_Slider@@UAEPAXI@Z 0044d670 f i fltk:Fl_Slider.obj
 0001:0004c6b0       ??_EFl_Hor_Nice_Slider@@UAEPAXI@Z 0044d6b0 f i fltk:Fl_Slider.obj
 0001:0004c6b0       ??_GFl_Hor_Nice_Slider@@UAEPAXI@Z 0044d6b0 f i fltk:Fl_Slider.obj
 0001:0004c6f0       ??_GFl_Hor_Slider@@UAEPAXI@Z 0044d6f0 f i fltk:Fl_Slider.obj
 0001:0004c6f0       ??_EFl_Hor_Slider@@UAEPAXI@Z 0044d6f0 f i fltk:Fl_Slider.obj
 0001:0004c730       ??_EFl_Nice_Slider@@UAEPAXI@Z 0044d730 f i fltk:Fl_Slider.obj
 0001:0004c730       ??_GFl_Nice_Slider@@UAEPAXI@Z 0044d730 f i fltk:Fl_Slider.obj
 0001:0004c770       ??_EFl_Slider@@UAEPAXI@Z   0044d770 f i fltk:Fl_Slider.obj
 0001:0004c770       ??_GFl_Slider@@UAEPAXI@Z   0044d770 f i fltk:Fl_Slider.obj
 0001:0004c7b0       ?fl_filename_absolute@@YAHPADHPBD@Z 0044d7b0 f   fltk:filename_absolute.obj
 0001:0004ca80       ?fl_filename_relative@@YAHPADHPBD@Z 0044da80 f   fltk:filename_absolute.obj
 0001:0004caf0       ?fl_filename_relative@@YAHPADHPBD1@Z 0044daf0 f   fltk:filename_absolute.obj
 0001:0004d0d0       ??0Fl_File_Chooser@@QAE@PBD0H0@Z 0044e0d0 f   fltk:Fl_File_Chooser.obj
 0001:0004e550       ?cb_window@Fl_File_Chooser@@CAXPAVFl_Double_Window@@PAX@Z 0044f550 f   fltk:Fl_File_Chooser.obj
 0001:0004e580       ?cb_showChoice@Fl_File_Chooser@@CAXPAVFl_Choice@@PAX@Z 0044f580 f   fltk:Fl_File_Chooser.obj
 0001:0004e5b0       ?cb_favoritesButton@Fl_File_Chooser@@CAXPAVFl_Menu_Button@@PAX@Z 0044f5b0 f   fltk:Fl_File_Chooser.obj
 0001:0004e5e0       ?cb_newButton@Fl_File_Chooser@@CAXPAVFl_Button@@PAX@Z 0044f5e0 f   fltk:Fl_File_Chooser.obj
 0001:0004e610       ?cb_@Fl_File_Chooser@@CAXPAVFl_Tile@@PAX@Z 0044f610 f   fltk:Fl_File_Chooser.obj
 0001:0004e640       ?cb_fileList@Fl_File_Chooser@@CAXPAVFl_File_Browser@@PAX@Z 0044f640 f   fltk:Fl_File_Chooser.obj
 0001:0004e670       ?cb_previewButton@Fl_File_Chooser@@CAXPAVFl_Check_Button@@PAX@Z 0044f670 f   fltk:Fl_File_Chooser.obj
 0001:0004e6c0       ?cb_showHiddenButton@Fl_File_Chooser@@CAXPAVFl_Check_Button@@PAX@Z 0044f6c0 f   fltk:Fl_File_Chooser.obj
 0001:0004e710       ?cb_fileName@Fl_File_Chooser@@CAXPAVFl_File_Input@@PAX@Z 0044f710 f   fltk:Fl_File_Chooser.obj
 0001:0004e740       ?cb_okButton@Fl_File_Chooser@@CAXPAVFl_Return_Button@@PAX@Z 0044f740 f   fltk:Fl_File_Chooser.obj
 0001:0004e7b0       ?cb_cancelButton@Fl_File_Chooser@@CAXPAVFl_Button@@PAX@Z 0044f7b0 f   fltk:Fl_File_Chooser.obj
 0001:0004e7f0       ?cb_favList@Fl_File_Chooser@@CAXPAVFl_File_Browser@@PAX@Z 0044f7f0 f   fltk:Fl_File_Chooser.obj
 0001:0004e820       ?cb_favUpButton@Fl_File_Chooser@@CAXPAVFl_Button@@PAX@Z 0044f820 f   fltk:Fl_File_Chooser.obj
 0001:0004e860       ?cb_favDeleteButton@Fl_File_Chooser@@CAXPAVFl_Button@@PAX@Z 0044f860 f   fltk:Fl_File_Chooser.obj
 0001:0004e8a0       ?cb_favDownButton@Fl_File_Chooser@@CAXPAVFl_Button@@PAX@Z 0044f8a0 f   fltk:Fl_File_Chooser.obj
 0001:0004e8e0       ?cb_favCancelButton@Fl_File_Chooser@@CAXPAVFl_Button@@PAX@Z 0044f8e0 f   fltk:Fl_File_Chooser.obj
 0001:0004e920       ?cb_favOkButton@Fl_File_Chooser@@CAXPAVFl_Return_Button@@PAX@Z 0044f920 f   fltk:Fl_File_Chooser.obj
 0001:0004e960       ??1Fl_File_Chooser@@QAE@XZ 0044f960 f   fltk:Fl_File_Chooser.obj
 0001:0004ea40       ?callback@Fl_File_Chooser@@QAEXP6AXPAV1@PAX@Z1@Z 0044fa40 f   fltk:Fl_File_Chooser.obj
 0001:0004ea60       ?color@Fl_File_Chooser@@QAEXI@Z 0044fa60 f   fltk:Fl_File_Chooser.obj
 0001:0004ea90       ?color@Fl_File_Chooser@@QAEIXZ 0044fa90 f   fltk:Fl_File_Chooser.obj
 0001:0004eab0       ?directory@Fl_File_Chooser@@QAEPADXZ 0044fab0 f   fltk:Fl_File_Chooser.obj
 0001:0004ead0       ?filter@Fl_File_Chooser@@QAEPBDXZ 0044fad0 f   fltk:Fl_File_Chooser.obj
 0001:0004eb00       ?filter_value@Fl_File_Chooser@@QAEHXZ 0044fb00 f   fltk:Fl_File_Chooser.obj
 0001:0004eb50       ?filter_value@Fl_File_Chooser@@QAEXH@Z 0044fb50 f   fltk:Fl_File_Chooser.obj
 0001:0004eb80       ?hide@Fl_File_Chooser@@QAEXXZ 0044fb80 f   fltk:Fl_File_Chooser.obj
 0001:0004ebb0       ?iconsize@Fl_File_Chooser@@QAEXE@Z 0044fbb0 f   fltk:Fl_File_Chooser.obj
 0001:0004ebe0       ?iconsize@Fl_File_Chooser@@QAEEXZ 0044fbe0 f   fltk:Fl_File_Chooser.obj
 0001:0004ec10       ?label@Fl_File_Chooser@@QAEXPBD@Z 0044fc10 f   fltk:Fl_File_Chooser.obj
 0001:0004ec30       ?label@Fl_File_Chooser@@QAEPBDXZ 0044fc30 f   fltk:Fl_File_Chooser.obj
 0001:0004ec50       ?ok_label@Fl_File_Chooser@@QAEXPBD@Z 0044fc50 f   fltk:Fl_File_Chooser.obj
 0001:0004ed10       ?ok_label@Fl_File_Chooser@@QAEPBDXZ 0044fd10 f   fltk:Fl_File_Chooser.obj
 0001:0004ed30       ?shown@Fl_File_Chooser@@QAEHXZ 0044fd30 f   fltk:Fl_File_Chooser.obj
 0001:0004ed60       ?textcolor@Fl_File_Chooser@@QAEXI@Z 0044fd60 f   fltk:Fl_File_Chooser.obj
 0001:0004ed90       ?textcolor@Fl_File_Chooser@@QAEIXZ 0044fd90 f   fltk:Fl_File_Chooser.obj
 0001:0004edc0       ?textfont@Fl_File_Chooser@@QAEXH@Z 0044fdc0 f   fltk:Fl_File_Chooser.obj
 0001:0004edf0       ?textfont@Fl_File_Chooser@@QAEHXZ 0044fdf0 f   fltk:Fl_File_Chooser.obj
 0001:0004ee20       ?textsize@Fl_File_Chooser@@QAEXH@Z 0044fe20 f   fltk:Fl_File_Chooser.obj
 0001:0004ee60       ?textsize@Fl_File_Chooser@@QAEHXZ 0044fe60 f   fltk:Fl_File_Chooser.obj
 0001:0004ee90       ?type@Fl_File_Chooser@@QAEXH@Z 0044fe90 f   fltk:Fl_File_Chooser.obj
 0001:0004ef40       ?type@Fl_File_Chooser@@QAEHXZ 0044ff40 f   fltk:Fl_File_Chooser.obj
 0001:0004ef60       ?user_data@Fl_File_Chooser@@QBEPAXXZ 0044ff60 f   fltk:Fl_File_Chooser.obj
 0001:0004ef80       ?user_data@Fl_File_Chooser@@QAEXPAX@Z 0044ff80 f   fltk:Fl_File_Chooser.obj
 0001:0004efa0       ?visible@Fl_File_Chooser@@QAEHXZ 0044ffa0 f   fltk:Fl_File_Chooser.obj
 0001:0004efe0       ?add_extra@Fl_File_Chooser@@QAEPAVFl_Widget@@PAV2@@Z 0044ffe0 f   fltk:Fl_File_Chooser.obj
 0001:0004f210       ??0Fl_Bitmap@@QAE@PBEHH@Z  00450210 f i fltk:Fl_File_Chooser.obj
 0001:0004f2a0       ?cb_cancelButton_i@Fl_File_Chooser@@AAEXPAVFl_Button@@PAX@Z 004502a0 f i fltk:Fl_File_Chooser.obj
 0001:0004f300       ?cb_window_i@Fl_File_Chooser@@AAEXPAVFl_Double_Window@@PAX@Z 00450300 f i fltk:Fl_File_Chooser.obj
 0001:0004f360       ?favoritesButtonCB@Fl_File_Chooser@@AAEXXZ 00450360 f   fltk:Fl_File_Chooser2.obj
 0001:0004f590       ?favoritesCB@Fl_File_Chooser@@AAEXPAVFl_Widget@@@Z 00450590 f   fltk:Fl_File_Chooser2.obj
 0001:0004fca0       ?fileListCB@Fl_File_Chooser@@AAEXXZ 00450ca0 f   fltk:Fl_File_Chooser2.obj
 0001:00050100       ?fileNameCB@Fl_File_Chooser@@AAEXXZ 00451100 f   fltk:Fl_File_Chooser2.obj
 0001:00050b00       ?newdir@Fl_File_Chooser@@AAEXXZ 00451b00 f   fltk:Fl_File_Chooser2.obj
 0001:00050c30       ?previewCB@Fl_File_Chooser@@CAXPAV1@@Z 00451c30 f   fltk:Fl_File_Chooser2.obj
 0001:00050c40       ?showChoiceCB@Fl_File_Chooser@@AAEXXZ 00451c40 f   fltk:Fl_File_Chooser2.obj
 0001:00050e70       ?update_favorites@Fl_File_Chooser@@AAEXXZ 00451e70 f   fltk:Fl_File_Chooser2.obj
 0001:000510d0       ?update_preview@Fl_File_Chooser@@AAEXXZ 004520d0 f   fltk:Fl_File_Chooser2.obj
 0001:00051990       ?count@Fl_File_Chooser@@QAEHXZ 00452990 f   fltk:Fl_File_Chooser2.obj
 0001:00051a80       ?directory@Fl_File_Chooser@@QAEXPBD@Z 00452a80 f   fltk:Fl_File_Chooser2.obj
 0001:00051d40       ?filter@Fl_File_Chooser@@QAEXPBD@Z 00452d40 f   fltk:Fl_File_Chooser2.obj
 0001:00051f20       ?preview@Fl_File_Chooser@@QAEXH@Z 00452f20 f   fltk:Fl_File_Chooser2.obj
 0001:00052170       ?showHidden@Fl_File_Chooser@@AAEXH@Z 00453170 f   fltk:Fl_File_Chooser2.obj
 0001:000521c0       ?remove_hidden_files@Fl_File_Chooser@@AAEXXZ 004531c0 f   fltk:Fl_File_Chooser2.obj
 0001:00052260       ?rescan@Fl_File_Chooser@@QAEXXZ 00453260 f   fltk:Fl_File_Chooser2.obj
 0001:00052370       ?rescan_keep_filename@Fl_File_Chooser@@QAEXXZ 00453370 f   fltk:Fl_File_Chooser2.obj
 0001:00052590       ?show@Fl_File_Chooser@@QAEXXZ 00453590 f   fltk:Fl_File_Chooser2.obj
 0001:00052620       ?value@Fl_File_Chooser@@QAEPBDH@Z 00453620 f   fltk:Fl_File_Chooser2.obj
 0001:00052770       ?value@Fl_File_Chooser@@QAEXPBD@Z 00453770 f   fltk:Fl_File_Chooser2.obj
 0001:00052c00       ?fl_draw_pixmap@@YAHPBQADHHI@Z 00453c00 f   fltk:fl_draw_pixmap.obj
 0001:00052c20       ?fl_draw_pixmap@@YAHPBQBDHHI@Z 00453c20 f   fltk:fl_draw_pixmap.obj
 0001:00052de0       ?fl_measure_pixmap@@YAHPBQADAAH1@Z 00453de0 f   fltk:fl_draw_pixmap.obj
 0001:00052e00       ?fl_measure_pixmap@@YAHPBQBDAAH1@Z 00453e00 f   fltk:fl_draw_pixmap.obj
 0001:00052fb0       ?fl_convert_pixmap@@YAHPBQBDPAEI@Z 00453fb0 f   fltk:fl_draw_pixmap.obj
 0001:000535a0       ?show@Fl_Menu_Window@@UAEXXZ 004545a0 f   fltk:Fl_Menu_Window.obj
 0001:000535c0       ?erase@Fl_Menu_Window@@QAEXXZ 004545c0 f   fltk:Fl_Menu_Window.obj
 0001:000535d0       ?flush@Fl_Menu_Window@@UAEXXZ 004545d0 f   fltk:Fl_Menu_Window.obj
 0001:00053610       ?hide@Fl_Menu_Window@@UAEXXZ 00454610 f   fltk:Fl_Menu_Window.obj
 0001:00053630       ??1Fl_Menu_Window@@UAE@XZ  00454630 f   fltk:Fl_Menu_Window.obj
 0001:00053680       ??0Fl_Menu_Window@@QAE@HHPBD@Z 00454680 f   fltk:Fl_Menu_Window.obj
 0001:000536c0       ??0Fl_Menu_Window@@QAE@HHHHPBD@Z 004546c0 f   fltk:Fl_Menu_Window.obj
 0001:00053700       ??_EFl_Menu_Window@@UAEPAXI@Z 00454700 f i fltk:Fl_Menu_Window.obj
 0001:00053700       ??_GFl_Menu_Window@@UAEPAXI@Z 00454700 f i fltk:Fl_Menu_Window.obj
 0001:00053740       ?show@Fl_Overlay_Window@@UAEXXZ 00454740 f   fltk:Fl_Overlay_Window.obj
 0001:00053790       ?flush@Fl_Overlay_Window@@UAEXXZ 00454790 f   fltk:Fl_Overlay_Window.obj
 0001:00053810       ?hide@Fl_Overlay_Window@@UAEXXZ 00454810 f   fltk:Fl_Overlay_Window.obj
 0001:00053830       ?resize@Fl_Overlay_Window@@UAEXHHHH@Z 00454830 f   fltk:Fl_Overlay_Window.obj
 0001:000538b0       ??1Fl_Overlay_Window@@UAE@XZ 004548b0 f   fltk:Fl_Overlay_Window.obj
 0001:00053900       ?can_do_overlay@Fl_Overlay_Window@@QAEHXZ 00454900 f   fltk:Fl_Overlay_Window.obj
 0001:00053910       ?redraw_overlay@Fl_Overlay_Window@@QAEXXZ 00454910 f   fltk:Fl_Overlay_Window.obj
 0001:00053950       ?fl_filename_match@@YAHPBD0@Z 00454950 f   fltk:filename_match.obj
 0001:00053de0       _fl_casenumericsort        00454de0 f   fltk:numericsort.obj
 0001:00053e00       _fl_numericsort            00454e00 f   fltk:numericsort.obj
 0001:00054060       _fl_alphasort              00455060 f   fltk:filename_list.obj
 0001:00054080       _fl_casealphasort          00455080 f   fltk:filename_list.obj
 0001:000540a0       ?fl_filename_list@@YAHPBDPAPAPAUdirent@@P6AHPAPAU1@2@Z@Z 004550a0 f   fltk:filename_list.obj
 0001:000540c0       ?fl_filename_free_list@@YAXPAPAPAUdirent@@H@Z 004550c0 f   fltk:filename_list.obj
 0001:00054130       ?fl_define_FL_PLASTIC_UP_BOX@@YA?AW4Fl_Boxtype@@XZ 00455130 f   fltk:fl_plastic.obj
 0001:00056490       ?fl_define_FL_GTK_UP_BOX@@YA?AW4Fl_Boxtype@@XZ 00457490 f   fltk:fl_gtk.obj
 0001:00057c70       ?fl_pie@@YAXHHHHNN@Z       00458c70 f i fltk:fl_gtk.obj
 0001:00057cc0       ?fl_define_FL_GLEAM_UP_BOX@@YA?AW4Fl_Boxtype@@XZ 00458cc0 f   fltk:fl_gleam.obj
 0001:000586b0       ??0Fl_Tiled_Image@@QAE@PAVFl_Image@@HH@Z 004596b0 f   fltk:Fl_Tiled_Image.obj
 0001:00058720       ??1Fl_Tiled_Image@@UAE@XZ  00459720 f   fltk:Fl_Tiled_Image.obj
 0001:00058780       ?copy@Fl_Tiled_Image@@UAEPAVFl_Image@@HH@Z 00459780 f   fltk:Fl_Tiled_Image.obj
 0001:00058830       ?color_average@Fl_Tiled_Image@@UAEXIM@Z 00459830 f   fltk:Fl_Tiled_Image.obj
 0001:000588b0       ?desaturate@Fl_Tiled_Image@@UAEXXZ 004598b0 f   fltk:Fl_Tiled_Image.obj
 0001:00058920       ?draw@Fl_Tiled_Image@@UAEXHHHHHH@Z 00459920 f   fltk:Fl_Tiled_Image.obj
 0001:00058ac0       ??_GFl_Tiled_Image@@UAEPAXI@Z 00459ac0 f i fltk:Fl_Tiled_Image.obj
 0001:00058ac0       ??_EFl_Tiled_Image@@UAEPAXI@Z 00459ac0 f i fltk:Fl_Tiled_Image.obj
 0001:00058af0       ?fl_define_FL_ROUND_UP_BOX@@YA?AW4Fl_Boxtype@@XZ 00459af0 f   fltk:fl_round_box.obj
 0001:00059010       ?fl_round_down_box@@YAXHHHHI@Z 0045a010 f   fltk:fl_round_box.obj
 0001:000591f0       ?fl_round_up_box@@YAXHHHHI@Z 0045a1f0 f   fltk:fl_round_box.obj
 0001:000593d0       _XUtf8Tolower              0045a3d0 f   fltk:case.obj
 0001:00059580       _XUtf8Toupper              0045a580 f   fltk:case.obj
 0001:00059640       _XUtf8IsNonSpacing         0045a640 f   fltk:is_spacing.obj
 0001:000597d0       ?cursor@Fl_Window@@QAEXW4Fl_Cursor@@@Z 0045a7d0 f   fltk:fl_cursor.obj
 0001:00059870       ?cursor@Fl_Window@@QAEXPBVFl_RGB_Image@@HH@Z 0045a870 f   fltk:fl_cursor.obj
 0001:00059900       ?default_cursor@Fl_Window@@QAEXW4Fl_Cursor@@@Z 0045a900 f   fltk:fl_cursor.obj
 0001:00059930       ?cursor@Fl_Window@@QAEXW4Fl_Cursor@@II@Z 0045a930 f   fltk:fl_cursor.obj
 0001:00059950       ?default_cursor@Fl_Window@@QAEXW4Fl_Cursor@@II@Z 0045a950 f   fltk:fl_cursor.obj
 0001:00059970       ?fl_cursor@@YAXW4Fl_Cursor@@@Z 0045a970 f   fltk:fl_cursor.obj
 0001:00059990       ?fl_cursor@@YAXW4Fl_Cursor@@II@Z 0045a990 f   fltk:fl_cursor.obj
 0001:00059be0       ?fl_draw_symbol@@YAHPBDHHHHI@Z 0045abe0 f   fltk:fl_symbols.obj
 0001:0005a190       ?fl_add_symbol@@YAHPBDP6AXI@ZH@Z 0045b190 f   fltk:fl_symbols.obj
 0001:00060660       ?draw@Fl_Choice@@MAEXXZ    00461660 f   fltk:Fl_Choice.obj
 0001:00060e00       ?handle@Fl_Choice@@UAEHH@Z 00461e00 f   fltk:Fl_Choice.obj
 0001:000610a0       ??0Fl_Choice@@QAE@HHHHPBD@Z 004620a0 f   fltk:Fl_Choice.obj
 0001:00061100       ?value@Fl_Choice@@QAEHH@Z  00462100 f   fltk:Fl_Choice.obj
 0001:00061170       ?value@Fl_Choice@@QAEHPBUFl_Menu_Item@@@Z 00462170 f   fltk:Fl_Choice.obj
 0001:000611a0       ??_EFl_Choice@@UAEPAXI@Z   004621a0 f i fltk:Fl_Choice.obj
 0001:000611a0       ??_GFl_Choice@@UAEPAXI@Z   004621a0 f i fltk:Fl_Choice.obj
 0001:000611d0       ?handle@Fl_Tile@@UAEHH@Z   004621d0 f   fltk:Fl_Tile.obj
 0001:000616b0       ??0Fl_Tile@@QAE@HHHHPBD@Z  004626b0 f   fltk:Fl_Tile.obj
 0001:000616f0       ?resize@Fl_Tile@@UAEXHHHH@Z 004626f0 f   fltk:Fl_Tile.obj
 0001:00061970       ?position@Fl_Tile@@QAEXHHHH@Z 00462970 f   fltk:Fl_Tile.obj
 0001:00061b90       ??_GFl_Tile@@UAEPAXI@Z     00462b90 f i fltk:Fl_Tile.obj
 0001:00061b90       ??_EFl_Tile@@UAEPAXI@Z     00462b90 f i fltk:Fl_Tile.obj
 0001:00061bc0       ?update_top@Fl_Browser_@@AAEXXZ 00462bc0 f   fltk:Fl_Browser_.obj
 0001:00061df0       ?item_quick_height@Fl_Browser_@@MBEHPAX@Z 00462df0 f   fltk:Fl_Browser_.obj
 0001:00061e10       ?full_width@Fl_Browser_@@MBEHXZ 00462e10 f   fltk:Fl_Browser_.obj
 0001:00061e30       ?full_height@Fl_Browser_@@MBEHXZ 00462e30 f   fltk:Fl_Browser_.obj
 0001:00061e90       ?incr_height@Fl_Browser_@@MBEHXZ 00462e90 f   fltk:Fl_Browser_.obj
 0001:00061ec0       ?item_select@Fl_Browser_@@MAEXPAXH@Z 00462ec0 f   fltk:Fl_Browser_.obj
 0001:00061ed0       ?item_selected@Fl_Browser_@@MBEHPAX@Z 00462ed0 f   fltk:Fl_Browser_.obj
 0001:00061f00       ?new_list@Fl_Browser_@@IAEXXZ 00462f00 f   fltk:Fl_Browser_.obj
 0001:00061f80       ?deleting@Fl_Browser_@@IAEXPAX@Z 00462f80 f   fltk:Fl_Browser_.obj
 0001:00062080       ?replacing@Fl_Browser_@@IAEXPAX0@Z 00463080 f   fltk:Fl_Browser_.obj
 0001:00062100       ?swapping@Fl_Browser_@@IAEXPAX0@Z 00463100 f   fltk:Fl_Browser_.obj
 0001:000621a0       ?inserting@Fl_Browser_@@IAEXPAX0@Z 004631a0 f   fltk:Fl_Browser_.obj
 0001:000621f0       ?displayed@Fl_Browser_@@IBEHPAX@Z 004631f0 f   fltk:Fl_Browser_.obj
 0001:00062280       ?redraw_line@Fl_Browser_@@IAEXPAX@Z 00463280 f   fltk:Fl_Browser_.obj
 0001:00062300       ?bbox@Fl_Browser_@@IBEXAAH000@Z 00463300 f   fltk:Fl_Browser_.obj
 0001:000624a0       ?leftedge@Fl_Browser_@@IBEHXZ 004634a0 f   fltk:Fl_Browser_.obj
 0001:000624d0       ?find_item@Fl_Browser_@@IAEPAXH@Z 004634d0 f   fltk:Fl_Browser_.obj
 0001:00062580       ?draw@Fl_Browser_@@MAEXXZ  00463580 f   fltk:Fl_Browser_.obj
 0001:00063450       ??0Fl_Browser_@@IAE@HHHHPBD@Z 00464450 f   fltk:Fl_Browser_.obj
 0001:00063610       ?handle@Fl_Browser_@@UAEHH@Z 00464610 f   fltk:Fl_Browser_.obj
 0001:00064950       ?resize@Fl_Browser_@@UAEXHHHH@Z 00465950 f   fltk:Fl_Browser_.obj
 0001:00064a60       ?select@Fl_Browser_@@QAEHPAXHH@Z 00465a60 f   fltk:Fl_Browser_.obj
 0001:00064c20       ?select_only@Fl_Browser_@@QAEHPAXH@Z 00465c20 f   fltk:Fl_Browser_.obj
 0001:00064da0       ?deselect@Fl_Browser_@@QAEHH@Z 00465da0 f   fltk:Fl_Browser_.obj
 0001:00064e70       ?position@Fl_Browser_@@QAEXH@Z 00465e70 f   fltk:Fl_Browser_.obj
 0001:00064ec0       ?hposition@Fl_Browser_@@QAEXH@Z 00465ec0 f   fltk:Fl_Browser_.obj
 0001:00064f10       ?display@Fl_Browser_@@QAEXPAX@Z 00465f10 f   fltk:Fl_Browser_.obj
 0001:00065110       ?sort@Fl_Browser_@@QAEXH@Z 00466110 f   fltk:Fl_Browser_.obj
 0001:00065320       ??_EFl_Browser_@@UAEPAXI@Z 00466320 f i fltk:Fl_Browser_.obj
 0001:00065320       ??_GFl_Browser_@@UAEPAXI@Z 00466320 f i fltk:Fl_Browser_.obj
 0001:00065370       ?item_at@Fl_Browser_@@MBEPAXH@Z 00466370 f i fltk:Fl_Browser_.obj
 0001:00065380       ?item_last@Fl_Browser_@@MBEPAXXZ 00466380 f i fltk:Fl_Browser_.obj
 0001:00065390       ?item_swap@Fl_Browser_@@MAEXPAX0@Z 00466390 f i fltk:Fl_Browser_.obj
 0001:000653a0       ?item_text@Fl_Browser_@@MBEPBDPAX@Z 004663a0 f i fltk:Fl_Browser_.obj
 0001:000653b0       ?full_height@Fl_File_Browser@@EBEHXZ 004663b0 f   fltk:Fl_File_Browser.obj
 0001:00065410       ?item_height@Fl_File_Browser@@EBEHPAX@Z 00466410 f   fltk:Fl_File_Browser.obj
 0001:000654f0       ?item_width@Fl_File_Browser@@EBEHPAX@Z 004664f0 f   fltk:Fl_File_Browser.obj
 0001:00065900       ?item_draw@Fl_File_Browser@@EBEXPAXHHHH@Z 00466900 f   fltk:Fl_File_Browser.obj
 0001:00065f60       ??0Fl_File_Browser@@QAE@HHHHPBD@Z 00466f60 f   fltk:Fl_File_Browser.obj
 0001:00065fe0       ?filter@Fl_File_Browser@@QAEXPBD@Z 00466fe0 f   fltk:Fl_File_Browser.obj
 0001:00066010       ?load@Fl_File_Browser@@QAEHPBDP6AHPAPAUdirent@@1@Z@Z 00467010 f   fltk:Fl_File_Browser.obj
 0001:00066420       ??1Fl_Browser@@UAE@XZ      00467420 f i fltk:Fl_File_Browser.obj
 0001:00066490       ??_GFl_Browser@@UAEPAXI@Z  00467490 f i fltk:Fl_File_Browser.obj
 0001:00066490       ??_EFl_Browser@@UAEPAXI@Z  00467490 f i fltk:Fl_File_Browser.obj
 0001:000664d0       ??_GFl_File_Browser@@UAEPAXI@Z 004674d0 f i fltk:Fl_File_Browser.obj
 0001:000664d0       ??_EFl_File_Browser@@UAEPAXI@Z 004674d0 f i fltk:Fl_File_Browser.obj
 0001:00066510       ?hide@Fl_Browser@@UAEXXZ   00467510 f i fltk:Fl_File_Browser.obj
 0001:00066530       ?incr_height@Fl_File_Browser@@EBEHXZ 00467530 f i fltk:Fl_File_Browser.obj
 0001:00066550       ?item_at@Fl_Browser@@MBEPAXH@Z 00467550 f i fltk:Fl_File_Browser.obj
 0001:00066570       ?item_swap@Fl_Browser@@MAEXPAX0@Z 00467570 f i fltk:Fl_File_Browser.obj
 0001:00066590       ?show@Fl_Browser@@UAEXXZ   00467590 f i fltk:Fl_File_Browser.obj
 0001:000665b0       ??0Fl_Check_Button@@QAE@HHHHPBD@Z 004675b0 f   fltk:Fl_Check_Button.obj
 0001:00066600       ??_GFl_Check_Button@@UAEPAXI@Z 00467600 f i fltk:Fl_Check_Button.obj
 0001:00066600       ??_EFl_Check_Button@@UAEPAXI@Z 00467600 f i fltk:Fl_Check_Button.obj
 0001:00066630       ?draw_buttons@Fl_File_Input@@AAEXXZ 00467630 f   fltk:Fl_File_Input.obj
 0001:000669b0       ?handle_button@Fl_File_Input@@AAEHH@Z 004679b0 f   fltk:Fl_File_Input.obj
 0001:00066c60       ?update_buttons@Fl_File_Input@@AAEXXZ 00467c60 f   fltk:Fl_File_Input.obj
 0001:00066da0       ??0Fl_File_Input@@QAE@HHHHPBD@Z 00467da0 f   fltk:Fl_File_Input.obj
 0001:00066e20       ?handle@Fl_File_Input@@UAEHH@Z 00467e20 f   fltk:Fl_File_Input.obj
 0001:00066fd0       ?draw@Fl_File_Input@@MAEXXZ 00467fd0 f   fltk:Fl_File_Input.obj
 0001:00067140       ?value@Fl_File_Input@@QAEHPBD@Z 00468140 f   fltk:Fl_File_Input.obj
 0001:00067170       ?value@Fl_File_Input@@QAEHPBDH@Z 00468170 f   fltk:Fl_File_Input.obj
 0001:000671a0       ??_EFl_File_Input@@UAEPAXI@Z 004681a0 f i fltk:Fl_File_Input.obj
 0001:000671a0       ??_GFl_File_Input@@UAEPAXI@Z 004681a0 f i fltk:Fl_File_Input.obj
 0001:000671e0       ?item_first@Fl_Browser@@MBEPAXXZ 004681e0 f   fltk:Fl_Browser.obj
 0001:00067200       ?item_next@Fl_Browser@@MBEPAXPAX@Z 00468200 f   fltk:Fl_Browser.obj
 0001:00067220       ?item_prev@Fl_Browser@@MBEPAXPAX@Z 00468220 f   fltk:Fl_Browser.obj
 0001:00067240       ?item_last@Fl_Browser@@MBEPAXXZ 00468240 f   fltk:Fl_Browser.obj
 0001:00067260       ?item_selected@Fl_Browser@@MBEHPAX@Z 00468260 f   fltk:Fl_Browser.obj
 0001:00067280       ?item_select@Fl_Browser@@MAEXPAXH@Z 00468280 f   fltk:Fl_Browser.obj
 0001:000672c0       ?item_height@Fl_Browser@@MBEHPAX@Z 004682c0 f   fltk:Fl_Browser.obj
 0001:00067670       ?item_width@Fl_Browser@@MBEHPAX@Z 00468670 f   fltk:Fl_Browser.obj
 0001:00067970       ?item_draw@Fl_Browser@@MBEXPAXHHHH@Z 00468970 f   fltk:Fl_Browser.obj
 0001:00067f30       ?full_height@Fl_Browser@@MBEHXZ 00468f30 f   fltk:Fl_Browser.obj
 0001:00067f50       ?incr_height@Fl_Browser@@MBEHXZ 00468f50 f   fltk:Fl_Browser.obj
 0001:00067f70       ?item_text@Fl_Browser@@MBEPBDPAX@Z 00468f70 f   fltk:Fl_Browser.obj
 0001:00067f90       ?find_line@Fl_Browser@@IBEPAUFL_BLINE@@H@Z 00468f90 f   fltk:Fl_Browser.obj
 0001:000680c0       ?_remove@Fl_Browser@@IAEPAUFL_BLINE@@H@Z 004690c0 f   fltk:Fl_Browser.obj
 0001:000681a0       ?insert@Fl_Browser@@IAEXHPAUFL_BLINE@@@Z 004691a0 f   fltk:Fl_Browser.obj
 0001:00068320       ?lineno@Fl_Browser@@IBEHPAX@Z 00469320 f   fltk:Fl_Browser.obj
 0001:00068470       ?swap@Fl_Browser@@IAEXPAUFL_BLINE@@0@Z 00469470 f   fltk:Fl_Browser.obj
 0001:00068650       ?remove@Fl_Browser@@QAEXH@Z 00469650 f   fltk:Fl_Browser.obj
 0001:00068690       ?add@Fl_Browser@@QAEXPBDPAX@Z 00469690 f   fltk:Fl_Browser.obj
 0001:000686c0       ?insert@Fl_Browser@@QAEXHPBDPAX@Z 004696c0 f   fltk:Fl_Browser.obj
 0001:00068740       ?move@Fl_Browser@@QAEXHH@Z 00469740 f   fltk:Fl_Browser.obj
 0001:00068780       ?swap@Fl_Browser@@QAEXHH@Z 00469780 f   fltk:Fl_Browser.obj
 0001:000687f0       ?clear@Fl_Browser@@QAEXXZ  004697f0 f   fltk:Fl_Browser.obj
 0001:00068870       ?topline@Fl_Browser@@QBEHXZ 00469870 f   fltk:Fl_Browser.obj
 0001:000688a0       ?lineposition@Fl_Browser@@QAEXHW4Fl_Line_Position@1@@Z 004698a0 f   fltk:Fl_Browser.obj
 0001:000689d0       ?select@Fl_Browser@@QAEHHH@Z 004699d0 f   fltk:Fl_Browser.obj
 0001:00068a10       ?selected@Fl_Browser@@QBEHH@Z 00469a10 f   fltk:Fl_Browser.obj
 0001:00068a50       ?show@Fl_Browser@@QAEXH@Z  00469a50 f   fltk:Fl_Browser.obj
 0001:00068ad0       ?hide@Fl_Browser@@QAEXH@Z  00469ad0 f   fltk:Fl_Browser.obj
 0001:00068b50       ?visible@Fl_Browser@@QBEHH@Z 00469b50 f   fltk:Fl_Browser.obj
 0001:00068ba0       ?value@Fl_Browser@@QBEHXZ  00469ba0 f   fltk:Fl_Browser.obj
 0001:00068bd0       ?text@Fl_Browser@@QBEPBDH@Z 00469bd0 f   fltk:Fl_Browser.obj
 0001:00068c10       ?text@Fl_Browser@@QAEXHPBD@Z 00469c10 f   fltk:Fl_Browser.obj
 0001:00068d50       ?data@Fl_Browser@@QBEPAXH@Z 00469d50 f   fltk:Fl_Browser.obj
 0001:00068d90       ?data@Fl_Browser@@QAEXHPAX@Z 00469d90 f   fltk:Fl_Browser.obj
 0001:00068dd0       ??0Fl_Browser@@QAE@HHHHPBD@Z 00469dd0 f   fltk:Fl_Browser.obj
 0001:00068e80       ?icon@Fl_Browser@@QAEXHPAVFl_Image@@@Z 00469e80 f   fltk:Fl_Browser.obj
 0001:00068fa0       ?icon@Fl_Browser@@QBEPAVFl_Image@@H@Z 00469fa0 f   fltk:Fl_Browser.obj
 0001:00068fe0       ?remove_icon@Fl_Browser@@QAEXH@Z 00469fe0 f   fltk:Fl_Browser.obj
 0001:00069000       ?display@Fl_Browser@@QAEXHH@Z 0046a000 f   fltk:Fl_Browser.obj
 0001:00069050       ??0Fl_Hold_Browser@@QAE@HHHHPBD@Z 0046a050 f   fltk:Fl_Browser.obj
 0001:00069090       ??0Fl_Multi_Browser@@QAE@HHHHPBD@Z 0046a090 f   fltk:Fl_Browser.obj
 0001:000690d0       ??0Fl_Select_Browser@@QAE@HHHHPBD@Z 0046a0d0 f   fltk:Fl_Browser.obj
 0001:00069110       ??_EFl_Hold_Browser@@UAEPAXI@Z 0046a110 f i fltk:Fl_Browser.obj
 0001:00069110       ??_GFl_Hold_Browser@@UAEPAXI@Z 0046a110 f i fltk:Fl_Browser.obj
 0001:00069150       ??_EFl_Multi_Browser@@UAEPAXI@Z 0046a150 f i fltk:Fl_Browser.obj
 0001:00069150       ??_GFl_Multi_Browser@@UAEPAXI@Z 0046a150 f i fltk:Fl_Browser.obj
 0001:00069190       ??_EFl_Select_Browser@@UAEPAXI@Z 0046a190 f i fltk:Fl_Browser.obj
 0001:00069190       ??_GFl_Select_Browser@@UAEPAXI@Z 0046a190 f i fltk:Fl_Browser.obj
 0001:000691d0       ??0Fl_File_Icon@@QAE@PBDHHPAF@Z 0046a1d0 f   fltk:Fl_File_Icon.obj
 0001:00069270       ??1Fl_File_Icon@@QAE@XZ    0046a270 f   fltk:Fl_File_Icon.obj
 0001:000692f0       ?add@Fl_File_Icon@@QAEPAFF@Z 0046a2f0 f   fltk:Fl_File_Icon.obj
 0001:000693c0       ?draw@Fl_File_Icon@@QAEXHHHHIH@Z 0046a3c0 f   fltk:Fl_File_Icon.obj
 0001:00069be0       ?label@Fl_File_Icon@@QAEXPAVFl_Widget@@@Z 0046abe0 f   fltk:Fl_File_Icon.obj
 0001:00069c10       ?labeltype@Fl_File_Icon@@SAXPBUFl_Label@@HHHHI@Z 0046ac10 f   fltk:Fl_File_Icon.obj
 0001:00069c50       ?find@Fl_File_Icon@@SAPAV1@PBDH@Z 0046ac50 f   fltk:Fl_File_Icon.obj
 0001:00069d20       ?fl_filename_expand@@YAHPADHPBD@Z 0046ad20 f   fltk:filename_expand.obj
 0001:00069fc0       ?fl_filename_isdir@@YAHPBD@Z 0046afc0 f   fltk:filename_isdir.obj
 0001:0006a1e0       ?_fl_filename_isdir_quick@@YAHPBD@Z 0046b1e0 f   fltk:filename_isdir.obj
 0001:0006a250       ?compare@Fl_Shared_Image@@KAHPAPAV1@0@Z 0046b250 f   fltk:Fl_Shared_Image.obj
 0001:0006a330       ??0Fl_Shared_Image@@IAE@XZ 0046b330 f   fltk:Fl_Shared_Image.obj
 0001:0006a3c0       ??0Fl_Shared_Image@@IAE@PBDPAVFl_Image@@@Z 0046b3c0 f   fltk:Fl_Shared_Image.obj
 0001:0006a4f0       ??1Fl_Shared_Image@@MAE@XZ 0046b4f0 f   fltk:Fl_Shared_Image.obj
 0001:0006a570       ?add@Fl_Shared_Image@@IAEXXZ 0046b570 f   fltk:Fl_Shared_Image.obj
 0001:0006a650       ?update@Fl_Shared_Image@@IAEXXZ 0046b650 f   fltk:Fl_Shared_Image.obj
 0001:0006a6d0       ?release@Fl_Shared_Image@@QAEXXZ 0046b6d0 f   fltk:Fl_Shared_Image.obj
 0001:0006a7e0       ?reload@Fl_Shared_Image@@QAEXXZ 0046b7e0 f   fltk:Fl_Shared_Image.obj
 0001:0006ab00       ?copy@Fl_Shared_Image@@UAEPAVFl_Image@@HH@Z 0046bb00 f   fltk:Fl_Shared_Image.obj
 0001:0006ac10       ?color_average@Fl_Shared_Image@@UAEXIM@Z 0046bc10 f   fltk:Fl_Shared_Image.obj
 0001:0006ac60       ?desaturate@Fl_Shared_Image@@UAEXXZ 0046bc60 f   fltk:Fl_Shared_Image.obj
 0001:0006aca0       ?draw@Fl_Shared_Image@@UAEXHHHHHH@Z 0046bca0 f   fltk:Fl_Shared_Image.obj
 0001:0006ad10       ?uncache@Fl_Shared_Image@@UAEXXZ 0046bd10 f   fltk:Fl_Shared_Image.obj
 0001:0006ad40       ?find@Fl_Shared_Image@@SAPAV1@PBDHH@Z 0046bd40 f   fltk:Fl_Shared_Image.obj
 0001:0006ae90       ?get@Fl_Shared_Image@@SAPAV1@PBDHH@Z 0046be90 f   fltk:Fl_Shared_Image.obj
 0001:0006afe0       ?images@Fl_Shared_Image@@SAPAPAV1@XZ 0046bfe0 f   fltk:Fl_Shared_Image.obj
 0001:0006aff0       ?num_images@Fl_Shared_Image@@SAHXZ 0046bff0 f   fltk:Fl_Shared_Image.obj
 0001:0006b000       ?add_handler@Fl_Shared_Image@@SAXP6APAVFl_Image@@PBDPAEH@Z@Z 0046c000 f   fltk:Fl_Shared_Image.obj
 0001:0006b0f0       ?remove_handler@Fl_Shared_Image@@SAXP6APAVFl_Image@@PBDPAEH@Z@Z 0046c0f0 f   fltk:Fl_Shared_Image.obj
 0001:0006b180       ??_EFl_Shared_Image@@MAEPAXI@Z 0046c180 f i fltk:Fl_Shared_Image.obj
 0001:0006b180       ??_GFl_Shared_Image@@MAEPAXI@Z 0046c180 f i fltk:Fl_Shared_Image.obj
 0001:0006b1b0       ?show@Fl_Single_Window@@UAEXXZ 0046c1b0 f   fltk:Fl_Single_Window.obj
 0001:0006b1d0       ?flush@Fl_Single_Window@@UAEXXZ 0046c1d0 f   fltk:Fl_Single_Window.obj
 0001:0006b1f0       ??0Fl_Single_Window@@QAE@HHPBD@Z 0046c1f0 f   fltk:Fl_Single_Window.obj
 0001:0006b220       ??0Fl_Single_Window@@QAE@HHHHPBD@Z 0046c220 f   fltk:Fl_Single_Window.obj
 0001:0006b260       ??_GFl_Single_Window@@UAEPAXI@Z 0046c260 f i fltk:Fl_Single_Window.obj
 0001:0006b260       ??_EFl_Single_Window@@UAEPAXI@Z 0046c260 f i fltk:Fl_Single_Window.obj
 0001:0006b2a0       _fl_scandir                0046c2a0 f   fltk:scandir.obj
 0001:0006b820       ?timeout_cb@Fl_Scrollbar@@CAXPAX@Z 0046c820 f   fltk:Fl_Scrollbar.obj
 0001:0006b860       ?increment_cb@Fl_Scrollbar@@AAEXXZ 0046c860 f   fltk:Fl_Scrollbar.obj
 0001:0006ba70       ?draw@Fl_Scrollbar@@MAEXXZ 0046ca70 f   fltk:Fl_Scrollbar.obj
 0001:0006c220       ??0Fl_Scrollbar@@QAE@HHHHPBD@Z 0046d220 f   fltk:Fl_Scrollbar.obj
 0001:0006c2b0       ??1Fl_Scrollbar@@UAE@XZ    0046d2b0 f   fltk:Fl_Scrollbar.obj
 0001:0006c320       ?handle@Fl_Scrollbar@@UAEHH@Z 0046d320 f   fltk:Fl_Scrollbar.obj
 0001:0006cc60       ??_GFl_Scrollbar@@UAEPAXI@Z 0046dc60 f i fltk:Fl_Scrollbar.obj
 0001:0006cc60       ??_EFl_Scrollbar@@UAEPAXI@Z 0046dc60 f i fltk:Fl_Scrollbar.obj
 0001:0006cca0       ?draw@Fl_Light_Button@@MAEXXZ 0046dca0 f   fltk:Fl_Light_Button.obj
 0001:0006d7d0       ?handle@Fl_Light_Button@@UAEHH@Z 0046e7d0 f   fltk:Fl_Light_Button.obj
 0001:0006d810       ??0Fl_Light_Button@@QAE@HHHHPBD@Z 0046e810 f   fltk:Fl_Light_Button.obj
 0001:0006d860       ??0Fl_Radio_Light_Button@@QAE@HHHHPBD@Z 0046e860 f   fltk:Fl_Light_Button.obj
 0001:0006d8a0       ??_GFl_Light_Button@@UAEPAXI@Z 0046e8a0 f i fltk:Fl_Light_Button.obj
 0001:0006d8a0       ??_EFl_Light_Button@@UAEPAXI@Z 0046e8a0 f i fltk:Fl_Light_Button.obj
 0001:0006d8d0       ??_EFl_Radio_Light_Button@@UAEPAXI@Z 0046e8d0 f i fltk:Fl_Light_Button.obj
 0001:0006d8d0       ??_GFl_Radio_Light_Button@@UAEPAXI@Z 0046e8d0 f i fltk:Fl_Light_Button.obj
 0001:0006d900       ??0Fl_XBM_Image@@QAE@PBD@Z 0046e900 f   fltk:Fl_XBM_Image.obj
 0001:0006dd00       ??_GFl_XBM_Image@@UAEPAXI@Z 0046ed00 f i fltk:Fl_XBM_Image.obj
 0001:0006dd00       ??_EFl_XBM_Image@@UAEPAXI@Z 0046ed00 f i fltk:Fl_XBM_Image.obj
 0001:0006dd30       ??0Fl_XPM_Image@@QAE@PBD@Z 0046ed30 f   fltk:Fl_XPM_Image.obj
 0001:0006e4d0       ??_EFl_XPM_Image@@UAEPAXI@Z 0046f4d0 f i fltk:Fl_XPM_Image.obj
 0001:0006e4d0       ??_GFl_XPM_Image@@UAEPAXI@Z 0046f4d0 f i fltk:Fl_XPM_Image.obj
 0001:0006e500       ?draw_overlay@Fl_Gl_Window@@EAEXXZ 0046f500 f   fltkgl:Fl_Gl_Window.obj
 0001:0006e510       ?init@Fl_Gl_Window@@AAEXXZ 0046f510 f   fltkgl:Fl_Gl_Window.obj
 0001:0006e580       ?can_do@Fl_Gl_Window@@CAHHPBH@Z 0046f580 f   fltkgl:Fl_Gl_Window.obj
 0001:0006e5b0       ?mode@Fl_Gl_Window@@AAEHHPBH@Z 0046f5b0 f   fltkgl:Fl_Gl_Window.obj
 0001:0006e6a0       ?gl_plugin_linkage@Fl_Gl_Window@@CAHXZ 0046f6a0 f   fltkgl:Fl_Gl_Window.obj
 0001:0006e6b0       ?show@Fl_Gl_Window@@UAEXXZ 0046f6b0 f   fltkgl:Fl_Gl_Window.obj
 0001:0006e7a0       ?flush@Fl_Gl_Window@@UAEXXZ 0046f7a0 f   fltkgl:Fl_Gl_Window.obj
 0001:0006ed40       ?hide@Fl_Gl_Window@@UAEXXZ 0046fd40 f   fltkgl:Fl_Gl_Window.obj
 0001:0006eda0       ?resize@Fl_Gl_Window@@UAEXHHHH@Z 0046fda0 f   fltkgl:Fl_Gl_Window.obj
 0001:0006ee20       ?handle@Fl_Gl_Window@@UAEHH@Z 0046fe20 f   fltkgl:Fl_Gl_Window.obj
 0001:0006ee40       ?invalidate@Fl_Gl_Window@@QAEXXZ 0046fe40 f   fltkgl:Fl_Gl_Window.obj
 0001:0006eec0       ?context@Fl_Gl_Window@@QAEXPAXH@Z 0046fec0 f   fltkgl:Fl_Gl_Window.obj
 0001:0006ef40       ?make_current@Fl_Gl_Window@@QAEXXZ 0046ff40 f   fltkgl:Fl_Gl_Window.obj
 0001:0006f0a0       ?swap_buffers@Fl_Gl_Window@@QAEXXZ 004700a0 f   fltkgl:Fl_Gl_Window.obj
 0001:0006f0e0       ?ortho@Fl_Gl_Window@@QAEXXZ 004700e0 f   fltkgl:Fl_Gl_Window.obj
 0001:0006f1f0       ??1Fl_Gl_Window@@UAE@XZ    004701f0 f   fltkgl:Fl_Gl_Window.obj
 0001:0006f240       ?draw@Fl_Gl_Window@@MAEXXZ 00470240 f   fltkgl:Fl_Gl_Window.obj
 0001:0006f260       ?find@Fl_Gl_Choice@@SAPAV1@HPBH@Z 00470260 f   fltkgl:Fl_Gl_Choice.obj
 0001:0006f4d0       ?fl_create_gl_context@@YAPAUHGLRC__@@PAVFl_Window@@PBVFl_Gl_Choice@@H@Z 004704d0 f   fltkgl:Fl_Gl_Choice.obj
 0001:0006f5d0       ?fl_set_gl_context@@YAXPAVFl_Window@@PAUHGLRC__@@@Z 004705d0 f   fltkgl:Fl_Gl_Choice.obj
 0001:0006f620       ?fl_no_gl_context@@YAXXZ   00470620 f   fltkgl:Fl_Gl_Choice.obj
 0001:0006f650       ?fl_delete_gl_context@@YAXPAUHGLRC__@@@Z 00470650 f   fltkgl:Fl_Gl_Choice.obj
 0001:0006f8d0       ??_GFl_Device_Plugin@@UAEPAXI@Z 004708d0 f i fltkgl:Fl_Gl_Device_Plugin.obj
 0001:0006f8d0       ??_EFl_Device_Plugin@@UAEPAXI@Z 004708d0 f i fltkgl:Fl_Gl_Device_Plugin.obj
 0001:0006f900       ??_EFl_Gl_Device_Plugin@@UAEPAXI@Z 00470900 f i fltkgl:Fl_Gl_Device_Plugin.obj
 0001:0006f900       ??_GFl_Gl_Device_Plugin@@UAEPAXI@Z 00470900 f i fltkgl:Fl_Gl_Device_Plugin.obj
 0001:0006f930       ?klass@Fl_Device_Plugin@@UAEPBDXZ 00470930 f i fltkgl:Fl_Gl_Device_Plugin.obj
 0001:0006f940       ?name@Fl_Gl_Device_Plugin@@UAEPBDXZ 00470940 f i fltkgl:Fl_Gl_Device_Plugin.obj
 0001:0006f950       ?print@Fl_Gl_Device_Plugin@@UAEHPAVFl_Widget@@HHH@Z 00470950 f i fltkgl:Fl_Gl_Device_Plugin.obj
 0001:0006f9a0       ?gl_color@@YAXI@Z          004709a0 f   fltkgl:gl_draw.obj
 0001:0006fa60       ?gl_rect@@YAXHHHH@Z        00470a60 f   fltkgl:gl_draw.obj
 0001:0006fb10       ?gl_font@@YAXHH@Z          00470b10 f   fltkgl:gl_draw.obj
 0001:0006fb80       ?gl_height@@YAHXZ          00470b80 f   fltkgl:gl_draw.obj
 0001:0006fba0       ?gl_descent@@YAHXZ         00470ba0 f   fltkgl:gl_draw.obj
 0001:0006fbc0       ?gl_width@@YANPBD@Z        00470bc0 f   fltkgl:gl_draw.obj
 0001:0006fbe0       ?gl_width@@YANPBDH@Z       00470be0 f   fltkgl:gl_draw.obj
 0001:0006fc10       ?gl_width@@YANE@Z          00470c10 f   fltkgl:gl_draw.obj
 0001:0006fc30       ?gl_draw@@YAXPBD@Z         00470c30 f   fltkgl:gl_draw.obj
 0001:0006fc50       ?gl_draw@@YAXPBDH@Z        00470c50 f   fltkgl:gl_draw.obj
 0001:0006fd40       ?gl_draw@@YAXPBDHH@Z       00470d40 f   fltkgl:gl_draw.obj
 0001:0006fd70       ?gl_draw@@YAXPBDMM@Z       00470d70 f   fltkgl:gl_draw.obj
 0001:0006fdb0       ?gl_draw@@YAXPBDHHH@Z      00470db0 f   fltkgl:gl_draw.obj
 0001:0006fde0       ?gl_draw@@YAXPBDHMM@Z      00470de0 f   fltkgl:gl_draw.obj
 0001:0006fe20       ?gl_draw@@YAXPBDHHHHI@Z    00470e20 f   fltkgl:gl_draw.obj
 0001:0006fe60       ?gl_measure@@YAXPBDAAH1@Z  00470e60 f   fltkgl:gl_draw.obj
 0001:0006fe80       ?gl_draw_image@@YAXPBEHHHHHH@Z 00470e80 f   fltkgl:gl_draw.obj
 0001:0006fef0       ?gl_remove_displaylist_fonts@@YAXXZ 00470ef0 f   fltkgl:gl_draw.obj
 0001:000700c6       _glClear@4                 004710c6 f   opengl32:OPENGL32.dll
 0001:000700cc       _glClearColor@16           004710cc f   opengl32:OPENGL32.dll
 0001:000700d2       _glDisable@4               004710d2 f   opengl32:OPENGL32.dll
 0001:000700d8       _glDrawBuffer@4            004710d8 f   opengl32:OPENGL32.dll
 0001:000700de       _glDrawPixels@20           004710de f   opengl32:OPENGL32.dll
 0001:000700e4       _glFlush@0                 004710e4 f   opengl32:OPENGL32.dll
 0001:000700ea       _glPixelStorei@8           004710ea f   opengl32:OPENGL32.dll
 0001:000700f0       _glRasterPos2i@8           004710f0 f   opengl32:OPENGL32.dll
 0001:000700f6       _wglRealizeLayerPalette@12 004710f6 f   opengl32:OPENGL32.dll
 0001:000700fc       _wglSwapLayerBuffers@8     004710fc f   opengl32:OPENGL32.dll
 0001:00070102       _glCopyPixels@20           00471102 f   opengl32:OPENGL32.dll
 0001:00070108       _glGetIntegerv@8           00471108 f   opengl32:OPENGL32.dll
 0001:0007010e       _glLoadIdentity@0          0047110e f   opengl32:OPENGL32.dll
 0001:00070114       _glOrtho@48                00471114 f   opengl32:OPENGL32.dll
 0001:0007011a       _glReadBuffer@4            0047111a f   opengl32:OPENGL32.dll
 0001:00070120       _glViewport@16             00471120 f   opengl32:OPENGL32.dll
 0001:00070126       _wglCreateContext@4        00471126 f   opengl32:OPENGL32.dll
 0001:0007012c       _wglCreateLayerContext@8   0047112c f   opengl32:OPENGL32.dll
 0001:00070132       _wglDeleteContext@4        00471132 f   opengl32:OPENGL32.dll
 0001:00070138       _wglMakeCurrent@8          00471138 f   opengl32:OPENGL32.dll
 0001:0007013e       _wglShareLists@8           0047113e f   opengl32:OPENGL32.dll
 0001:00070144       _glPopClientAttrib@0       00471144 f   opengl32:OPENGL32.dll
 0001:0007014a       _glPushClientAttrib@4      0047114a f   opengl32:OPENGL32.dll
 0001:00070150       _glReadPixels@28           00471150 f   opengl32:OPENGL32.dll
 0001:00070156       _wglUseFontBitmapsW@16     00471156 f   opengl32:OPENGL32.dll
 0001:0007015c       _glBegin@4                 0047115c f   opengl32:OPENGL32.dll
 0001:00070162       _glCallLists@12            00471162 f   opengl32:OPENGL32.dll
 0001:00070168       _glColor3ub@12             00471168 f   opengl32:OPENGL32.dll
 0001:0007016e       _glDeleteLists@8           0047116e f   opengl32:OPENGL32.dll
 0001:00070174       _glEnd@0                   00471174 f   opengl32:OPENGL32.dll
 0001:0007017a       _glGenLists@4              0047117a f   opengl32:OPENGL32.dll
 0001:00070180       _glIndexi@4                00471180 f   opengl32:OPENGL32.dll
 0001:00070186       _glListBase@4              00471186 f   opengl32:OPENGL32.dll
 0001:0007018c       _glRasterPos2f@8           0047118c f   opengl32:OPENGL32.dll
 0001:00070192       _glVertex2i@8              00471192 f   opengl32:OPENGL32.dll
 0001:00070198       _GetModuleHandleA@4        00471198 f   kernel32:KERNEL32.dll
 0001:0007019e       _GetProcAddress@8          0047119e f   kernel32:KERNEL32.dll
 0001:000701a4       _GlobalAlloc@8             004711a4 f   kernel32:KERNEL32.dll
 0001:000701aa       _GlobalLock@4              004711aa f   kernel32:KERNEL32.dll
 0001:000701b0       _GlobalUnlock@4            004711b0 f   kernel32:KERNEL32.dll
 0001:000701b6       _LoadLibraryA@4            004711b6 f   kernel32:KERNEL32.dll
 0001:000701bc       _GetLocaleInfoA@16         004711bc f   kernel32:KERNEL32.dll
 0001:000701c2       _GetLastError@0            004711c2 f   kernel32:KERNEL32.dll
 0001:000701c8       _MultiByteToWideChar@24    004711c8 f   kernel32:KERNEL32.dll
 0001:000701ce       _WideCharToMultiByte@32    004711ce f   kernel32:KERNEL32.dll
 0001:000701d4       _GetACP@0                  004711d4 f   kernel32:KERNEL32.dll
 0001:000701da       _InitializeCriticalSection@4 004711da f   kernel32:KERNEL32.dll
 0001:000701e0       _EnterCriticalSection@4    004711e0 f   kernel32:KERNEL32.dll
 0001:000701e6       _LeaveCriticalSection@4    004711e6 f   kernel32:KERNEL32.dll
 0001:000701ec       _GetCurrentThreadId@0      004711ec f   kernel32:KERNEL32.dll
 0001:000701f2       _GetComputerNameA@8        004711f2 f   kernel32:KERNEL32.dll
 0001:000701f8       _GetLogicalDrives@0        004711f8 f   kernel32:KERNEL32.dll
 0001:000701fe       _FindClose@4               004711fe f   kernel32:KERNEL32.dll
 0001:00070204       _FindFirstFileW@8          00471204 f   kernel32:KERNEL32.dll
 0001:0007020a       _FindNextFileW@8           0047120a f   kernel32:KERNEL32.dll
 0001:00070210       _GetFileAttributesA@4      00471210 f   kernel32:KERNEL32.dll
 0001:00070216       _GetKeyboardLayout@4       00471216 f   user32:USER32.dll
 0001:0007021c       _RegisterWindowMessageW@4  0047121c f   user32:USER32.dll
 0001:00070222       _TranslateMessage@4        00471222 f   user32:USER32.dll
 0001:00070228       _DispatchMessageW@4        00471228 f   user32:USER32.dll
 0001:0007022e       _PeekMessageA@20           0047122e f   user32:USER32.dll
 0001:00070234       _PeekMessageW@20           00471234 f   user32:USER32.dll
 0001:0007023a       _SendMessageA@16           0047123a f   user32:USER32.dll
 0001:00070240       _PostMessageA@16           00471240 f   user32:USER32.dll
 0001:00070246       _DefWindowProcA@16         00471246 f   user32:USER32.dll
 0001:0007024c       _DefWindowProcW@16         0047124c f   user32:USER32.dll
 0001:00070252       _RegisterClassExA@4        00471252 f   user32:USER32.dll
 0001:00070258       _RegisterClassExW@4        00471258 f   user32:USER32.dll
 0001:0007025e       _CreateWindowExA@48        0047125e f   user32:USER32.dll
 0001:00070264       _CreateWindowExW@48        00471264 f   user32:USER32.dll
 0001:0007026a       _IsWindow@4                0047126a f   user32:USER32.dll
 0001:00070270       _DestroyWindow@4           00471270 f   user32:USER32.dll
 0001:00070276       _ShowWindow@8              00471276 f   user32:USER32.dll
 0001:0007027c       _OpenIcon@4                0047127c f   user32:USER32.dll
 0001:00070282       _SetWindowPos@28           00471282 f   user32:USER32.dll
 0001:00070288       _IsIconic@4                00471288 f   user32:USER32.dll
 0001:0007028e       _BringWindowToTop@4        0047128e f   user32:USER32.dll
 0001:00070294       _OpenClipboard@4           00471294 f   user32:USER32.dll
 0001:0007029a       _CloseClipboard@0          0047129a f   user32:USER32.dll
 0001:000702a0       _GetClipboardOwner@0       004712a0 f   user32:USER32.dll
 0001:000702a6       _SetClipboardViewer@4      004712a6 f   user32:USER32.dll
 0001:000702ac       _ChangeClipboardChain@8    004712ac f   user32:USER32.dll
 0001:000702b2       _SetClipboardData@8        004712b2 f   user32:USER32.dll
 0001:000702b8       _GetClipboardData@4        004712b8 f   user32:USER32.dll
 0001:000702be       _EmptyClipboard@0          004712be f   user32:USER32.dll
 0001:000702c4       _IsClipboardFormatAvailable@4 004712c4 f   user32:USER32.dll
 0001:000702ca       _SetFocus@4                004712ca f   user32:USER32.dll
 0001:000702d0       _GetKeyState@4             004712d0 f   user32:USER32.dll
 0001:000702d6       _GetAsyncKeyState@4        004712d6 f   user32:USER32.dll
 0001:000702dc       _SetCapture@4              004712dc f   user32:USER32.dll
 0001:000702e2       _ReleaseCapture@0          004712e2 f   user32:USER32.dll
 0001:000702e8       _MsgWaitForMultipleObjects@20 004712e8 f   user32:USER32.dll
 0001:000702ee       _SetTimer@16               004712ee f   user32:USER32.dll
 0001:000702f4       _KillTimer@8               004712f4 f   user32:USER32.dll
 0001:000702fa       _GetSystemMetrics@4        004712fa f   user32:USER32.dll
 0001:00070300       _GetForegroundWindow@0     00471300 f   user32:USER32.dll
 0001:00070306       _GetDC@4                   00471306 f   user32:USER32.dll
 0001:0007030c       _ReleaseDC@8               0047130c f   user32:USER32.dll
 0001:00070312       _GetUpdateRgn@12           00471312 f   user32:USER32.dll
 0001:00070318       _InvalidateRect@12         00471318 f   user32:USER32.dll
 0001:0007031e       _ValidateRgn@8             0047131e f   user32:USER32.dll
 0001:00070324       _SetWindowTextW@8          00471324 f   user32:USER32.dll
 0001:0007032a       _GetWindowRect@8           0047132a f   user32:USER32.dll
 0001:00070330       _AdjustWindowRectEx@16     00471330 f   user32:USER32.dll
 0001:00070336       _SetCursor@4               00471336 f   user32:USER32.dll
 0001:0007033c       _GetCursorPos@4            0047133c f   user32:USER32.dll
 0001:00070342       _ClientToScreen@8          00471342 f   user32:USER32.dll
 0001:00070348       _MapWindowPoints@16        00471348 f   user32:USER32.dll
 0001:0007034e       _GetWindowLongA@8          0047134e f   user32:USER32.dll
 0001:00070354       _SetWindowLongA@12         00471354 f   user32:USER32.dll
 0001:0007035a       _GetParent@4               0047135a f   user32:USER32.dll
 0001:00070360       _GetWindow@8               00471360 f   user32:USER32.dll
 0001:00070366       _LoadCursorA@8             00471366 f   user32:USER32.dll
 0001:0007036c       _LoadIconA@8               0047136c f   user32:USER32.dll
 0001:00070372       _DestroyIcon@4             00471372 f   user32:USER32.dll
 0001:00070378       _CreateIconIndirect@4      00471378 f   user32:USER32.dll
 0001:0007037e       _CopyIcon@4                0047137e f   user32:USER32.dll
 0001:00070384       _SystemParametersInfoA@16  00471384 f   user32:USER32.dll
 0001:0007038a       _MessageBeep@4             0047138a f   user32:USER32.dll
 0001:00070390       _PostThreadMessageA@16     00471390 f   user32:USER32.dll
 0001:00070396       _FillRect@12               00471396 f   user32:USER32.dll
 0001:0007039c       _GetSysColor@4             0047139c f   user32:USER32.dll
 0001:000703a2       _MessageBoxA@16            004713a2 f   user32:USER32.dll
 0001:000703a8       _SetForegroundWindow@4     004713a8 f   user32:USER32.dll
 0001:000703ae       _WindowFromPoint@8         004713ae f   user32:USER32.dll
 0001:000703b4       _SetActiveWindow@4         004713b4 f   user32:USER32.dll
 0001:000703ba       _SetWindowRgn@12           004713ba f   user32:USER32.dll
 0001:000703c0       _SetRect@20                004713c0 f   user32:USER32.dll
 0001:000703c6       _GetDCEx@12                004713c6 f   user32:USER32.dll
 0001:000703cc       _GetDeviceCaps@8           004713cc f   gdi32:GDI32.dll
 0001:000703d2       _CombineRgn@16             004713d2 f   gdi32:GDI32.dll
 0001:000703d8       _CreateBitmap@20           004713d8 f   gdi32:GDI32.dll
 0001:000703de       _CreateCompatibleBitmap@12 004713de f   gdi32:GDI32.dll
 0001:000703e4       _CreateRectRgn@16          004713e4 f   gdi32:GDI32.dll
 0001:000703ea       _DeleteDC@4                004713ea f   gdi32:GDI32.dll
 0001:000703f0       _DeleteObject@4            004713f0 f   gdi32:GDI32.dll
 0001:000703f6       _RestoreDC@8               004713f6 f   gdi32:GDI32.dll
 0001:000703fc       _SaveDC@4                  004713fc f   gdi32:GDI32.dll
 0001:00070402       _SetBkMode@8               00471402 f   gdi32:GDI32.dll
 0001:00070408       _SetDIBitsToDevice@48      00471408 f   gdi32:GDI32.dll
 0001:0007040e       _SetTextAlign@8            0047140e f   gdi32:GDI32.dll
 0001:00070414       _UpdateColors@4            00471414 f   gdi32:GDI32.dll
 0001:0007041a       _GetEnhMetaFileHeader@12   0047141a f   gdi32:GDI32.dll
 0001:00070420       _PlayEnhMetaFile@12        00471420 f   gdi32:GDI32.dll
 0001:00070426       _CreateDIBSection@24       00471426 f   gdi32:GDI32.dll
 0001:0007042c       _CreatePolygonRgn@12       0047142c f   gdi32:GDI32.dll
 0001:00070432       _LPtoDP@12                 00471432 f   gdi32:GDI32.dll
 0001:00070438       _GdiFlush@0                00471438 f   gdi32:GDI32.dll
 0001:0007043e       _CreateDCA@16              0047143e f   gdi32:GDI32.dll
 0001:00070444       _BitBlt@36                 00471444 f   gdi32:GDI32.dll
 0001:0007044a       _CreateCompatibleDC@4      0047144a f   gdi32:GDI32.dll
 0001:00070450       _SelectObject@8            00471450 f   gdi32:GDI32.dll
 0001:00070456       _CreatePalette@4           00471456 f   gdi32:GDI32.dll
 0001:0007045c       _CreatePen@12              0047145c f   gdi32:GDI32.dll
 0001:00070462       _CreateSolidBrush@4        00471462 f   gdi32:GDI32.dll
 0001:00070468       _GetStockObject@4          00471468 f   gdi32:GDI32.dll
 0001:0007046e       _RealizePalette@4          0047146e f   gdi32:GDI32.dll
 0001:00070474       _SelectPalette@12          00471474 f   gdi32:GDI32.dll
 0001:0007047a       _SetPixel@16               0047147a f   gdi32:GDI32.dll
 0001:00070480       _EqualRgn@8                00471480 f   gdi32:GDI32.dll
 0001:00070486       _GetRgnBox@8               00471486 f   gdi32:GDI32.dll
 0001:0007048c       _LineTo@12                 0047148c f   gdi32:GDI32.dll
 0001:00070492       _RectInRegion@8            00471492 f   gdi32:GDI32.dll
 0001:00070498       _SelectClipRgn@8           00471498 f   gdi32:GDI32.dll
 0001:0007049e       _MoveToEx@16               0047149e f   gdi32:GDI32.dll
 0001:000704a4       _DPtoLP@12                 004714a4 f   gdi32:GDI32.dll
 0001:000704aa       _Polygon@12                004714aa f   gdi32:GDI32.dll
 0001:000704b0       _ExtCreatePen@20           004714b0 f   gdi32:GDI32.dll
 0001:000704b6       _Arc@36                    004714b6 f   gdi32:GDI32.dll
 0001:000704bc       _Pie@36                    004714bc f   gdi32:GDI32.dll
 0001:000704c2       _PolyPolygon@16            004714c2 f   gdi32:GDI32.dll
 0001:000704c8       _Polyline@12               004714c8 f   gdi32:GDI32.dll
 0001:000704ce       _CreateFontA@56            004714ce f   gdi32:GDI32.dll
 0001:000704d4       _GetGlyphOutlineW@28       004714d4 f   gdi32:GDI32.dll
 0001:000704da       _GetTextExtentPoint32W@16  004714da f   gdi32:GDI32.dll
 0001:000704e0       _GetCharacterPlacementW@24 004714e0 f   gdi32:GDI32.dll
 0001:000704e6       _SetTextColor@8            004714e6 f   gdi32:GDI32.dll
 0001:000704ec       _GetTextMetricsA@8         004714ec f   gdi32:GDI32.dll
 0001:000704f2       _TextOutW@20               004714f2 f   gdi32:GDI32.dll
 0001:000704f8       _StretchDIBits@52          004714f8 f   gdi32:GDI32.dll
 0001:000704fe       _GetDIBits@28              004714fe f   gdi32:GDI32.dll
 0001:00070504       _ExtCreateRegion@12        00471504 f   gdi32:GDI32.dll
 0001:0007050a       _DescribePixelFormat@16    0047150a f   gdi32:GDI32.dll
 0001:00070510       _SetPixelFormat@12         00471510 f   gdi32:GDI32.dll
 0001:00070516       _RegCloseKey@4             00471516 f   advapi32:ADVAPI32.dll
 0001:0007051c       _RegOpenKeyW@12            0047151c f   advapi32:ADVAPI32.dll
 0001:00070522       _RegQueryValueExW@24       00471522 f   advapi32:ADVAPI32.dll
 0001:00070528       _DragQueryFileW@16         00471528 f   shell32:SHELL32.dll
 0001:0007052e       _OleInitialize@4           0047152e f   ole32:ole32.dll
 0001:00070534       _OleUninitialize@0         00471534 f   ole32:ole32.dll
 0001:0007053a       _RegisterDragDrop@8        0047153a f   ole32:ole32.dll
 0001:00070540       _DoDragDrop@16             00471540 f   ole32:ole32.dll
 0001:00070546       _ReleaseStgMedium@4        00471546 f   ole32:ole32.dll
 0001:0007054c       ??2@YAPAXI@Z               0047154c f   MSVCRT:new_scalar.obj
 0001:0007057f       ??3@YAXPAXI@Z              0047157f f   MSVCRT:delete_scalar_size.obj
 0001:0007058d       @__security_check_cookie@4 0047158d f   MSVCRT:_secchk_.obj
 0001:0007059e       ??3@YAXPAX@Z               0047159e f   MSVCRT:delete_scalar.obj
 0001:000705a3       ??_U@YAPAXI@Z              004715a3 f   MSVCRT:new_array.obj
 0001:000705ac       ??_V@YAXPAX@Z              004715ac f   MSVCRT:delete_array.obj
 0001:000705b1       ??1type_info@@UAE@XZ       004715b1 f   MSVCRT:std_type_info_static.obj
 0001:000705b8       ??_Gtype_info@@UAEPAXI@Z   004715b8 f i MSVCRT:std_type_info_static.obj
 0001:000705b8       ??_Etype_info@@UAEPAXI@Z   004715b8 f i MSVCRT:std_type_info_static.obj
 0001:000705db       ___raise_securityfailure   004715db f   MSVCRT:gs_report.obj
 0001:00070603       ___report_gsfailure        00471603 f   MSVCRT:gs_report.obj
 0001:000706fe       ___report_rangecheckfailure 004716fe f   MSVCRT:gs_report.obj
 0001:0007070a       ___report_securityfailure  0047170a f   MSVCRT:gs_report.obj
 0001:000707da       ___report_securityfailureEx 004717da f   MSVCRT:gs_report.obj
 0001:00070b20       ?configure_argv@__scrt_narrow_argv_policy@@SAHXZ 00471b20 f i MSVCRT:exe_winmain.obj
 0001:00070b2d       ?get_app_type@__scrt_winmain_policy@@SA?AW4_crt_app_type@@XZ 00471b2d f i MSVCRT:exe_winmain.obj
 0001:00070b52       _WinMainCRTStartup         00471b52 f   MSVCRT:exe_winmain.obj
 0001:00070b5c       ??$__crt_fast_decode_pointer@PAP6AXXZ@@YAPAP6AXXZQAP6AXXZ@Z 00471b5c f i MSVCRT:utility.obj
 0001:00070b70       ??$__crt_fast_encode_pointer@PAP6AXXZ@@YAPAP6AXXZQAP6AXXZ@Z 00471b70 f i MSVCRT:utility.obj
 0001:00070b8d       ?__crt_rotate_pointer_value@@YAIIH@Z 00471b8d f i MSVCRT:utility.obj
 0001:00070c11       _NtCurrentTeb              00471c11 f i MSVCRT:utility.obj
 0001:00070c18       ___scrt_acquire_startup_lock 00471c18 f   MSVCRT:utility.obj
 0001:00070c4d       ___scrt_dllmain_after_initialize_c 00471c4d f   MSVCRT:utility.obj
 0001:00070c78       ___scrt_dllmain_before_initialize_c 00471c78 f   MSVCRT:utility.obj
 0001:00070c86       ___scrt_dllmain_crt_thread_attach 00471c86 f   MSVCRT:utility.obj
 0001:00070ca5       ___scrt_dllmain_crt_thread_detach 00471ca5 f   MSVCRT:utility.obj
 0001:00070cb2       ___scrt_dllmain_exception_filter 00471cb2 f   MSVCRT:utility.obj
 0001:00070ce5       ___scrt_dllmain_uninitialize_c 00471ce5 f   MSVCRT:utility.obj
 0001:00070d08       ___scrt_dllmain_uninitialize_critical 00471d08 f   MSVCRT:utility.obj
 0001:00070d15       ___scrt_initialize_crt     00471d15 f   MSVCRT:utility.obj
 0001:00070d4e       ___scrt_initialize_onexit_tables 00471d4e f   MSVCRT:utility.obj
 0001:00070de5       ___scrt_is_nonwritable_in_current_image 00471de5 f   MSVCRT:utility.obj
 0001:00070e6f       ___scrt_release_startup_lock 00471e6f f   MSVCRT:utility.obj
 0001:00070e8c       ___scrt_uninitialize_crt   00471e8c f   MSVCRT:utility.obj
 0001:00070eb4       __onexit                   00471eb4 f   MSVCRT:utility.obj
 0001:00070eef       _at_quick_exit             00471eef f   MSVCRT:utility.obj
 0001:00070f20       _atexit                    00471f20 f   MSVCRT:utility.obj
 0001:00070ff5       ??$__crt_fast_decode_pointer@P6GHPAU_RTL_CONDITION_VARIABLE@@PAU_RTL_CRITICAL_SECTION@@K@Z@@YAP6GHPAU_RTL_CONDITION_VARIABLE@@PAU_RTL_CRITICAL_SECTION@@K@ZQ6GH01K@Z@Z 00471ff5 f i MSVCRT:thread_safe_statics.obj
 0001:00071009       ??$__crt_fast_decode_pointer@P6GXPAU_RTL_CONDITION_VARIABLE@@@Z@@YAP6GXPAU_RTL_CONDITION_VARIABLE@@@ZQ6GX0@Z@Z 00472009 f i MSVCRT:thread_safe_statics.obj
 0001:0007101d       ??$__crt_fast_encode_pointer@P6GHPAU_RTL_CONDITION_VARIABLE@@PAU_RTL_CRITICAL_SECTION@@K@Z@@YAP6GHPAU_RTL_CONDITION_VARIABLE@@PAU_RTL_CRITICAL_SECTION@@K@ZQ6GH01K@Z@Z 0047201d f i MSVCRT:thread_safe_statics.obj
 0001:0007103a       ??$__crt_fast_encode_pointer@P6GXPAU_RTL_CONDITION_VARIABLE@@@Z@@YAP6GXPAU_RTL_CONDITION_VARIABLE@@@ZQ6GX0@Z@Z 0047203a f i MSVCRT:thread_safe_statics.obj
 0001:00071073       __Init_thread_abort        00472073 f   MSVCRT:thread_safe_statics.obj
 0001:0007108c       __Init_thread_footer       0047208c f   MSVCRT:thread_safe_statics.obj
 0001:000710cb       __Init_thread_header       004720cb f   MSVCRT:thread_safe_statics.obj
 0001:00071111       __Init_thread_lock         00472111 f   MSVCRT:thread_safe_statics.obj
 0001:0007111d       __Init_thread_notify       0047211d f   MSVCRT:thread_safe_statics.obj
 0001:0007115e       __Init_thread_unlock       0047215e f   MSVCRT:thread_safe_statics.obj
 0001:0007116a       __Init_thread_wait         0047216a f   MSVCRT:thread_safe_statics.obj
 0001:000711d0       __ftoui3                   004721d0 f   MSVCRT:_ftol3_.obj
 0001:000711df       __ftoul3                   004721df f   MSVCRT:_ftol3_.obj
 0001:000711ee       __ftol3                    004721ee f   MSVCRT:_ftol3_.obj
 0001:000711fb       __ftol3_NaN                004721fb f   MSVCRT:_ftol3_.obj
 0001:00071213       __ftol3_work               00472213 f   MSVCRT:_ftol3_.obj
 0001:00071299       __ftol3_common             00472299 f   MSVCRT:_ftol3_.obj
 0001:0007135b       __ftol3_arg_error          0047235b f   MSVCRT:_ftol3_.obj
 0001:0007136d       __ftol3_except             0047236d f   MSVCRT:_ftol3_.obj
 0001:000713b1       __dtoui3                   004723b1 f   MSVCRT:_ftol3_.obj
 0001:000713c0       __dtoul3                   004723c0 f   MSVCRT:_ftol3_.obj
 0001:000713cf       __dtol3                    004723cf f   MSVCRT:_ftol3_.obj
 0001:000713dc       __dtol3_NaN                004723dc f   MSVCRT:_ftol3_.obj
 0001:000713f9       __dtol3_work               004723f9 f   MSVCRT:_ftol3_.obj
 0001:000714e0       __ultod3                   004724e0 f   MSVCRT:_ftol3_.obj
 0001:00071520       __ltod3                    00472520 f   MSVCRT:_ftol3_.obj
 0001:00071550       __allshr                   00472550 f   MSVCRT:llshr.obj
 0001:00071580       __ftol2_sse                00472580 f   MSVCRT:_ftol2_.obj
 0001:00071589       __ftol2_pentium4           00472589 f   MSVCRT:_ftol2_.obj
 0001:0007159c       __ftol2_sse_excpt          0047259c f   MSVCRT:_ftol2_.obj
 0001:000715c0       __ftol2                    004725c0 f   MSVCRT:_ftol2_.obj
 0001:00071640       __alloca_probe             00472640 f   MSVCRT:chkstk.obj
 0001:00071640       __chkstk                   00472640 f   MSVCRT:chkstk.obj
 0001:0007166d       ??0bad_alloc@std@@AAE@QBD@Z 0047266d f i MSVCRT:throw_bad_alloc.obj
 0001:0007168a       ??0bad_alloc@std@@QAE@ABV01@@Z 0047268a f i MSVCRT:throw_bad_alloc.obj
 0001:000716a5       ??0bad_alloc@std@@QAE@XZ   004726a5 f i MSVCRT:throw_bad_alloc.obj
 0001:000716bd       ??0bad_array_new_length@std@@QAE@ABV01@@Z 004726bd f i MSVCRT:throw_bad_alloc.obj
 0001:000716d8       ??0bad_array_new_length@std@@QAE@XZ 004726d8 f i MSVCRT:throw_bad_alloc.obj
 0001:000716f0       ??0exception@std@@QAE@QBDH@Z 004726f0 f i MSVCRT:throw_bad_alloc.obj
 0001:0007170d       ??1bad_alloc@std@@UAE@XZ   0047270d f i MSVCRT:throw_bad_alloc.obj
 0001:0007171e       ??1bad_array_new_length@std@@UAE@XZ 0047271e f i MSVCRT:throw_bad_alloc.obj
 0001:0007172f       ??_Ebad_alloc@std@@UAEPAXI@Z 0047272f f i MSVCRT:throw_bad_alloc.obj
 0001:0007172f       ??_Gbad_alloc@std@@UAEPAXI@Z 0047272f f i MSVCRT:throw_bad_alloc.obj
 0001:0007175c       ??_Ebad_array_new_length@std@@UAEPAXI@Z 0047275c f i MSVCRT:throw_bad_alloc.obj
 0001:0007175c       ??_Gbad_array_new_length@std@@UAEPAXI@Z 0047275c f i MSVCRT:throw_bad_alloc.obj
 0001:00071789       ?__scrt_throw_std_bad_alloc@@YAXXZ 00472789 f   MSVCRT:throw_bad_alloc.obj
 0001:000717a6       ?__scrt_throw_std_bad_array_new_length@@YAXXZ 004727a6 f   MSVCRT:throw_bad_alloc.obj
 0001:000717c3       ___security_init_cookie    004727c3 f   MSVCRT:gs_support.obj
 0001:0007185f       __matherr                  0047285f f   MSVCRT:matherr.obj
 0001:00071862       __get_startup_argv_mode    00472862 f   MSVCRT:argv_mode.obj
 0001:00071866       __get_startup_commit_mode  00472866 f   MSVCRT:commit_mode.obj
 0001:00071869       __get_startup_file_mode    00472869 f   MSVCRT:file_mode.obj
 0001:0007186f       __get_startup_new_mode     0047286f f   MSVCRT:new_mode.obj
 0001:00071872       __get_startup_thread_locale_mode 00472872 f   MSVCRT:thread_locale.obj
 0001:00071875       ?__scrt_initialize_type_info@@YAXXZ 00472875 f   MSVCRT:tncleanup.obj
 0001:00071881       ?__scrt_uninitialize_type_info@@YAXXZ 00472881 f   MSVCRT:tncleanup.obj
 0001:0007188d       __should_initialize_environment 0047288d f   MSVCRT:env_mode.obj
 0001:00071890       __initialize_default_precision 00472890 f   MSVCRT:default_precision.obj
 0001:000718b1       __initialize_invalid_parameter_handler 004728b1 f   MSVCRT:invalid_parameter_handler.obj
 0001:000718b2       __initialize_denormal_control 004728b2 f   MSVCRT:denormal_control.obj
 0001:000718b3       ___scrt_initialize_default_local_stdio_options 004728b3 f   MSVCRT:default_local_stdio_options.obj
 0001:000718d0       ___scrt_is_user_matherr_present 004728d0 f   MSVCRT:matherr_detection.obj
 0001:000718dc       ___scrt_get_dyn_tls_init_callback 004728dc f   MSVCRT:dyn_tls_init.obj
 0001:000718e2       ___scrt_get_dyn_tls_dtor_callback 004728e2 f   MSVCRT:dyn_tls_dtor.obj
 0001:000718e8       ___scrt_fastfail           004728e8 f   MSVCRT:utility_desktop.obj
 0001:00071a03       ___scrt_get_show_window_mode 00472a03 f   MSVCRT:utility_desktop.obj
 0001:00071a36       ___scrt_initialize_winrt   00472a36 f   MSVCRT:utility_desktop.obj
 0001:00071a39       ___scrt_is_managed_app     00472a39 f   MSVCRT:utility_desktop.obj
 0001:00071a7d       ___scrt_set_unhandled_exception_filter 00472a7d f   MSVCRT:utility_desktop.obj
 0001:00071a89       ___scrt_unhandled_exception_filter@4 00472a89 f   MSVCRT:utility_desktop.obj
 0001:00071aca       __crt_debugger_hook        00472aca f   MSVCRT:utility_desktop.obj
 0001:00071ad2       __RTC_Initialize           00472ad2 f   MSVCRT:_initsect_.obj
 0001:00071afd       __RTC_Terminate            00472afd f   MSVCRT:_initsect_.obj
 0001:00071b28       @_guard_check_icall@4      00472b28 f i MSVCRT:checkcfg.obj
 0001:00071b30       __SEH_prolog4              00472b30 f   MSVCRT:_sehprolg4_.obj
 0001:00071b76       __SEH_epilog4              00472b76 f   MSVCRT:_sehprolg4_.obj
 0001:00071b8b       __except_handler4          00472b8b f   MSVCRT:_chandler4gs_.obj
 0001:00071bae       ___isa_available_init      00472bae f   MSVCRT:_cpu_disp_.obj
 0001:00071d48       ___scrt_is_ucrt_dll_in_use 00472d48 f   MSVCRT:ucrt_detection.obj
 0001:00071d54       @_guard_check_icall_nop@4  00472d54 f i MSVCRT:guard_support.obj
 0001:00071d55       __guard_icall_checks_enforced 00472d55 f i MSVCRT:guard_support.obj
 0001:00071d68       ?_Xbad_alloc@std@@YAXXZ    00472d68 f   msvcprt:MSVCP140.dll
 0001:00071d6e       ?_Xlength_error@std@@YAXPBD@Z 00472d6e f   msvcprt:MSVCP140.dll
 0001:00071d74       ?_Xout_of_range@std@@YAXPBD@Z 00472d74 f   msvcprt:MSVCP140.dll
 0001:00071d7a       ?uncaught_exception@std@@YA_NXZ 00472d7a f   msvcprt:MSVCP140.dll
 0001:00071d80       ?sputc@?$basic_streambuf@DU?$char_traits@D@std@@@std@@QAEHD@Z 00472d80 f   msvcprt:MSVCP140.dll
 0001:00071d86       ?sputn@?$basic_streambuf@DU?$char_traits@D@std@@@std@@QAE_JPBD_J@Z 00472d86 f   msvcprt:MSVCP140.dll
 0001:00071d8c       ?setstate@?$basic_ios@DU?$char_traits@D@std@@@std@@QAEXH_N@Z 00472d8c f   msvcprt:MSVCP140.dll
 0001:00071d92       ?_Osfx@?$basic_ostream@DU?$char_traits@D@std@@@std@@QAEXXZ 00472d92 f   msvcprt:MSVCP140.dll
 0001:00071d98       ??6?$basic_ostream@DU?$char_traits@D@std@@@std@@QAEAAV01@N@Z 00472d98 f   msvcprt:MSVCP140.dll
 0001:00071d9e       ?flush@?$basic_ostream@DU?$char_traits@D@std@@@std@@QAEAAV12@XZ 00472d9e f   msvcprt:MSVCP140.dll
 0001:00071da4       ?get@?$basic_istream@DU?$char_traits@D@std@@@std@@QAEHXZ 00472da4 f   msvcprt:MSVCP140.dll
 0001:00071daa       ?peek@?$basic_istream@DU?$char_traits@D@std@@@std@@QAEHXZ 00472daa f   msvcprt:MSVCP140.dll
 0001:00071db0       ??0_Lockit@std@@QAE@H@Z    00472db0 f   msvcprt:MSVCP140.dll
 0001:00071db6       ??1_Lockit@std@@QAE@XZ     00472db6 f   msvcprt:MSVCP140.dll
 0001:00071dbc       ??0_Fac_node@std@@QAE@PAU01@PAV_Facet_base@1@@Z 00472dbc f i msvcprt:locale0_implib.obj
 0001:00071dd0       ??1_Fac_node@std@@QAE@XZ   00472dd0 f i msvcprt:locale0_implib.obj
 0001:00071e2f       ??1_Fac_tidy_reg_t@std@@QAE@XZ 00472e2f f i msvcprt:locale0_implib.obj
 0001:00071e56       ??_G_Fac_node@std@@QAEPAXI@Z 00472e56 f i msvcprt:locale0_implib.obj
 0001:00071e78       ?_Facet_Register@std@@YAXPAV_Facet_base@1@@Z 00472e78 f   msvcprt:locale0_implib.obj
 0001:00071ea6       ??Bid@locale@std@@QAEIXZ   00472ea6 f   msvcprt:MSVCP140.dll
 0001:00071eac       ?_Getgloballocale@locale@std@@CAPAV_Locimp@12@XZ 00472eac f   msvcprt:MSVCP140.dll
 0001:00071eb2       ?always_noconv@codecvt_base@std@@QBE_NXZ 00472eb2 f   msvcprt:MSVCP140.dll
 0001:00071eb8       ?in@?$codecvt@DDU_Mbstatet@@@std@@QBEHAAU_Mbstatet@@PBD1AAPBDPAD3AAPAD@Z 00472eb8 f   msvcprt:MSVCP140.dll
 0001:00071ebe       ?out@?$codecvt@DDU_Mbstatet@@@std@@QBEHAAU_Mbstatet@@PBD1AAPBDPAD3AAPAD@Z 00472ebe f   msvcprt:MSVCP140.dll
 0001:00071ec4       ?unshift@?$codecvt@DDU_Mbstatet@@@std@@QBEHAAU_Mbstatet@@PAD1AAPAD@Z 00472ec4 f   msvcprt:MSVCP140.dll
 0001:00071eca       ?_Getcat@?$codecvt@DDU_Mbstatet@@@std@@SAIPAPBVfacet@locale@2@PBV42@@Z 00472eca f   msvcprt:MSVCP140.dll
 0001:00071ed0       ??0?$basic_streambuf@DU?$char_traits@D@std@@@std@@IAE@XZ 00472ed0 f   msvcprt:MSVCP140.dll
 0001:00071ed6       ??1?$basic_streambuf@DU?$char_traits@D@std@@@std@@UAE@XZ 00472ed6 f   msvcprt:MSVCP140.dll
 0001:00071edc       ?getloc@?$basic_streambuf@DU?$char_traits@D@std@@@std@@QBE?AVlocale@2@XZ 00472edc f   msvcprt:MSVCP140.dll
 0001:00071ee2       ?_Pninc@?$basic_streambuf@DU?$char_traits@D@std@@@std@@IAEPADXZ 00472ee2 f   msvcprt:MSVCP140.dll
 0001:00071ee8       ?_Init@?$basic_streambuf@DU?$char_traits@D@std@@@std@@IAEXXZ 00472ee8 f   msvcprt:MSVCP140.dll
 0001:00071eee       ??1?$basic_ios@DU?$char_traits@D@std@@@std@@UAE@XZ 00472eee f   msvcprt:MSVCP140.dll
 0001:00071ef4       ?widen@?$basic_ios@DU?$char_traits@D@std@@@std@@QBEDD@Z 00472ef4 f   msvcprt:MSVCP140.dll
 0001:00071efa       ??0?$basic_ios@DU?$char_traits@D@std@@@std@@IAE@XZ 00472efa f   msvcprt:MSVCP140.dll
 0001:00071f00       ??0?$basic_ostream@DU?$char_traits@D@std@@@std@@QAE@PAV?$basic_streambuf@DU?$char_traits@D@std@@@1@_N@Z 00472f00 f   msvcprt:MSVCP140.dll
 0001:00071f06       ??1?$basic_ostream@DU?$char_traits@D@std@@@std@@UAE@XZ 00472f06 f   msvcprt:MSVCP140.dll
 0001:00071f0c       ??6?$basic_ostream@DU?$char_traits@D@std@@@std@@QAEAAV01@P6AAAV01@AAV01@@Z@Z 00472f0c f   msvcprt:MSVCP140.dll
 0001:00071f12       ??6?$basic_ostream@DU?$char_traits@D@std@@@std@@QAEAAV01@I@Z 00472f12 f   msvcprt:MSVCP140.dll
 0001:00071f18       ??6?$basic_ostream@DU?$char_traits@D@std@@@std@@QAEAAV01@M@Z 00472f18 f   msvcprt:MSVCP140.dll
 0001:00071f1e       ?put@?$basic_ostream@DU?$char_traits@D@std@@@std@@QAEAAV12@D@Z 00472f1e f   msvcprt:MSVCP140.dll
 0001:00071f24       ??0?$basic_istream@DU?$char_traits@D@std@@@std@@QAE@PAV?$basic_streambuf@DU?$char_traits@D@std@@@1@_N@Z 00472f24 f   msvcprt:MSVCP140.dll
 0001:00071f2a       ??1?$basic_istream@DU?$char_traits@D@std@@@std@@UAE@XZ 00472f2a f   msvcprt:MSVCP140.dll
 0001:00071f30       ??5?$basic_istream@DU?$char_traits@D@std@@@std@@QAEAAV01@AAM@Z 00472f30 f   msvcprt:MSVCP140.dll
 0001:00071f36       ?get@?$basic_istream@DU?$char_traits@D@std@@@std@@QAEAAV12@AAD@Z 00472f36 f   msvcprt:MSVCP140.dll
 0001:00071f3c       ?_Fiopen@std@@YAPAU_iobuf@@PBDHH@Z 00472f3c f   msvcprt:MSVCP140.dll
 0001:00071f42       ?_Lock@?$basic_streambuf@DU?$char_traits@D@std@@@std@@UAEXXZ 00472f42 f   msvcprt:MSVCP140.dll
 0001:00071f48       ?_Unlock@?$basic_streambuf@DU?$char_traits@D@std@@@std@@UAEXXZ 00472f48 f   msvcprt:MSVCP140.dll
 0001:00071f4e       ?imbue@?$basic_streambuf@DU?$char_traits@D@std@@@std@@MAEXABVlocale@2@@Z 00472f4e f   msvcprt:MSVCP140.dll
 0001:00071f54       ?setbuf@?$basic_streambuf@DU?$char_traits@D@std@@@std@@MAEPAV12@PAD_J@Z 00472f54 f   msvcprt:MSVCP140.dll
 0001:00071f5a       ?showmanyc@?$basic_streambuf@DU?$char_traits@D@std@@@std@@MAE_JXZ 00472f5a f   msvcprt:MSVCP140.dll
 0001:00071f60       ?sync@?$basic_streambuf@DU?$char_traits@D@std@@@std@@MAEHXZ 00472f60 f   msvcprt:MSVCP140.dll
 0001:00071f66       ?uflow@?$basic_streambuf@DU?$char_traits@D@std@@@std@@MAEHXZ 00472f66 f   msvcprt:MSVCP140.dll
 0001:00071f6c       ?xsgetn@?$basic_streambuf@DU?$char_traits@D@std@@@std@@MAE_JPAD_J@Z 00472f6c f   msvcprt:MSVCP140.dll
 0001:00071f72       ?xsputn@?$basic_streambuf@DU?$char_traits@D@std@@@std@@MAE_JPBD_J@Z 00472f72 f   msvcprt:MSVCP140.dll
 0001:00071f78       __TrackMouseEvent@4        00472f78 f   comctl32:COMCTL32.dll
 0001:00071f7e       _strchr                    00472f7e f   vcruntime:VCRUNTIME140.dll
 0001:00071f84       ___CxxFrameHandler3        00472f84 f   vcruntime:VCRUNTIME140.dll
 0001:00071f8a       _memmove                   00472f8a f   vcruntime:VCRUNTIME140.dll
 0001:00071f90       __CxxThrowException@8      00472f90 f   vcruntime:VCRUNTIME140.dll
 0001:00071f96       _memcpy                    00472f96 f   vcruntime:VCRUNTIME140.dll
 0001:00071f9c       _memset                    00472f9c f   vcruntime:VCRUNTIME140.dll
 0001:00071fa2       ___std_terminate           00472fa2 f   vcruntime:VCRUNTIME140.dll
 0001:00071fa8       __purecall                 00472fa8 f   vcruntime:VCRUNTIME140.dll
 0001:00071fae       ___std_exception_copy      00472fae f   vcruntime:VCRUNTIME140.dll
 0001:00071fb4       ___std_exception_destroy   00472fb4 f   vcruntime:VCRUNTIME140.dll
 0001:00071fba       _strrchr                   00472fba f   vcruntime:VCRUNTIME140.dll
 0001:00071fc0       _memcmp                    00472fc0 f   vcruntime:VCRUNTIME140.dll
 0001:00071fc6       _strstr                    00472fc6 f   vcruntime:VCRUNTIME140.dll
 0001:00071fcc       ___vcrt_InitializeCriticalSectionEx 00472fcc f   vcruntime:VCRUNTIME140.dll
 0001:00071fd2       ___std_type_info_destroy_list 00472fd2 f   vcruntime:VCRUNTIME140.dll
 0001:00071fd8       __except_handler4_common   00472fd8 f   vcruntime:VCRUNTIME140.dll
 0001:00071fde       _ispunct                   00472fde f   ucrt:api-ms-win-crt-string-l1-1-0.dll
 0001:00071fe4       _isalnum                   00472fe4 f   ucrt:api-ms-win-crt-string-l1-1-0.dll
 0001:00071fea       ___acrt_iob_func           00472fea f   ucrt:api-ms-win-crt-stdio-l1-1-0.dll
 0001:00071ff0       ___stdio_common_vfprintf   00472ff0 f   ucrt:api-ms-win-crt-stdio-l1-1-0.dll
 0001:00071ff6       _exit                      00472ff6 f   ucrt:api-ms-win-crt-runtime-l1-1-0.dll
 0001:00071ffc       _atoi                      00472ffc f   ucrt:api-ms-win-crt-convert-l1-1-0.dll
 0001:00072002       _clock                     00473002 f   ucrt:api-ms-win-crt-time-l1-1-0.dll
 0001:00072008       __invalid_parameter_noinfo_noreturn 00473008 f   ucrt:api-ms-win-crt-runtime-l1-1-0.dll
 0001:0007200e       ___stdio_common_vsprintf   0047300e f   ucrt:api-ms-win-crt-stdio-l1-1-0.dll
 0001:00072014       _fclose                    00473014 f   ucrt:api-ms-win-crt-stdio-l1-1-0.dll
 0001:0007201a       _fopen                     0047301a f   ucrt:api-ms-win-crt-stdio-l1-1-0.dll
 0001:00072020       _fread                     00473020 f   ucrt:api-ms-win-crt-stdio-l1-1-0.dll
 0001:00072026       _fseek                     00473026 f   ucrt:api-ms-win-crt-stdio-l1-1-0.dll
 0001:0007202c       _fwrite                    0047302c f   ucrt:api-ms-win-crt-stdio-l1-1-0.dll
 0001:00072032       _atof                      00473032 f   ucrt:api-ms-win-crt-convert-l1-1-0.dll
 0001:00072038       __invalid_parameter_noinfo 00473038 f   ucrt:api-ms-win-crt-runtime-l1-1-0.dll
 0001:0007203e       _free                      0047303e f   ucrt:api-ms-win-crt-heap-l1-1-0.dll
 0001:00072044       _malloc                    00473044 f   ucrt:api-ms-win-crt-heap-l1-1-0.dll
 0001:0007204a       __errno                    0047304a f   ucrt:api-ms-win-crt-runtime-l1-1-0.dll
 0001:00072050       __get_stream_buffer_pointers 00473050 f   ucrt:api-ms-win-crt-stdio-l1-1-0.dll
 0001:00072056       _fflush                    00473056 f   ucrt:api-ms-win-crt-stdio-l1-1-0.dll
 0001:0007205c       _fgetc                     0047305c f   ucrt:api-ms-win-crt-stdio-l1-1-0.dll
 0001:00072062       _fgetpos                   00473062 f   ucrt:api-ms-win-crt-stdio-l1-1-0.dll
 0001:00072068       _fputc                     00473068 f   ucrt:api-ms-win-crt-stdio-l1-1-0.dll
 0001:0007206e       _fsetpos                   0047306e f   ucrt:api-ms-win-crt-stdio-l1-1-0.dll
 0001:00072074       __fseeki64                 00473074 f   ucrt:api-ms-win-crt-stdio-l1-1-0.dll
 0001:0007207a       _setvbuf                   0047307a f   ucrt:api-ms-win-crt-stdio-l1-1-0.dll
 0001:00072080       _ungetc                    00473080 f   ucrt:api-ms-win-crt-stdio-l1-1-0.dll
 0001:00072086       __lock_file                00473086 f   ucrt:api-ms-win-crt-filesystem-l1-1-0.dll
 0001:0007208c       __unlock_file              0047308c f   ucrt:api-ms-win-crt-filesystem-l1-1-0.dll
 0001:00072092       __libm_sse2_cos_precise    00473092 f   ucrt:api-ms-win-crt-math-l1-1-0.dll
 0001:00072098       __libm_sse2_sin_precise    00473098 f   ucrt:api-ms-win-crt-math-l1-1-0.dll
 0001:0007209e       __libm_sse2_sqrt_precise   0047309e f   ucrt:api-ms-win-crt-math-l1-1-0.dll
 0001:000720a4       __libm_sse2_tan_precise    004730a4 f   ucrt:api-ms-win-crt-math-l1-1-0.dll
 0001:000720aa       _isalpha                   004730aa f   ucrt:api-ms-win-crt-string-l1-1-0.dll
 0001:000720b0       _isupper                   004730b0 f   ucrt:api-ms-win-crt-string-l1-1-0.dll
 0001:000720b6       _toupper                   004730b6 f   ucrt:api-ms-win-crt-string-l1-1-0.dll
 0001:000720bc       _tolower                   004730bc f   ucrt:api-ms-win-crt-string-l1-1-0.dll
 0001:000720c2       _wcslen                    004730c2 f   ucrt:api-ms-win-crt-string-l1-1-0.dll
 0001:000720c8       _strcmp                    004730c8 f   ucrt:api-ms-win-crt-string-l1-1-0.dll
 0001:000720ce       __strdup                   004730ce f   ucrt:api-ms-win-crt-string-l1-1-0.dll
 0001:000720d4       _strlen                    004730d4 f   ucrt:api-ms-win-crt-string-l1-1-0.dll
 0001:000720da       _realloc                   004730da f   ucrt:api-ms-win-crt-heap-l1-1-0.dll
 0001:000720e0       _abs                       004730e0 f   ucrt:api-ms-win-crt-utility-l1-1-0.dll
 0001:000720e6       _atol                      004730e6 f   ucrt:api-ms-win-crt-convert-l1-1-0.dll
 0001:000720ec       _raise                     004730ec f   ucrt:api-ms-win-crt-runtime-l1-1-0.dll
 0001:000720f2       _strcat                    004730f2 f   ucrt:api-ms-win-crt-string-l1-1-0.dll
 0001:000720f8       _strcpy                    004730f8 f   ucrt:api-ms-win-crt-string-l1-1-0.dll
 0001:000720fe       _isdigit                   004730fe f   ucrt:api-ms-win-crt-string-l1-1-0.dll
 0001:00072104       _fabs                      00473104 f   ucrt:api-ms-win-crt-math-l1-1-0.dll
 0001:0007210a       _rint                      0047310a f   ucrt:api-ms-win-crt-math-l1-1-0.dll
 0001:00072110       _fgets                     00473110 f   ucrt:api-ms-win-crt-stdio-l1-1-0.dll
 0001:00072116       _wcscpy                    00473116 f   ucrt:api-ms-win-crt-string-l1-1-0.dll
 0001:0007211c       _strcspn                   0047311c f   ucrt:api-ms-win-crt-string-l1-1-0.dll
 0001:00072122       _strncmp                   00473122 f   ucrt:api-ms-win-crt-string-l1-1-0.dll
 0001:00072128       _rand                      00473128 f   ucrt:api-ms-win-crt-utility-l1-1-0.dll
 0001:0007212e       __time64                   0047312e f   ucrt:api-ms-win-crt-time-l1-1-0.dll
 0001:00072134       _cos                       00473134 f   ucrt:api-ms-win-crt-math-l1-1-0.dll
 0001:0007213a       _sin                       0047313a f   ucrt:api-ms-win-crt-math-l1-1-0.dll
 0001:00072140       _sqrt                      00473140 f   ucrt:api-ms-win-crt-math-l1-1-0.dll
 0001:00072146       _acos                      00473146 f   ucrt:api-ms-win-crt-math-l1-1-0.dll
 0001:0007214c       _ceil                      0047314c f   ucrt:api-ms-win-crt-math-l1-1-0.dll
 0001:00072152       ___stdio_common_vsscanf    00473152 f   ucrt:api-ms-win-crt-stdio-l1-1-0.dll
 0001:00072158       _isspace                   00473158 f   ucrt:api-ms-win-crt-string-l1-1-0.dll
 0001:0007215e       _getenv                    0047315e f   ucrt:api-ms-win-crt-environment-l1-1-0.dll
 0001:00072164       __putenv                   00473164 f   ucrt:api-ms-win-crt-environment-l1-1-0.dll
 0001:0007216a       _log                       0047316a f   ucrt:api-ms-win-crt-math-l1-1-0.dll
 0001:00072170       _pow                       00473170 f   ucrt:api-ms-win-crt-math-l1-1-0.dll
 0001:00072176       __waccess                  00473176 f   ucrt:api-ms-win-crt-filesystem-l1-1-0.dll
 0001:0007217c       __wchmod                   0047317c f   ucrt:api-ms-win-crt-filesystem-l1-1-0.dll
 0001:00072182       __wunlink                  00473182 f   ucrt:api-ms-win-crt-filesystem-l1-1-0.dll
 0001:00072188       __wrename                  00473188 f   ucrt:api-ms-win-crt-filesystem-l1-1-0.dll
 0001:0007218e       __wsopen_dispatch          0047318e f   ucrt:api-ms-win-crt-stdio-l1-1-0.dll
 0001:00072194       __wexecvp                  00473194 f   ucrt:api-ms-win-crt-process-l1-1-0.dll
 0001:0007219a       __wsystem                  0047319a f   ucrt:api-ms-win-crt-runtime-l1-1-0.dll
 0001:000721a0       __wgetcwd                  004731a0 f   ucrt:api-ms-win-crt-environment-l1-1-0.dll
 0001:000721a6       __wmkdir                   004731a6 f   ucrt:api-ms-win-crt-filesystem-l1-1-0.dll
 0001:000721ac       __wrmdir                   004731ac f   ucrt:api-ms-win-crt-filesystem-l1-1-0.dll
 0001:000721b2       __wfopen                   004731b2 f   ucrt:api-ms-win-crt-stdio-l1-1-0.dll
 0001:000721b8       __wgetenv                  004731b8 f   ucrt:api-ms-win-crt-environment-l1-1-0.dll
 0001:000721be       _wcstombs                  004731be f   ucrt:api-ms-win-crt-convert-l1-1-0.dll
 0001:000721c4       __wstat64i32               004731c4 f   ucrt:api-ms-win-crt-filesystem-l1-1-0.dll
 0001:000721ca       _strncpy                   004731ca f   ucrt:api-ms-win-crt-string-l1-1-0.dll
 0001:000721d0       _strtol                    004731d0 f   ucrt:api-ms-win-crt-convert-l1-1-0.dll
 0001:000721d6       _isxdigit                  004731d6 f   ucrt:api-ms-win-crt-string-l1-1-0.dll
 0001:000721dc       _localeconv                004731dc f   ucrt:api-ms-win-crt-locale-l1-1-0.dll
 0001:000721e2       __stricmp                  004731e2 f   ucrt:api-ms-win-crt-string-l1-1-0.dll
 0001:000721e8       _strerror                  004731e8 f   ucrt:api-ms-win-crt-runtime-l1-1-0.dll
 0001:000721ee       __strnicmp                 004731ee f   ucrt:api-ms-win-crt-string-l1-1-0.dll
 0001:000721f4       _isprint                   004731f4 f   ucrt:api-ms-win-crt-string-l1-1-0.dll
 0001:000721fa       __mkdir                    004731fa f   ucrt:api-ms-win-crt-filesystem-l1-1-0.dll
 0001:00072200       __access                   00473200 f   ucrt:api-ms-win-crt-filesystem-l1-1-0.dll
 0001:00072206       _calloc                    00473206 f   ucrt:api-ms-win-crt-heap-l1-1-0.dll
 0001:0007220c       _bsearch                   0047320c f   ucrt:api-ms-win-crt-utility-l1-1-0.dll
 0001:00072212       _qsort                     00473212 f   ucrt:api-ms-win-crt-utility-l1-1-0.dll
 0001:00072218       _islower                   00473218 f   ucrt:api-ms-win-crt-string-l1-1-0.dll
 0001:0007221e       __callnewh                 0047321e f   ucrt:api-ms-win-crt-heap-l1-1-0.dll
 0001:00072224       __seh_filter_exe           00473224 f   ucrt:api-ms-win-crt-runtime-l1-1-0.dll
 0001:0007222a       __set_app_type             0047322a f   ucrt:api-ms-win-crt-runtime-l1-1-0.dll
 0001:00072230       ___setusermatherr          00473230 f   ucrt:api-ms-win-crt-math-l1-1-0.dll
 0001:00072236       __configure_narrow_argv    00473236 f   ucrt:api-ms-win-crt-runtime-l1-1-0.dll
 0001:0007223c       __initialize_narrow_environment 0047323c f   ucrt:api-ms-win-crt-runtime-l1-1-0.dll
 0001:00072242       __get_narrow_winmain_command_line 00473242 f   ucrt:api-ms-win-crt-runtime-l1-1-0.dll
 0001:00072248       __initterm                 00473248 f   ucrt:api-ms-win-crt-runtime-l1-1-0.dll
 0001:0007224e       __initterm_e               0047324e f   ucrt:api-ms-win-crt-runtime-l1-1-0.dll
 0001:00072254       __exit                     00473254 f   ucrt:api-ms-win-crt-runtime-l1-1-0.dll
 0001:0007225a       __set_fmode                0047325a f   ucrt:api-ms-win-crt-stdio-l1-1-0.dll
 0001:00072260       __cexit                    00473260 f   ucrt:api-ms-win-crt-runtime-l1-1-0.dll
 0001:00072266       __c_exit                   00473266 f   ucrt:api-ms-win-crt-runtime-l1-1-0.dll
 0001:0007226c       __register_thread_local_exe_atexit_callback 0047326c f   ucrt:api-ms-win-crt-runtime-l1-1-0.dll
 0001:00072272       __configthreadlocale       00473272 f   ucrt:api-ms-win-crt-locale-l1-1-0.dll
 0001:00072278       __set_new_mode             00473278 f   ucrt:api-ms-win-crt-heap-l1-1-0.dll
 0001:0007227e       ___p__commode              0047327e f   ucrt:api-ms-win-crt-stdio-l1-1-0.dll
 0001:00072284       __seh_filter_dll           00473284 f   ucrt:api-ms-win-crt-runtime-l1-1-0.dll
 0001:0007228a       __initialize_onexit_table  0047328a f   ucrt:api-ms-win-crt-runtime-l1-1-0.dll
 0001:00072290       __register_onexit_function 00473290 f   ucrt:api-ms-win-crt-runtime-l1-1-0.dll
 0001:00072296       __execute_onexit_table     00473296 f   ucrt:api-ms-win-crt-runtime-l1-1-0.dll
 0001:0007229c       __crt_atexit               0047329c f   ucrt:api-ms-win-crt-runtime-l1-1-0.dll
 0001:000722a2       __crt_at_quick_exit        004732a2 f   ucrt:api-ms-win-crt-runtime-l1-1-0.dll
 0001:000722a8       __except1                  004732a8 f   ucrt:api-ms-win-crt-math-l1-1-0.dll
 0001:000722ae       __controlfp_s              004732ae f   ucrt:api-ms-win-crt-runtime-l1-1-0.dll
 0001:000722b4       _terminate                 004732b4 f   ucrt:api-ms-win-crt-runtime-l1-1-0.dll
 0001:000722c0       _WinMain@16                004732c0 f   fltk:fl_call_main.obj
 0001:0007250c       _UnhandledExceptionFilter@4 0047350c f   kernel32:KERNEL32.dll
 0001:00072512       _SetUnhandledExceptionFilter@4 00473512 f   kernel32:KERNEL32.dll
 0001:00072518       _GetCurrentProcess@0       00473518 f   kernel32:KERNEL32.dll
 0001:0007251e       _TerminateProcess@8        0047351e f   kernel32:KERNEL32.dll
 0001:00072524       _IsProcessorFeaturePresent@4 00473524 f   kernel32:KERNEL32.dll
 0001:0007252a       _CloseHandle@4             0047352a f   kernel32:KERNEL32.dll
 0001:00072530       _DeleteCriticalSection@4   00473530 f   kernel32:KERNEL32.dll
 0001:00072536       _SetEvent@4                00473536 f   kernel32:KERNEL32.dll
 0001:0007253c       _ResetEvent@4              0047353c f   kernel32:KERNEL32.dll
 0001:00072542       _WaitForSingleObjectEx@12  00473542 f   kernel32:KERNEL32.dll
 0001:00072548       _CreateEventW@16           00473548 f   kernel32:KERNEL32.dll
 0001:0007254e       _GetModuleHandleW@4        0047354e f   kernel32:KERNEL32.dll
 0001:00072554       _QueryPerformanceCounter@4 00473554 f   kernel32:KERNEL32.dll
 0001:0007255a       _GetCurrentProcessId@0     0047355a f   kernel32:KERNEL32.dll
 0001:00072560       _GetSystemTimeAsFileTime@4 00473560 f   kernel32:KERNEL32.dll
 0001:00072566       _InitializeSListHead@4     00473566 f   kernel32:KERNEL32.dll
 0001:0007256c       _IsDebuggerPresent@0       0047356c f   kernel32:KERNEL32.dll
 0001:00072572       _GetStartupInfoW@4         00473572 f   kernel32:KERNEL32.dll
 0001:00072578       _mbstowcs                  00473578 f   ucrt:api-ms-win-crt-convert-l1-1-0.dll
 0001:0007257e       ___p___argc                0047357e f   ucrt:api-ms-win-crt-runtime-l1-1-0.dll
 0001:00072584       ___p___argv                00473584 f   ucrt:api-ms-win-crt-runtime-l1-1-0.dll
 0001:0007258a       ___p___wargv               0047358a f   ucrt:api-ms-win-crt-runtime-l1-1-0.dll
 0001:00072590       ___vcrt_initialize         00473590 f   MSVCRT:ucrt_stubs.obj
 0001:00072590       ___acrt_initialize         00473590 f   MSVCRT:ucrt_stubs.obj
 0001:00072590       ___scrt_stub_for_acrt_initialize 00473590 f   MSVCRT:ucrt_stubs.obj
 0001:00072593       ___vcrt_thread_attach      00473593 f   MSVCRT:ucrt_stubs.obj
 0001:00072593       ___acrt_thread_attach      00473593 f   MSVCRT:ucrt_stubs.obj
 0001:00072593       ___scrt_stub_for_acrt_thread_attach 00473593 f   MSVCRT:ucrt_stubs.obj
 0001:00072596       ___vcrt_thread_detach      00473596 f   MSVCRT:ucrt_stubs.obj
 0001:00072596       ___acrt_thread_detach      00473596 f   MSVCRT:ucrt_stubs.obj
 0001:00072596       ___scrt_stub_for_acrt_thread_detach 00473596 f   MSVCRT:ucrt_stubs.obj
 0001:00072599       ___vcrt_uninitialize       00473599 f   MSVCRT:ucrt_stubs.obj
 0001:00072599       ___scrt_stub_for_acrt_uninitialize 00473599 f   MSVCRT:ucrt_stubs.obj
 0001:00072599       ___acrt_uninitialize       00473599 f   MSVCRT:ucrt_stubs.obj
 0001:0007259c       ___acrt_uninitialize_critical 0047359c f   MSVCRT:ucrt_stubs.obj
 0001:0007259c       ___vcrt_uninitialize_critical 0047359c f   MSVCRT:ucrt_stubs.obj
 0001:0007259c       ___scrt_stub_for_acrt_uninitialize_critical 0047359c f   MSVCRT:ucrt_stubs.obj
 0001:0007259f       __is_c_termination_complete 0047359f f   MSVCRT:ucrt_stubs.obj
 0001:0007259f       ___scrt_stub_for_is_c_termination_complete 0047359f f   MSVCRT:ucrt_stubs.obj
 0002:00000000       __imp__RegQueryValueExW@24 00476000     advapi32:ADVAPI32.dll
 0002:00000004       __imp__RegOpenKeyW@12      00476004     advapi32:ADVAPI32.dll
 0002:00000008       __imp__RegCloseKey@4       00476008     advapi32:ADVAPI32.dll
 0002:0000000c       \177ADVAPI32_NULL_THUNK_DATA 0047600c     advapi32:ADVAPI32.dll
 0002:00000010       __imp___TrackMouseEvent@4  00476010     comctl32:COMCTL32.dll
 0002:00000014       \177COMCTL32_NULL_THUNK_DATA 00476014     comctl32:COMCTL32.dll
 0002:00000018       __imp__DescribePixelFormat@16 00476018     gdi32:GDI32.dll
 0002:0000001c       __imp__ExtCreateRegion@12  0047601c     gdi32:GDI32.dll
 0002:00000020       __imp__GetDIBits@28        00476020     gdi32:GDI32.dll
 0002:00000024       __imp__StretchDIBits@52    00476024     gdi32:GDI32.dll
 0002:00000028       __imp__TextOutW@20         00476028     gdi32:GDI32.dll
 0002:0000002c       __imp__GetTextMetricsA@8   0047602c     gdi32:GDI32.dll
 0002:00000030       __imp__SetTextColor@8      00476030     gdi32:GDI32.dll
 0002:00000034       __imp__GetCharacterPlacementW@24 00476034     gdi32:GDI32.dll
 0002:00000038       __imp__GetTextExtentPoint32W@16 00476038     gdi32:GDI32.dll
 0002:0000003c       __imp__GetGlyphOutlineW@28 0047603c     gdi32:GDI32.dll
 0002:00000040       __imp__CreateFontA@56      00476040     gdi32:GDI32.dll
 0002:00000044       __imp__Polyline@12         00476044     gdi32:GDI32.dll
 0002:00000048       __imp__PolyPolygon@16      00476048     gdi32:GDI32.dll
 0002:0000004c       __imp__Pie@36              0047604c     gdi32:GDI32.dll
 0002:00000050       __imp__Arc@36              00476050     gdi32:GDI32.dll
 0002:00000054       __imp__ExtCreatePen@20     00476054     gdi32:GDI32.dll
 0002:00000058       __imp__Polygon@12          00476058     gdi32:GDI32.dll
 0002:0000005c       __imp__DPtoLP@12           0047605c     gdi32:GDI32.dll
 0002:00000060       __imp__MoveToEx@16         00476060     gdi32:GDI32.dll
 0002:00000064       __imp__SelectClipRgn@8     00476064     gdi32:GDI32.dll
 0002:00000068       __imp__RectInRegion@8      00476068     gdi32:GDI32.dll
 0002:0000006c       __imp__LineTo@12           0047606c     gdi32:GDI32.dll
 0002:00000070       __imp__GetRgnBox@8         00476070     gdi32:GDI32.dll
 0002:00000074       __imp__EqualRgn@8          00476074     gdi32:GDI32.dll
 0002:00000078       __imp__SetPixel@16         00476078     gdi32:GDI32.dll
 0002:0000007c       __imp__SelectPalette@12    0047607c     gdi32:GDI32.dll
 0002:00000080       __imp__RealizePalette@4    00476080     gdi32:GDI32.dll
 0002:00000084       __imp__GetStockObject@4    00476084     gdi32:GDI32.dll
 0002:00000088       __imp__CreateSolidBrush@4  00476088     gdi32:GDI32.dll
 0002:0000008c       __imp__CreatePen@12        0047608c     gdi32:GDI32.dll
 0002:00000090       __imp__CreateCompatibleDC@4 00476090     gdi32:GDI32.dll
 0002:00000094       __imp__BitBlt@36           00476094     gdi32:GDI32.dll
 0002:00000098       __imp__CreateDCA@16        00476098     gdi32:GDI32.dll
 0002:0000009c       __imp__GdiFlush@0          0047609c     gdi32:GDI32.dll
 0002:000000a0       __imp__LPtoDP@12           004760a0     gdi32:GDI32.dll
 0002:000000a4       __imp__CreatePolygonRgn@12 004760a4     gdi32:GDI32.dll
 0002:000000a8       __imp__CreateDIBSection@24 004760a8     gdi32:GDI32.dll
 0002:000000ac       __imp__PlayEnhMetaFile@12  004760ac     gdi32:GDI32.dll
 0002:000000b0       __imp__GetEnhMetaFileHeader@12 004760b0     gdi32:GDI32.dll
 0002:000000b4       __imp__UpdateColors@4      004760b4     gdi32:GDI32.dll
 0002:000000b8       __imp__SetTextAlign@8      004760b8     gdi32:GDI32.dll
 0002:000000bc       __imp__SetDIBitsToDevice@48 004760bc     gdi32:GDI32.dll
 0002:000000c0       __imp__SetBkMode@8         004760c0     gdi32:GDI32.dll
 0002:000000c4       __imp__SaveDC@4            004760c4     gdi32:GDI32.dll
 0002:000000c8       __imp__RestoreDC@8         004760c8     gdi32:GDI32.dll
 0002:000000cc       __imp__DeleteObject@4      004760cc     gdi32:GDI32.dll
 0002:000000d0       __imp__DeleteDC@4          004760d0     gdi32:GDI32.dll
 0002:000000d4       __imp__CreateRectRgn@16    004760d4     gdi32:GDI32.dll
 0002:000000d8       __imp__CreateCompatibleBitmap@12 004760d8     gdi32:GDI32.dll
 0002:000000dc       __imp__CreateBitmap@20     004760dc     gdi32:GDI32.dll
 0002:000000e0       __imp__CombineRgn@16       004760e0     gdi32:GDI32.dll
 0002:000000e4       __imp__GetDeviceCaps@8     004760e4     gdi32:GDI32.dll
 0002:000000e8       __imp__CreatePalette@4     004760e8     gdi32:GDI32.dll
 0002:000000ec       __imp__SelectObject@8      004760ec     gdi32:GDI32.dll
 0002:000000f0       __imp__SetPixelFormat@12   004760f0     gdi32:GDI32.dll
 0002:000000f4       \177GDI32_NULL_THUNK_DATA  004760f4     gdi32:GDI32.dll
 0002:000000f8       __imp__GetCurrentProcessId@0 004760f8     kernel32:KERNEL32.dll
 0002:000000fc       __imp__QueryPerformanceCounter@4 004760fc     kernel32:KERNEL32.dll
 0002:00000100       __imp__GetModuleHandleW@4  00476100     kernel32:KERNEL32.dll
 0002:00000104       __imp__CreateEventW@16     00476104     kernel32:KERNEL32.dll
 0002:00000108       __imp__WaitForSingleObjectEx@12 00476108     kernel32:KERNEL32.dll
 0002:0000010c       __imp__ResetEvent@4        0047610c     kernel32:KERNEL32.dll
 0002:00000110       __imp__SetEvent@4          00476110     kernel32:KERNEL32.dll
 0002:00000114       __imp__DeleteCriticalSection@4 00476114     kernel32:KERNEL32.dll
 0002:00000118       __imp__CloseHandle@4       00476118     kernel32:KERNEL32.dll
 0002:0000011c       __imp__IsProcessorFeaturePresent@4 0047611c     kernel32:KERNEL32.dll
 0002:00000120       __imp__TerminateProcess@8  00476120     kernel32:KERNEL32.dll
 0002:00000124       __imp__GetCurrentProcess@0 00476124     kernel32:KERNEL32.dll
 0002:00000128       __imp__SetUnhandledExceptionFilter@4 00476128     kernel32:KERNEL32.dll
 0002:0000012c       __imp__UnhandledExceptionFilter@4 0047612c     kernel32:KERNEL32.dll
 0002:00000130       __imp__GetSystemTimeAsFileTime@4 00476130     kernel32:KERNEL32.dll
 0002:00000134       __imp__InitializeSListHead@4 00476134     kernel32:KERNEL32.dll
 0002:00000138       __imp__GetProcAddress@8    00476138     kernel32:KERNEL32.dll
 0002:0000013c       __imp__GlobalAlloc@8       0047613c     kernel32:KERNEL32.dll
 0002:00000140       __imp__IsDebuggerPresent@0 00476140     kernel32:KERNEL32.dll
 0002:00000144       __imp__GlobalLock@4        00476144     kernel32:KERNEL32.dll
 0002:00000148       __imp__GlobalUnlock@4      00476148     kernel32:KERNEL32.dll
 0002:0000014c       __imp__LoadLibraryA@4      0047614c     kernel32:KERNEL32.dll
 0002:00000150       __imp__GetLocaleInfoA@16   00476150     kernel32:KERNEL32.dll
 0002:00000154       __imp__GetLastError@0      00476154     kernel32:KERNEL32.dll
 0002:00000158       __imp__MultiByteToWideChar@24 00476158     kernel32:KERNEL32.dll
 0002:0000015c       __imp__WideCharToMultiByte@32 0047615c     kernel32:KERNEL32.dll
 0002:00000160       __imp__GetACP@0            00476160     kernel32:KERNEL32.dll
 0002:00000164       __imp__InitializeCriticalSection@4 00476164     kernel32:KERNEL32.dll
 0002:00000168       __imp__EnterCriticalSection@4 00476168     kernel32:KERNEL32.dll
 0002:0000016c       __imp__LeaveCriticalSection@4 0047616c     kernel32:KERNEL32.dll
 0002:00000170       __imp__GetCurrentThreadId@0 00476170     kernel32:KERNEL32.dll
 0002:00000174       __imp__GetComputerNameA@8  00476174     kernel32:KERNEL32.dll
 0002:00000178       __imp__GetLogicalDrives@0  00476178     kernel32:KERNEL32.dll
 0002:0000017c       __imp__FindClose@4         0047617c     kernel32:KERNEL32.dll
 0002:00000180       __imp__FindFirstFileW@8    00476180     kernel32:KERNEL32.dll
 0002:00000184       __imp__FindNextFileW@8     00476184     kernel32:KERNEL32.dll
 0002:00000188       __imp__GetFileAttributesA@4 00476188     kernel32:KERNEL32.dll
 0002:0000018c       __imp__GetStartupInfoW@4   0047618c     kernel32:KERNEL32.dll
 0002:00000190       __imp__GetModuleHandleA@4  00476190     kernel32:KERNEL32.dll
 0002:00000194       \177KERNEL32_NULL_THUNK_DATA 00476194     kernel32:KERNEL32.dll
 0002:00000198       __imp_??0?$basic_ostream@DU?$char_traits@D@std@@@std@@QAE@PAV?$basic_streambuf@DU?$char_traits@D@std@@@1@_N@Z 00476198     msvcprt:MSVCP140.dll
 0002:0000019c       __imp_??0?$basic_ios@DU?$char_traits@D@std@@@std@@IAE@XZ 0047619c     msvcprt:MSVCP140.dll
 0002:000001a0       __imp_?widen@?$basic_ios@DU?$char_traits@D@std@@@std@@QBEDD@Z 004761a0     msvcprt:MSVCP140.dll
 0002:000001a4       __imp_??1?$basic_ios@DU?$char_traits@D@std@@@std@@UAE@XZ 004761a4     msvcprt:MSVCP140.dll
 0002:000001a8       __imp_?_Init@?$basic_streambuf@DU?$char_traits@D@std@@@std@@IAEXXZ 004761a8     msvcprt:MSVCP140.dll
 0002:000001ac       __imp_?_Pninc@?$basic_streambuf@DU?$char_traits@D@std@@@std@@IAEPADXZ 004761ac     msvcprt:MSVCP140.dll
 0002:000001b0       __imp_??1?$basic_ostream@DU?$char_traits@D@std@@@std@@UAE@XZ 004761b0     msvcprt:MSVCP140.dll
 0002:000001b4       __imp_??1?$basic_streambuf@DU?$char_traits@D@std@@@std@@UAE@XZ 004761b4     msvcprt:MSVCP140.dll
 0002:000001b8       __imp_??0?$basic_streambuf@DU?$char_traits@D@std@@@std@@IAE@XZ 004761b8     msvcprt:MSVCP140.dll
 0002:000001bc       __imp_?_Getcat@?$codecvt@DDU_Mbstatet@@@std@@SAIPAPBVfacet@locale@2@PBV42@@Z 004761bc     msvcprt:MSVCP140.dll
 0002:000001c0       __imp_?unshift@?$codecvt@DDU_Mbstatet@@@std@@QBEHAAU_Mbstatet@@PAD1AAPAD@Z 004761c0     msvcprt:MSVCP140.dll
 0002:000001c4       __imp_?out@?$codecvt@DDU_Mbstatet@@@std@@QBEHAAU_Mbstatet@@PBD1AAPBDPAD3AAPAD@Z 004761c4     msvcprt:MSVCP140.dll
 0002:000001c8       __imp_?in@?$codecvt@DDU_Mbstatet@@@std@@QBEHAAU_Mbstatet@@PBD1AAPBDPAD3AAPAD@Z 004761c8     msvcprt:MSVCP140.dll
 0002:000001cc       __imp_?always_noconv@codecvt_base@std@@QBE_NXZ 004761cc     msvcprt:MSVCP140.dll
 0002:000001d0       __imp_?_Getgloballocale@locale@std@@CAPAV_Locimp@12@XZ 004761d0     msvcprt:MSVCP140.dll
 0002:000001d4       __imp_??6?$basic_ostream@DU?$char_traits@D@std@@@std@@QAEAAV01@P6AAAV01@AAV01@@Z@Z 004761d4     msvcprt:MSVCP140.dll
 0002:000001d8       __imp_??1_Lockit@std@@QAE@XZ 004761d8     msvcprt:MSVCP140.dll
 0002:000001dc       __imp_??0_Lockit@std@@QAE@H@Z 004761dc     msvcprt:MSVCP140.dll
 0002:000001e0       __imp_?peek@?$basic_istream@DU?$char_traits@D@std@@@std@@QAEHXZ 004761e0     msvcprt:MSVCP140.dll
 0002:000001e4       __imp_?get@?$basic_istream@DU?$char_traits@D@std@@@std@@QAEHXZ 004761e4     msvcprt:MSVCP140.dll
 0002:000001e8       __imp_?flush@?$basic_ostream@DU?$char_traits@D@std@@@std@@QAEAAV12@XZ 004761e8     msvcprt:MSVCP140.dll
 0002:000001ec       __imp_??6?$basic_ostream@DU?$char_traits@D@std@@@std@@QAEAAV01@N@Z 004761ec     msvcprt:MSVCP140.dll
 0002:000001f0       __imp_?_Osfx@?$basic_ostream@DU?$char_traits@D@std@@@std@@QAEXXZ 004761f0     msvcprt:MSVCP140.dll
 0002:000001f4       __imp_?setstate@?$basic_ios@DU?$char_traits@D@std@@@std@@QAEXH_N@Z 004761f4     msvcprt:MSVCP140.dll
 0002:000001f8       __imp_?sputn@?$basic_streambuf@DU?$char_traits@D@std@@@std@@QAE_JPBD_J@Z 004761f8     msvcprt:MSVCP140.dll
 0002:000001fc       __imp_?sputc@?$basic_streambuf@DU?$char_traits@D@std@@@std@@QAEHD@Z 004761fc     msvcprt:MSVCP140.dll
 0002:00000200       __imp_?uncaught_exception@std@@YA_NXZ 00476200     msvcprt:MSVCP140.dll
 0002:00000204       __imp_?_Xout_of_range@std@@YAXPBD@Z 00476204     msvcprt:MSVCP140.dll
 0002:00000208       __imp_?_Xlength_error@std@@YAXPBD@Z 00476208     msvcprt:MSVCP140.dll
 0002:0000020c       __imp_?_Xbad_alloc@std@@YAXXZ 0047620c     msvcprt:MSVCP140.dll
 0002:00000210       __imp_??6?$basic_ostream@DU?$char_traits@D@std@@@std@@QAEAAV01@I@Z 00476210     msvcprt:MSVCP140.dll
 0002:00000214       __imp_??6?$basic_ostream@DU?$char_traits@D@std@@@std@@QAEAAV01@M@Z 00476214     msvcprt:MSVCP140.dll
 0002:00000218       __imp_?put@?$basic_ostream@DU?$char_traits@D@std@@@std@@QAEAAV12@D@Z 00476218     msvcprt:MSVCP140.dll
 0002:0000021c       __imp_??0?$basic_istream@DU?$char_traits@D@std@@@std@@QAE@PAV?$basic_streambuf@DU?$char_traits@D@std@@@1@_N@Z 0047621c     msvcprt:MSVCP140.dll
 0002:00000220       __imp_??1?$basic_istream@DU?$char_traits@D@std@@@std@@UAE@XZ 00476220     msvcprt:MSVCP140.dll
 0002:00000224       __imp_??5?$basic_istream@DU?$char_traits@D@std@@@std@@QAEAAV01@AAM@Z 00476224     msvcprt:MSVCP140.dll
 0002:00000228       __imp_?get@?$basic_istream@DU?$char_traits@D@std@@@std@@QAEAAV12@AAD@Z 00476228     msvcprt:MSVCP140.dll
 0002:0000022c       __imp_?_Fiopen@std@@YAPAU_iobuf@@PBDHH@Z 0047622c     msvcprt:MSVCP140.dll
 0002:00000230       __imp_?_Lock@?$basic_streambuf@DU?$char_traits@D@std@@@std@@UAEXXZ 00476230     msvcprt:MSVCP140.dll
 0002:00000234       __imp_?_Unlock@?$basic_streambuf@DU?$char_traits@D@std@@@std@@UAEXXZ 00476234     msvcprt:MSVCP140.dll
 0002:00000238       __imp_?imbue@?$basic_streambuf@DU?$char_traits@D@std@@@std@@MAEXABVlocale@2@@Z 00476238     msvcprt:MSVCP140.dll
 0002:0000023c       __imp_?setbuf@?$basic_streambuf@DU?$char_traits@D@std@@@std@@MAEPAV12@PAD_J@Z 0047623c     msvcprt:MSVCP140.dll
 0002:00000240       __imp_?showmanyc@?$basic_streambuf@DU?$char_traits@D@std@@@std@@MAE_JXZ 00476240     msvcprt:MSVCP140.dll
 0002:00000244       __imp_?sync@?$basic_streambuf@DU?$char_traits@D@std@@@std@@MAEHXZ 00476244     msvcprt:MSVCP140.dll
 0002:00000248       __imp_?uflow@?$basic_streambuf@DU?$char_traits@D@std@@@std@@MAEHXZ 00476248     msvcprt:MSVCP140.dll
 0002:0000024c       __imp_?xsgetn@?$basic_streambuf@DU?$char_traits@D@std@@@std@@MAE_JPAD_J@Z 0047624c     msvcprt:MSVCP140.dll
 0002:00000250       __imp_?xsputn@?$basic_streambuf@DU?$char_traits@D@std@@@std@@MAE_JPBD_J@Z 00476250     msvcprt:MSVCP140.dll
 0002:00000254       __imp_?_BADOFF@std@@3_JB   00476254     msvcprt:MSVCP140.dll
 0002:00000258       __imp_?id@?$codecvt@DDU_Mbstatet@@@std@@2V0locale@2@A 00476258     msvcprt:MSVCP140.dll
 0002:0000025c       __imp_?cerr@std@@3V?$basic_ostream@DU?$char_traits@D@std@@@1@A 0047625c     msvcprt:MSVCP140.dll
 0002:00000260       __imp_?getloc@?$basic_streambuf@DU?$char_traits@D@std@@@std@@QBE?AVlocale@2@XZ 00476260     msvcprt:MSVCP140.dll
 0002:00000264       __imp_?cout@std@@3V?$basic_ostream@DU?$char_traits@D@std@@@1@A 00476264     msvcprt:MSVCP140.dll
 0002:00000268       __imp_??Bid@locale@std@@QAEIXZ 00476268     msvcprt:MSVCP140.dll
 0002:0000026c       \177MSVCP140_NULL_THUNK_DATA 0047626c     msvcprt:MSVCP140.dll
 0002:00000270       __imp__glVertex2i@8        00476270     opengl32:OPENGL32.dll
 0002:00000274       __imp__glRasterPos2f@8     00476274     opengl32:OPENGL32.dll
 0002:00000278       __imp__glListBase@4        00476278     opengl32:OPENGL32.dll
 0002:0000027c       __imp__glIndexi@4          0047627c     opengl32:OPENGL32.dll
 0002:00000280       __imp__glGenLists@4        00476280     opengl32:OPENGL32.dll
 0002:00000284       __imp__glEnd@0             00476284     opengl32:OPENGL32.dll
 0002:00000288       __imp__glDeleteLists@8     00476288     opengl32:OPENGL32.dll
 0002:0000028c       __imp__glColor3ub@12       0047628c     opengl32:OPENGL32.dll
 0002:00000290       __imp__glCallLists@12      00476290     opengl32:OPENGL32.dll
 0002:00000294       __imp__glBegin@4           00476294     opengl32:OPENGL32.dll
 0002:00000298       __imp__wglUseFontBitmapsW@16 00476298     opengl32:OPENGL32.dll
 0002:0000029c       __imp__glReadPixels@28     0047629c     opengl32:OPENGL32.dll
 0002:000002a0       __imp__glPushClientAttrib@4 004762a0     opengl32:OPENGL32.dll
 0002:000002a4       __imp__glPopClientAttrib@0 004762a4     opengl32:OPENGL32.dll
 0002:000002a8       __imp__wglShareLists@8     004762a8     opengl32:OPENGL32.dll
 0002:000002ac       __imp__wglMakeCurrent@8    004762ac     opengl32:OPENGL32.dll
 0002:000002b0       __imp__wglDeleteContext@4  004762b0     opengl32:OPENGL32.dll
 0002:000002b4       __imp__wglCreateLayerContext@8 004762b4     opengl32:OPENGL32.dll
 0002:000002b8       __imp__wglCreateContext@4  004762b8     opengl32:OPENGL32.dll
 0002:000002bc       __imp__glViewport@16       004762bc     opengl32:OPENGL32.dll
 0002:000002c0       __imp__glReadBuffer@4      004762c0     opengl32:OPENGL32.dll
 0002:000002c4       __imp__glOrtho@48          004762c4     opengl32:OPENGL32.dll
 0002:000002c8       __imp__glLoadIdentity@0    004762c8     opengl32:OPENGL32.dll
 0002:000002cc       __imp__glGetIntegerv@8     004762cc     opengl32:OPENGL32.dll
 0002:000002d0       __imp__glCopyPixels@20     004762d0     opengl32:OPENGL32.dll
 0002:000002d4       __imp__wglSwapLayerBuffers@8 004762d4     opengl32:OPENGL32.dll
 0002:000002d8       __imp__wglRealizeLayerPalette@12 004762d8     opengl32:OPENGL32.dll
 0002:000002dc       __imp__glRasterPos2i@8     004762dc     opengl32:OPENGL32.dll
 0002:000002e0       __imp__glPixelStorei@8     004762e0     opengl32:OPENGL32.dll
 0002:000002e4       __imp__glFlush@0           004762e4     opengl32:OPENGL32.dll
 0002:000002e8       __imp__glDrawPixels@20     004762e8     opengl32:OPENGL32.dll
 0002:000002ec       __imp__glDrawBuffer@4      004762ec     opengl32:OPENGL32.dll
 0002:000002f0       __imp__glDisable@4         004762f0     opengl32:OPENGL32.dll
 0002:000002f4       __imp__glClearColor@16     004762f4     opengl32:OPENGL32.dll
 0002:000002f8       __imp__glClear@4           004762f8     opengl32:OPENGL32.dll
 0002:000002fc       \177OPENGL32_NULL_THUNK_DATA 004762fc     opengl32:OPENGL32.dll
 0002:00000300       __imp__DragQueryFileW@16   00476300     shell32:SHELL32.dll
 0002:00000304       \177SHELL32_NULL_THUNK_DATA 00476304     shell32:SHELL32.dll
 0002:00000308       __imp__OpenIcon@4          00476308     user32:USER32.dll
 0002:0000030c       __imp__ShowWindow@8        0047630c     user32:USER32.dll
 0002:00000310       __imp__DestroyWindow@4     00476310     user32:USER32.dll
 0002:00000314       __imp__GetKeyboardLayout@4 00476314     user32:USER32.dll
 0002:00000318       __imp__RegisterWindowMessageW@4 00476318     user32:USER32.dll
 0002:0000031c       __imp__TranslateMessage@4  0047631c     user32:USER32.dll
 0002:00000320       __imp__GetDCEx@12          00476320     user32:USER32.dll
 0002:00000324       __imp__SetRect@20          00476324     user32:USER32.dll
 0002:00000328       __imp__SetWindowRgn@12     00476328     user32:USER32.dll
 0002:0000032c       __imp__SetActiveWindow@4   0047632c     user32:USER32.dll
 0002:00000330       __imp__WindowFromPoint@8   00476330     user32:USER32.dll
 0002:00000334       __imp__SetForegroundWindow@4 00476334     user32:USER32.dll
 0002:00000338       __imp__MessageBoxA@16      00476338     user32:USER32.dll
 0002:0000033c       __imp__GetSysColor@4       0047633c     user32:USER32.dll
 0002:00000340       __imp__FillRect@12         00476340     user32:USER32.dll
 0002:00000344       __imp__PostThreadMessageA@16 00476344     user32:USER32.dll
 0002:00000348       __imp__MessageBeep@4       00476348     user32:USER32.dll
 0002:0000034c       __imp__SystemParametersInfoA@16 0047634c     user32:USER32.dll
 0002:00000350       __imp__CopyIcon@4          00476350     user32:USER32.dll
 0002:00000354       __imp__CreateIconIndirect@4 00476354     user32:USER32.dll
 0002:00000358       __imp__DestroyIcon@4       00476358     user32:USER32.dll
 0002:0000035c       __imp__LoadIconA@8         0047635c     user32:USER32.dll
 0002:00000360       __imp__LoadCursorA@8       00476360     user32:USER32.dll
 0002:00000364       __imp__GetWindow@8         00476364     user32:USER32.dll
 0002:00000368       __imp__GetParent@4         00476368     user32:USER32.dll
 0002:0000036c       __imp__SetWindowLongA@12   0047636c     user32:USER32.dll
 0002:00000370       __imp__GetWindowLongA@8    00476370     user32:USER32.dll
 0002:00000374       __imp__MapWindowPoints@16  00476374     user32:USER32.dll
 0002:00000378       __imp__ClientToScreen@8    00476378     user32:USER32.dll
 0002:0000037c       __imp__GetCursorPos@4      0047637c     user32:USER32.dll
 0002:00000380       __imp__SetCursor@4         00476380     user32:USER32.dll
 0002:00000384       __imp__AdjustWindowRectEx@16 00476384     user32:USER32.dll
 0002:00000388       __imp__GetWindowRect@8     00476388     user32:USER32.dll
 0002:0000038c       __imp__SetWindowTextW@8    0047638c     user32:USER32.dll
 0002:00000390       __imp__ValidateRgn@8       00476390     user32:USER32.dll
 0002:00000394       __imp__InvalidateRect@12   00476394     user32:USER32.dll
 0002:00000398       __imp__GetUpdateRgn@12     00476398     user32:USER32.dll
 0002:0000039c       __imp__ReleaseDC@8         0047639c     user32:USER32.dll
 0002:000003a0       __imp__GetDC@4             004763a0     user32:USER32.dll
 0002:000003a4       __imp__GetForegroundWindow@0 004763a4     user32:USER32.dll
 0002:000003a8       __imp__GetSystemMetrics@4  004763a8     user32:USER32.dll
 0002:000003ac       __imp__KillTimer@8         004763ac     user32:USER32.dll
 0002:000003b0       __imp__SetTimer@16         004763b0     user32:USER32.dll
 0002:000003b4       __imp__MsgWaitForMultipleObjects@20 004763b4     user32:USER32.dll
 0002:000003b8       __imp__ReleaseCapture@0    004763b8     user32:USER32.dll
 0002:000003bc       __imp__SetCapture@4        004763bc     user32:USER32.dll
 0002:000003c0       __imp__GetAsyncKeyState@4  004763c0     user32:USER32.dll
 0002:000003c4       __imp__GetKeyState@4       004763c4     user32:USER32.dll
 0002:000003c8       __imp__SetFocus@4          004763c8     user32:USER32.dll
 0002:000003cc       __imp__IsClipboardFormatAvailable@4 004763cc     user32:USER32.dll
 0002:000003d0       __imp__EmptyClipboard@0    004763d0     user32:USER32.dll
 0002:000003d4       __imp__GetClipboardData@4  004763d4     user32:USER32.dll
 0002:000003d8       __imp__SetClipboardData@8  004763d8     user32:USER32.dll
 0002:000003dc       __imp__ChangeClipboardChain@8 004763dc     user32:USER32.dll
 0002:000003e0       __imp__SetClipboardViewer@4 004763e0     user32:USER32.dll
 0002:000003e4       __imp__GetClipboardOwner@0 004763e4     user32:USER32.dll
 0002:000003e8       __imp__CloseClipboard@0    004763e8     user32:USER32.dll
 0002:000003ec       __imp__OpenClipboard@4     004763ec     user32:USER32.dll
 0002:000003f0       __imp__BringWindowToTop@4  004763f0     user32:USER32.dll
 0002:000003f4       __imp__IsIconic@4          004763f4     user32:USER32.dll
 0002:000003f8       __imp__SetWindowPos@28     004763f8     user32:USER32.dll
 0002:000003fc       __imp__IsWindow@4          004763fc     user32:USER32.dll
 0002:00000400       __imp__CreateWindowExW@48  00476400     user32:USER32.dll
 0002:00000404       __imp__CreateWindowExA@48  00476404     user32:USER32.dll
 0002:00000408       __imp__RegisterClassExW@4  00476408     user32:USER32.dll
 0002:0000040c       __imp__RegisterClassExA@4  0047640c     user32:USER32.dll
 0002:00000410       __imp__DefWindowProcW@16   00476410     user32:USER32.dll
 0002:00000414       __imp__DefWindowProcA@16   00476414     user32:USER32.dll
 0002:00000418       __imp__PostMessageA@16     00476418     user32:USER32.dll
 0002:0000041c       __imp__SendMessageA@16     0047641c     user32:USER32.dll
 0002:00000420       __imp__PeekMessageW@20     00476420     user32:USER32.dll
 0002:00000424       __imp__PeekMessageA@20     00476424     user32:USER32.dll
 0002:00000428       __imp__DispatchMessageW@4  00476428     user32:USER32.dll
 0002:0000042c       \177USER32_NULL_THUNK_DATA 0047642c     user32:USER32.dll
 0002:00000430       __imp__strstr              00476430     vcruntime:VCRUNTIME140.dll
 0002:00000434       __imp____vcrt_InitializeCriticalSectionEx 00476434     vcruntime:VCRUNTIME140.dll
 0002:00000438       __imp____std_type_info_destroy_list 00476438     vcruntime:VCRUNTIME140.dll
 0002:0000043c       __imp___except_handler4_common 0047643c     vcruntime:VCRUNTIME140.dll
 0002:00000440       __imp__memcmp              00476440     vcruntime:VCRUNTIME140.dll
 0002:00000444       __imp__strrchr             00476444     vcruntime:VCRUNTIME140.dll
 0002:00000448       __imp____std_exception_destroy 00476448     vcruntime:VCRUNTIME140.dll
 0002:0000044c       __imp____std_exception_copy 0047644c     vcruntime:VCRUNTIME140.dll
 0002:00000450       __imp____CxxFrameHandler3  00476450     vcruntime:VCRUNTIME140.dll
 0002:00000454       __imp__memmove             00476454     vcruntime:VCRUNTIME140.dll
 0002:00000458       __imp___purecall           00476458     vcruntime:VCRUNTIME140.dll
 0002:0000045c       __imp__strchr              0047645c     vcruntime:VCRUNTIME140.dll
 0002:00000460       __imp____std_terminate     00476460     vcruntime:VCRUNTIME140.dll
 0002:00000464       __imp__memset              00476464     vcruntime:VCRUNTIME140.dll
 0002:00000468       __imp__memcpy              00476468     vcruntime:VCRUNTIME140.dll
 0002:0000046c       __imp___CxxThrowException@8 0047646c     vcruntime:VCRUNTIME140.dll
 0002:00000470       \177VCRUNTIME140_NULL_THUNK_DATA 00476470     vcruntime:VCRUNTIME140.dll
 0002:00000474       __imp__strtol              00476474     ucrt:api-ms-win-crt-convert-l1-1-0.dll
 0002:00000478       __imp__atof                00476478     ucrt:api-ms-win-crt-convert-l1-1-0.dll
 0002:0000047c       __imp__atol                0047647c     ucrt:api-ms-win-crt-convert-l1-1-0.dll
 0002:00000480       __imp__mbstowcs            00476480     ucrt:api-ms-win-crt-convert-l1-1-0.dll
 0002:00000484       __imp__wcstombs            00476484     ucrt:api-ms-win-crt-convert-l1-1-0.dll
 0002:00000488       __imp__atoi                00476488     ucrt:api-ms-win-crt-convert-l1-1-0.dll
 0002:0000048c       \177api-ms-win-crt-convert-l1-1-0_NULL_THUNK_DATA 0047648c     ucrt:api-ms-win-crt-convert-l1-1-0.dll
 0002:00000490       __imp__getenv              00476490     ucrt:api-ms-win-crt-environment-l1-1-0.dll
 0002:00000494       __imp___putenv             00476494     ucrt:api-ms-win-crt-environment-l1-1-0.dll
 0002:00000498       __imp___wgetenv            00476498     ucrt:api-ms-win-crt-environment-l1-1-0.dll
 0002:0000049c       __imp___wgetcwd            0047649c     ucrt:api-ms-win-crt-environment-l1-1-0.dll
 0002:000004a0       \177api-ms-win-crt-environment-l1-1-0_NULL_THUNK_DATA 004764a0     ucrt:api-ms-win-crt-environment-l1-1-0.dll
 0002:000004a4       __imp___mkdir              004764a4     ucrt:api-ms-win-crt-filesystem-l1-1-0.dll
 0002:000004a8       __imp___access             004764a8     ucrt:api-ms-win-crt-filesystem-l1-1-0.dll
 0002:000004ac       __imp___wrmdir             004764ac     ucrt:api-ms-win-crt-filesystem-l1-1-0.dll
 0002:000004b0       __imp___lock_file          004764b0     ucrt:api-ms-win-crt-filesystem-l1-1-0.dll
 0002:000004b4       __imp___unlock_file        004764b4     ucrt:api-ms-win-crt-filesystem-l1-1-0.dll
 0002:000004b8       __imp___wmkdir             004764b8     ucrt:api-ms-win-crt-filesystem-l1-1-0.dll
 0002:000004bc       __imp___wstat64i32         004764bc     ucrt:api-ms-win-crt-filesystem-l1-1-0.dll
 0002:000004c0       __imp___wrename            004764c0     ucrt:api-ms-win-crt-filesystem-l1-1-0.dll
 0002:000004c4       __imp___wunlink            004764c4     ucrt:api-ms-win-crt-filesystem-l1-1-0.dll
 0002:000004c8       __imp___waccess            004764c8     ucrt:api-ms-win-crt-filesystem-l1-1-0.dll
 0002:000004cc       __imp___wchmod             004764cc     ucrt:api-ms-win-crt-filesystem-l1-1-0.dll
 0002:000004d0       \177api-ms-win-crt-filesystem-l1-1-0_NULL_THUNK_DATA 004764d0     ucrt:api-ms-win-crt-filesystem-l1-1-0.dll
 0002:000004d4       __imp__malloc              004764d4     ucrt:api-ms-win-crt-heap-l1-1-0.dll
 0002:000004d8       __imp___callnewh           004764d8     ucrt:api-ms-win-crt-heap-l1-1-0.dll
 0002:000004dc       __imp__free                004764dc     ucrt:api-ms-win-crt-heap-l1-1-0.dll
 0002:000004e0       __imp__calloc              004764e0     ucrt:api-ms-win-crt-heap-l1-1-0.dll
 0002:000004e4       __imp___set_new_mode       004764e4     ucrt:api-ms-win-crt-heap-l1-1-0.dll
 0002:000004e8       __imp__realloc             004764e8     ucrt:api-ms-win-crt-heap-l1-1-0.dll
 0002:000004ec       \177api-ms-win-crt-heap-l1-1-0_NULL_THUNK_DATA 004764ec     ucrt:api-ms-win-crt-heap-l1-1-0.dll
 0002:000004f0       __imp__localeconv          004764f0     ucrt:api-ms-win-crt-locale-l1-1-0.dll
 0002:000004f4       __imp___configthreadlocale 004764f4     ucrt:api-ms-win-crt-locale-l1-1-0.dll
 0002:000004f8       \177api-ms-win-crt-locale-l1-1-0_NULL_THUNK_DATA 004764f8     ucrt:api-ms-win-crt-locale-l1-1-0.dll
 0002:000004fc       __imp___libm_sse2_sin_precise 004764fc     ucrt:api-ms-win-crt-math-l1-1-0.dll
 0002:00000500       __imp__fabs                00476500     ucrt:api-ms-win-crt-math-l1-1-0.dll
 0002:00000504       __imp__rint                00476504     ucrt:api-ms-win-crt-math-l1-1-0.dll
 0002:00000508       __imp___libm_sse2_tan_precise 00476508     ucrt:api-ms-win-crt-math-l1-1-0.dll
 0002:0000050c       __imp__pow                 0047650c     ucrt:api-ms-win-crt-math-l1-1-0.dll
 0002:00000510       __imp___libm_sse2_sqrt_precise 00476510     ucrt:api-ms-win-crt-math-l1-1-0.dll
 0002:00000514       __imp___libm_sse2_cos_precise 00476514     ucrt:api-ms-win-crt-math-l1-1-0.dll
 0002:00000518       __imp__log                 00476518     ucrt:api-ms-win-crt-math-l1-1-0.dll
 0002:0000051c       __imp____setusermatherr    0047651c     ucrt:api-ms-win-crt-math-l1-1-0.dll
 0002:00000520       __imp___except1            00476520     ucrt:api-ms-win-crt-math-l1-1-0.dll
 0002:00000524       __imp__cos                 00476524     ucrt:api-ms-win-crt-math-l1-1-0.dll
 0002:00000528       __imp__sin                 00476528     ucrt:api-ms-win-crt-math-l1-1-0.dll
 0002:0000052c       __imp__sqrt                0047652c     ucrt:api-ms-win-crt-math-l1-1-0.dll
 0002:00000530       __imp__acos                00476530     ucrt:api-ms-win-crt-math-l1-1-0.dll
 0002:00000534       __imp__ceil                00476534     ucrt:api-ms-win-crt-math-l1-1-0.dll
 0002:00000538       \177api-ms-win-crt-math-l1-1-0_NULL_THUNK_DATA 00476538     ucrt:api-ms-win-crt-math-l1-1-0.dll
 0002:0000053c       __imp___wexecvp            0047653c     ucrt:api-ms-win-crt-process-l1-1-0.dll
 0002:00000540       \177api-ms-win-crt-process-l1-1-0_NULL_THUNK_DATA 00476540     ucrt:api-ms-win-crt-process-l1-1-0.dll
 0002:00000544       __imp___c_exit             00476544     ucrt:api-ms-win-crt-runtime-l1-1-0.dll
 0002:00000548       __imp__terminate           00476548     ucrt:api-ms-win-crt-runtime-l1-1-0.dll
 0002:0000054c       __imp___register_thread_local_exe_atexit_callback 0047654c     ucrt:api-ms-win-crt-runtime-l1-1-0.dll
 0002:00000550       __imp___crt_at_quick_exit  00476550     ucrt:api-ms-win-crt-runtime-l1-1-0.dll
 0002:00000554       __imp___initterm_e         00476554     ucrt:api-ms-win-crt-runtime-l1-1-0.dll
 0002:00000558       __imp___seh_filter_dll     00476558     ucrt:api-ms-win-crt-runtime-l1-1-0.dll
 0002:0000055c       __imp___initialize_onexit_table 0047655c     ucrt:api-ms-win-crt-runtime-l1-1-0.dll
 0002:00000560       __imp___initterm           00476560     ucrt:api-ms-win-crt-runtime-l1-1-0.dll
 0002:00000564       __imp____p___wargv         00476564     ucrt:api-ms-win-crt-runtime-l1-1-0.dll
 0002:00000568       __imp___wsystem            00476568     ucrt:api-ms-win-crt-runtime-l1-1-0.dll
 0002:0000056c       __imp___register_onexit_function 0047656c     ucrt:api-ms-win-crt-runtime-l1-1-0.dll
 0002:00000570       __imp___execute_onexit_table 00476570     ucrt:api-ms-win-crt-runtime-l1-1-0.dll
 0002:00000574       __imp__raise               00476574     ucrt:api-ms-win-crt-runtime-l1-1-0.dll
 0002:00000578       __imp___get_narrow_winmain_command_line 00476578     ucrt:api-ms-win-crt-runtime-l1-1-0.dll
 0002:0000057c       __imp___exit               0047657c     ucrt:api-ms-win-crt-runtime-l1-1-0.dll
 0002:00000580       __imp___invalid_parameter_noinfo_noreturn 00476580     ucrt:api-ms-win-crt-runtime-l1-1-0.dll
 0002:00000584       __imp___invalid_parameter_noinfo 00476584     ucrt:api-ms-win-crt-runtime-l1-1-0.dll
 0002:00000588       __imp___initialize_narrow_environment 00476588     ucrt:api-ms-win-crt-runtime-l1-1-0.dll
 0002:0000058c       __imp__exit                0047658c     ucrt:api-ms-win-crt-runtime-l1-1-0.dll
 0002:00000590       __imp___configure_narrow_argv 00476590     ucrt:api-ms-win-crt-runtime-l1-1-0.dll
 0002:00000594       __imp___controlfp_s        00476594     ucrt:api-ms-win-crt-runtime-l1-1-0.dll
 0002:00000598       __imp___crt_atexit         00476598     ucrt:api-ms-win-crt-runtime-l1-1-0.dll
 0002:0000059c       __imp__strerror            0047659c     ucrt:api-ms-win-crt-runtime-l1-1-0.dll
 0002:000005a0       __imp___set_app_type       004765a0     ucrt:api-ms-win-crt-runtime-l1-1-0.dll
 0002:000005a4       __imp___seh_filter_exe     004765a4     ucrt:api-ms-win-crt-runtime-l1-1-0.dll
 0002:000005a8       __imp____p___argv          004765a8     ucrt:api-ms-win-crt-runtime-l1-1-0.dll
 0002:000005ac       __imp____p___argc          004765ac     ucrt:api-ms-win-crt-runtime-l1-1-0.dll
 0002:000005b0       __imp___cexit              004765b0     ucrt:api-ms-win-crt-runtime-l1-1-0.dll
 0002:000005b4       __imp___errno              004765b4     ucrt:api-ms-win-crt-runtime-l1-1-0.dll
 0002:000005b8       \177api-ms-win-crt-runtime-l1-1-0_NULL_THUNK_DATA 004765b8     ucrt:api-ms-win-crt-runtime-l1-1-0.dll
 0002:000005bc       __imp__fopen               004765bc     ucrt:api-ms-win-crt-stdio-l1-1-0.dll
 0002:000005c0       __imp__fseek               004765c0     ucrt:api-ms-win-crt-stdio-l1-1-0.dll
 0002:000005c4       __imp__fwrite              004765c4     ucrt:api-ms-win-crt-stdio-l1-1-0.dll
 0002:000005c8       __imp___get_stream_buffer_pointers 004765c8     ucrt:api-ms-win-crt-stdio-l1-1-0.dll
 0002:000005cc       __imp__fflush              004765cc     ucrt:api-ms-win-crt-stdio-l1-1-0.dll
 0002:000005d0       __imp__fgetc               004765d0     ucrt:api-ms-win-crt-stdio-l1-1-0.dll
 0002:000005d4       __imp__fgetpos             004765d4     ucrt:api-ms-win-crt-stdio-l1-1-0.dll
 0002:000005d8       __imp__fputc               004765d8     ucrt:api-ms-win-crt-stdio-l1-1-0.dll
 0002:000005dc       __imp___wfopen             004765dc     ucrt:api-ms-win-crt-stdio-l1-1-0.dll
 0002:000005e0       __imp___wsopen_dispatch    004765e0     ucrt:api-ms-win-crt-stdio-l1-1-0.dll
 0002:000005e4       __imp__fsetpos             004765e4     ucrt:api-ms-win-crt-stdio-l1-1-0.dll
 0002:000005e8       __imp____stdio_common_vsscanf 004765e8     ucrt:api-ms-win-crt-stdio-l1-1-0.dll
 0002:000005ec       __imp___set_fmode          004765ec     ucrt:api-ms-win-crt-stdio-l1-1-0.dll
 0002:000005f0       __imp___fseeki64           004765f0     ucrt:api-ms-win-crt-stdio-l1-1-0.dll
 0002:000005f4       __imp____acrt_iob_func     004765f4     ucrt:api-ms-win-crt-stdio-l1-1-0.dll
 0002:000005f8       __imp__fclose              004765f8     ucrt:api-ms-win-crt-stdio-l1-1-0.dll
 0002:000005fc       __imp__setvbuf             004765fc     ucrt:api-ms-win-crt-stdio-l1-1-0.dll
 0002:00000600       __imp__ungetc              00476600     ucrt:api-ms-win-crt-stdio-l1-1-0.dll
 0002:00000604       __imp____p__commode        00476604     ucrt:api-ms-win-crt-stdio-l1-1-0.dll
 0002:00000608       __imp__fgets               00476608     ucrt:api-ms-win-crt-stdio-l1-1-0.dll
 0002:0000060c       __imp____stdio_common_vsprintf 0047660c     ucrt:api-ms-win-crt-stdio-l1-1-0.dll
 0002:00000610       __imp____stdio_common_vfprintf 00476610     ucrt:api-ms-win-crt-stdio-l1-1-0.dll
 0002:00000614       __imp__fread               00476614     ucrt:api-ms-win-crt-stdio-l1-1-0.dll
 0002:00000618       \177api-ms-win-crt-stdio-l1-1-0_NULL_THUNK_DATA 00476618     ucrt:api-ms-win-crt-stdio-l1-1-0.dll
 0002:0000061c       __imp__strlen              0047661c     ucrt:api-ms-win-crt-string-l1-1-0.dll
 0002:00000620       __imp___strdup             00476620     ucrt:api-ms-win-crt-string-l1-1-0.dll
 0002:00000624       __imp__strcmp              00476624     ucrt:api-ms-win-crt-string-l1-1-0.dll
 0002:00000628       __imp__wcslen              00476628     ucrt:api-ms-win-crt-string-l1-1-0.dll
 0002:0000062c       __imp__strcpy              0047662c     ucrt:api-ms-win-crt-string-l1-1-0.dll
 0002:00000630       __imp__toupper             00476630     ucrt:api-ms-win-crt-string-l1-1-0.dll
 0002:00000634       __imp__tolower             00476634     ucrt:api-ms-win-crt-string-l1-1-0.dll
 0002:00000638       __imp__isdigit             00476638     ucrt:api-ms-win-crt-string-l1-1-0.dll
 0002:0000063c       __imp__isalpha             0047663c     ucrt:api-ms-win-crt-string-l1-1-0.dll
 0002:00000640       __imp__wcscpy              00476640     ucrt:api-ms-win-crt-string-l1-1-0.dll
 0002:00000644       __imp__strcspn             00476644     ucrt:api-ms-win-crt-string-l1-1-0.dll
 0002:00000648       __imp__strncmp             00476648     ucrt:api-ms-win-crt-string-l1-1-0.dll
 0002:0000064c       __imp__isalnum             0047664c     ucrt:api-ms-win-crt-string-l1-1-0.dll
 0002:00000650       __imp__isspace             00476650     ucrt:api-ms-win-crt-string-l1-1-0.dll
 0002:00000654       __imp__strncpy             00476654     ucrt:api-ms-win-crt-string-l1-1-0.dll
 0002:00000658       __imp__isxdigit            00476658     ucrt:api-ms-win-crt-string-l1-1-0.dll
 0002:0000065c       __imp___stricmp            0047665c     ucrt:api-ms-win-crt-string-l1-1-0.dll
 0002:00000660       __imp___strnicmp           00476660     ucrt:api-ms-win-crt-string-l1-1-0.dll
 0002:00000664       __imp__isprint             00476664     ucrt:api-ms-win-crt-string-l1-1-0.dll
 0002:00000668       __imp__ispunct             00476668     ucrt:api-ms-win-crt-string-l1-1-0.dll
 0002:0000066c       __imp__islower             0047666c     ucrt:api-ms-win-crt-string-l1-1-0.dll
 0002:00000670       __imp__strcat              00476670     ucrt:api-ms-win-crt-string-l1-1-0.dll
 0002:00000674       __imp__isupper             00476674     ucrt:api-ms-win-crt-string-l1-1-0.dll
 0002:00000678       \177api-ms-win-crt-string-l1-1-0_NULL_THUNK_DATA 00476678     ucrt:api-ms-win-crt-string-l1-1-0.dll
 0002:0000067c       __imp__clock               0047667c     ucrt:api-ms-win-crt-time-l1-1-0.dll
 0002:00000680       __imp___time64             00476680     ucrt:api-ms-win-crt-time-l1-1-0.dll
 0002:00000684       \177api-ms-win-crt-time-l1-1-0_NULL_THUNK_DATA 00476684     ucrt:api-ms-win-crt-time-l1-1-0.dll
 0002:00000688       __imp__rand                00476688     ucrt:api-ms-win-crt-utility-l1-1-0.dll
 0002:0000068c       __imp__abs                 0047668c     ucrt:api-ms-win-crt-utility-l1-1-0.dll
 0002:00000690       __imp__bsearch             00476690     ucrt:api-ms-win-crt-utility-l1-1-0.dll
 0002:00000694       __imp__qsort               00476694     ucrt:api-ms-win-crt-utility-l1-1-0.dll
 0002:00000698       \177api-ms-win-crt-utility-l1-1-0_NULL_THUNK_DATA 00476698     ucrt:api-ms-win-crt-utility-l1-1-0.dll
 0002:0000069c       __imp__DoDragDrop@16       0047669c     ole32:ole32.dll
 0002:000006a0       __imp__RegisterDragDrop@8  004766a0     ole32:ole32.dll
 0002:000006a4       __imp__OleUninitialize@0   004766a4     ole32:ole32.dll
 0002:000006a8       __imp__OleInitialize@4     004766a8     ole32:ole32.dll
 0002:000006ac       __imp__ReleaseStgMedium@4  004766ac     ole32:ole32.dll
 0002:000006b0       \177ole32_NULL_THUNK_DATA  004766b0     ole32:ole32.dll
 0002:000006b4       ___guard_check_icall_fptr  004766b4     MSVCRT:guard_support.obj
 0002:000006b8       ___xc_a                    004766b8     MSVCRT:initializers.obj
 0002:000006f0       ___xc_z                    004766f0     MSVCRT:initializers.obj
 0002:000006f4       ___xi_a                    004766f4     MSVCRT:initializers.obj
 0002:00000704       ___xi_z                    00476704     MSVCRT:initializers.obj
 0002:00000708       ___xl_a                    00476708     MSVCRT:tlssup.obj
 0002:0000070c       ___xl_z                    0047670c     MSVCRT:tlssup.obj
 0002:00000710       ___xp_a                    00476710     MSVCRT:initializers.obj
 0002:00000714       ___xp_z                    00476714     MSVCRT:initializers.obj
 0002:00000718       ___xt_a                    00476718     MSVCRT:initializers.obj
 0002:0000071c       ___xt_z                    0047671c     MSVCRT:initializers.obj
 0002:00000720       ??_C@_0DF@NNOEACBM@usage?3?5?$CFs?5?$FL?9r?5?$DM?$CD?$DO?5?9w?5?$DM?$CD?$DO?5?9t?$FN?5?$FLin@ 00476720     main.obj
 0002:00000758       ??_C@_07NLNIDKMO@tr?3w?3h?3?$AA@ 00476758     main.obj
 0002:00000760       ??_C@_0BO@KHKCPKHG@no?5input?5and?1or?5output?5name?4?6?$AA@ 00476760     main.obj
 0002:00000780       ??_C@_0BL@CIPBKBPM@total?5time?5?$DN?5?$CF?43f?5seconds?6?$AA@ 00476780     main.obj
 0002:000007a0       __real@3fe0000000000000    004767a0     main.obj
 0002:000007a8       __real@408f400000000000    004767a8     main.obj
 0002:000007b0       ??_C@_0BA@DKEIIMHB@ParseError?3?5?$CFs?6?$AA@ 004767b0     RayTracer.obj
 0002:000007c0       ??_C@_0BA@JFNIOLAK@string?5too?5long?$AA@ 004767c0     RayTracer.obj
 0002:000007d0       ??_C@_0BI@CFPLBAOH@invalid?5string?5position?$AA@ 004767d0     RayTracer.obj
 0002:000007e8       __real@3ff0000000000000    004767e8     RayTracer.obj
 0002:000007f0       __real@406fe00000000000    004767f0     RayTracer.obj
 0002:000007f8       __real@4070000000000000    004767f8     RayTracer.obj
 0002:00000804       ??_7Fl_Gl_Window@@6B@      00476804     TraceGLWindow.obj
 0002:00000834       ??_7TraceGLWindow@@6B@     00476834     TraceGLWindow.obj
 0002:00000860       ??_C@_05FHBCAALB@?$CGFile?$AA@ 00476860     TraceUI.obj
 0002:00000868       ??_C@_0P@KFLCMLL@?$CGLoad?5Scene?4?4?4?$AA@ 00476868     TraceUI.obj
 0002:00000878       ??_C@_0P@IGLBNMCE@?$CGSave?5Image?4?4?4?$AA@ 00476878     TraceUI.obj
 0002:00000888       ??_C@_05KNAFKLGA@?$CGExit?$AA@ 00476888     TraceUI.obj
 0002:00000890       ??_C@_05JFEBOHHM@?$CGHelp?$AA@ 00476890     TraceUI.obj
 0002:00000898       ??_C@_06JDCECANP@?$CGAbout?$AA@ 00476898     TraceUI.obj
 0002:000008a0       ??_C@_05OACFOCNG@?$CK?4ray?$AA@ 004768a0     TraceUI.obj
 0002:000008a8       ??_C@_0M@GCFCGBJC@Open?5Scene?$DP?$AA@ 004768a8     TraceUI.obj
 0002:000008b4       ??_C@_08MDAAHFLF@Ray?5?$DM?$CFs?$DO?$AA@ 004768b4     TraceUI.obj
 0002:000008c0       ??_C@_0BB@NGIDKHOI@Ray?5?$DMNot?5Loaded?$DO?$AA@ 004768c0     TraceUI.obj
 0002:000008d4       ??_C@_08JLPGEAPE@save?4bmp?$AA@ 004768d4     TraceUI.obj
 0002:000008e0       ??_C@_05GIOEPHGE@?$CK?4bmp?$AA@ 004768e0     TraceUI.obj
 0002:000008e8       ??_C@_0M@DLNIDFGI@Save?5Image?$DP?$AA@ 004768e8     TraceUI.obj
 0002:000008f8       ??_C@_0HH@DJOINAMI@RayTracer?5Project?0?5FLTK?5version?5@ 004768f8     TraceUI.obj
 0002:00000970       ??_C@_09EAKLHDML@?$CI?$CFd?$CF?$CF?$CJ?5?$CFs?$AA@ 00476970     TraceUI.obj
 0002:0000097c       ??_C@_05BOMFGPKE@Depth?$AA@ 0047697c     TraceUI.obj
 0002:00000984       ??_C@_04EBKMHHBE@Size?$AA@ 00476984     TraceUI.obj
 0002:0000098c       ??_C@_07IIOEJGPH@?$CGRender?$AA@ 0047698c     TraceUI.obj
 0002:00000994       ??_C@_05GIJCMPEM@?$CGStop?$AA@ 00476994     TraceUI.obj
 0002:0000099c       ??_C@_0P@BIKGMPPG@Rendered?5Image?$AA@ 0047699c     TraceUI.obj
 0002:000009b0       __real@4024000000000000    004769b0     TraceUI.obj
 0002:000009b8       __real@4050000000000000    004769b8     TraceUI.obj
 0002:000009c0       __real@4059000000000000    004769c0     TraceUI.obj
 0002:000009c8       __real@4080000000000000    004769c8     TraceUI.obj
 0002:000009d0       ??_C@_02JDPG@rb?$AA@       004769d0     bitmap.obj
 0002:000009d4       ??_C@_02GMLFBBN@wb?$AA@    004769d4     bitmap.obj
 0002:000009d8       ??_C@_05LAPONLG@false?$AA@ 004769d8     parse.obj
 0002:000009e0       ??_C@_04LOAJBDKD@true?$AA@ 004769e0     parse.obj
 0002:000009e5       ??_C@_00CNPNBAHC@?$AA@     004769e5     parse.obj
 0002:000009e8       ??_C@_01LFCBOECM@?4?$AA@   004769e8     parse.obj
 0002:000009ec       ??_C@_06ODAJNOHJ@?0?5got?5?$AA@ 004769ec     parse.obj
 0002:000009f4       ??_C@_0CM@GIEFMEBK@Type?5mismatch?5error?5during?5parse@ 004769f4     parse.obj
 0002:00000a24       ??_7Obj@@6B@               00476a24     parse.obj
 0002:00000a50       ??_C@_05JMKJMOPH@token?$AA@ 00476a50     parse.obj
 0002:00000a58       ??_C@_06LAMNDLOG@scalar?$AA@ 00476a58     parse.obj
 0002:00000a60       ??_C@_04DDKJGDCM@bool?$AA@ 00476a60     parse.obj
 0002:00000a68       ??_C@_02EGCJHIOB@id?$AA@   00476a68     parse.obj
 0002:00000a6c       ??_C@_06ICGJLFIM@string?$AA@ 00476a6c     parse.obj
 0002:00000a74       ??_C@_05NNMEHDAO@tuple?$AA@ 00476a74     parse.obj
 0002:00000a7c       ??_C@_04BCIDKIGN@dict?$AA@ 00476a7c     parse.obj
 0002:00000a84       ??_C@_05FOFAOGDN@named?$AA@ 00476a84     parse.obj
 0002:00000a90       ??_7ScalarObj@@6B@         00476a90     parse.obj
 0002:00000ac0       ??_7BooleanObj@@6B@        00476ac0     parse.obj
 0002:00000af0       ??_7IdObj@@6B@             00476af0     parse.obj
 0002:00000b20       ??_7StringObj@@6B@         00476b20     parse.obj
 0002:00000b50       ??_7TupleObj@@6B@          00476b50     parse.obj
 0002:00000b7c       ??_C@_02KEGNLNML@?0?5?$AA@ 00476b7c     parse.obj
 0002:00000b84       ??_7DictObj@@6B@           00476b84     parse.obj
 0002:00000bb0       ??_C@_02LNAEAIDO@?$DL?5?$AA@ 00476bb0     parse.obj
 0002:00000bb4       ??_C@_03MHLONNLM@?5?$DN?5?$AA@ 00476bb4     parse.obj
 0002:00000bbc       ??_7NamedObj@@6B@          00476bbc     parse.obj
 0002:00000be8       ??_C@_0CC@IDEKONCJ@Parse?5Error?3?5unterminated?5commen@ 00476be8     parse.obj
 0002:00000c0c       ??_C@_04OIEAJMJE@?$HN?$CJ?0?$DL?$AA@ 00476c0c     parse.obj
 0002:00000c14       ??_C@_0M@HAMAGFOL@?5?7?6?$DN?$HL?$HN?$CI?$CJ?$DL?0?1?$AA@ 00476c14     parse.obj
 0002:00000c20       ??_C@_0BN@PKELOCAN@Parse?5error?3?5expected?5comma?4?$AA@ 00476c20     parse.obj
 0002:00000c40       ??_C@_0BO@DILJNIKO@Parse?5error?3?5expected?5equals?4?$AA@ 00476c40     parse.obj
 0002:00000c60       ??_C@_0CK@FGHMGNDN@Parse?5error?3?5expected?5semicolon?5@ 00476c60     parse.obj
 0002:00000c8c       ??_C@_0BD@OLBABOEK@vector?$DMT?$DO?5too?5long?$AA@ 00476c8c     parse.obj
 0002:00000ca0       ??_C@_0BE@JONHPENG@map?1set?$DMT?$DO?5too?5long?$AA@ 00476ca0     parse.obj
 0002:00000cbc       ??_7exception@std@@6B@     00476cbc     read.obj
 0002:00000cc4       ??_C@_0BC@EOODALEL@Unknown?5exception?$AA@ 00476cc4     read.obj
 0002:00000cdc       ??_7bad_cast@std@@6B@      00476cdc     read.obj
 0002:00000ce4       ??_C@_08EPJLHIJG@bad?5cast?$AA@ 00476ce4     read.obj
 0002:00000cf4       ??_7strstreambuf@std@@6B@  00476cf4     read.obj
 0002:00000d34       ??_7ostrstream@std@@6B@    00476d34     read.obj
 0002:00000d38       ??_8ostrstream@std@@7B@    00476d38     read.obj
 0002:00000d44       ??_7Material@@6B@          00476d44     read.obj
 0002:00000d4c       ??_7SceneElement@@6B@      00476d4c     read.obj
 0002:00000d54       ??_7Geometry@@6B@          00476d54     read.obj
 0002:00000d70       ??_7SceneObject@@6B@       00476d70     read.obj
 0002:00000d94       ??_7MaterialSceneObject@@6B@ 00476d94     read.obj
 0002:00000db8       ??_7Scene@@6B@             00476db8     read.obj
 0002:00000dc0       ??_7Trimesh@@6B@           00476dc0     read.obj
 0002:00000de4       ??_7Box@@6B@               00476de4     read.obj
 0002:00000e08       ??_7Cone@@6B@              00476e08     read.obj
 0002:00000e2c       ??_7Cylinder@@6B@          00476e2c     read.obj
 0002:00000e50       ??_7Sphere@@6B@            00476e50     read.obj
 0002:00000e74       ??_7Square@@6B@            00476e74     read.obj
 0002:00000e98       ??_7Light@@6B@             00476e98     read.obj
 0002:00000eb0       ??_7DirectionalLight@@6B@  00476eb0     read.obj
 0002:00000ec8       ??_7PointLight@@6B@        00476ec8     read.obj
 0002:00000ee0       ??_7?$basic_filebuf@DU?$char_traits@D@std@@@std@@6B@ 00476ee0     read.obj
 0002:00000f20       ??_7?$basic_ifstream@DU?$char_traits@D@std@@@std@@6B@ 00476f20     read.obj
 0002:00000f24       ??_8?$basic_ifstream@DU?$char_traits@D@std@@@std@@7B@ 00476f24     read.obj
 0002:00000f2c       ??_C@_0CB@CMNMOCL@Error?3?5couldn?8t?5read?5scene?5file?5@ 00476f2c     read.obj
 0002:00000f50       ??_C@_0O@DJOCHAI@Parse?5error?3?5?$AA@ 00476f50     read.obj
 0002:00000f60       ??_C@_0O@FACIOJJJ@SBT?9raytracer?$AA@ 00476f60     read.obj
 0002:00000f70       ??_C@_0CA@IMDDPACM@Input?5is?5not?5an?5SBT?5input?5file?4?$AA@ 00476f70     read.obj
 0002:00000f90       ??_C@_0BD@KNJCBHMB@?0?5need?5version?51?40?$AA@ 00476f90     read.obj
 0002:00000fa4       ??_C@_0BC@BCJEKMIF@Input?5is?5version?5?$AA@ 00476fa4     read.obj
 0002:00000fb8       ??_C@_0BP@FDOIHNDN@Object?5contains?5no?5color?5field?$AA@ 00476fb8     read.obj
 0002:00000fd8       ??_C@_05PEENBMOG@color?$AA@ 00476fd8     read.obj
 0002:00000fe0       ??_C@_06FBNLAHKA@colour?$AA@ 00476fe0     read.obj
 0002:00000fe8       ??_C@_01BJJEKLCA@?$CC?$AA@ 00476fe8     read.obj
 0002:00000fec       ??_C@_0CB@NAFHLPFG@Object?5contains?5no?5field?5named?5?$CC@ 00476fec     read.obj
 0002:00001010       ??_C@_0BG@OLFBDBCH@Unknown?5input?5object?5?$AA@ 00477010     read.obj
 0002:00001028       ??_C@_0M@ECHGAHIB@?0?5expected?5?$AA@ 00477028     read.obj
 0002:00001034       ??_C@_0BA@BCEPJBGM@Bad?5tuple?5size?5?$AA@ 00477034     read.obj
 0002:00001044       ??_C@_09ODNGOEIO@translate?$AA@ 00477044     read.obj
 0002:00001050       ??_C@_06CEHMNFAL@rotate?$AA@ 00477050     read.obj
 0002:00001058       ??_C@_05MHMEBBGO@scale?$AA@ 00477058     read.obj
 0002:00001060       ??_C@_09IFONHNKG@transform?$AA@ 00477060     read.obj
 0002:0000106c       ??_C@_07HAACKDAH@trimesh?$AA@ 0047706c     read.obj
 0002:00001074       ??_C@_08BGGMGDGA@polymesh?$AA@ 00477074     read.obj
 0002:00001080       ??_C@_08KNOEMJMM@material?$AA@ 00477080     read.obj
 0002:0000108c       ??_C@_06FOHEPPJH@sphere?$AA@ 0047708c     read.obj
 0002:00001094       ??_C@_03OLPJGAII@box?$AA@  00477094     read.obj
 0002:00001098       ??_C@_08GNLJBPEP@cylinder?$AA@ 00477098     read.obj
 0002:000010a4       ??_C@_04NOMJJLOC@cone?$AA@ 004770a4     read.obj
 0002:000010ac       ??_C@_06LNLHEAAG@height?$AA@ 004770ac     read.obj
 0002:000010b4       ??_C@_0O@MGOOHFDO@bottom_radius?$AA@ 004770b4     read.obj
 0002:000010c4       ??_C@_0L@ECCBOGFH@top_radius?$AA@ 004770c4     read.obj
 0002:000010d0       ??_C@_06MGAFENDN@capped?$AA@ 004770d0     read.obj
 0002:000010d8       ??_C@_06ICDKOIFG@square?$AA@ 004770d8     read.obj
 0002:000010e0       ??_C@_06GPGIDCJA@points?$AA@ 004770e0     read.obj
 0002:000010e8       ??_C@_05FHFPJHPF@faces?$AA@ 004770e8     read.obj
 0002:000010f0       ??_C@_0CF@GEDICGEO@Faces?5must?5have?5at?5least?53?5verti@ 004770f0     read.obj
 0002:00001118       ??_C@_0BF@OEEFHGHM@Bad?5face?5in?5trimesh?4?$AA@ 00477118     read.obj
 0002:00001130       ??_C@_0L@BHGKEBAO@gennormals?$AA@ 00477130     read.obj
 0002:0000113c       ??_C@_09JGGNEAGH@materials?$AA@ 0047713c     read.obj
 0002:00001148       ??_C@_07MDEPDJDC@normals?$AA@ 00477148     read.obj
 0002:00001150       ??_C@_08GHNOEFBP@emissive?$AA@ 00477150     read.obj
 0002:0000115c       ??_C@_07LIABELBC@ambient?$AA@ 0047715c     read.obj
 0002:00001164       ??_C@_08DPLIAGAA@specular?$AA@ 00477164     read.obj
 0002:00001170       ??_C@_07KFBPAAO@diffuse?$AA@ 00477170     read.obj
 0002:00001178       ??_C@_0L@PIKBEMPP@reflective?$AA@ 00477178     read.obj
 0002:00001184       ??_C@_0N@LNDBFIIK@transmissive?$AA@ 00477184     read.obj
 0002:00001194       ??_C@_05FKHKFDID@index?$AA@ 00477194     read.obj
 0002:0000119c       ??_C@_09KFDJGKDF@shininess?$AA@ 0047719c     read.obj
 0002:000011a8       ??_C@_04MEMAJGDJ@name?$AA@ 004771a8     read.obj
 0002:000011b0       ??_C@_0CG@IHKLPAFD@Attempt?5to?5bind?5material?5with?5no@ 004771b0     read.obj
 0002:000011d8       ??_C@_08OAGMDKAF@position?$AA@ 004771d8     read.obj
 0002:000011e4       ??_C@_0L@JPALPDGI@quaternion?$AA@ 004771e4     read.obj
 0002:000011f0       ??_C@_0BC@IKBCFBBB@Bogus?5quaternion?4?$AA@ 004771f0     read.obj
 0002:00001204       ??_C@_03PKBINKFB@fov?$AA@  00477204     read.obj
 0002:00001208       ??_C@_0M@FFGFHNCN@aspectratio?$AA@ 00477208     read.obj
 0002:00001214       ??_C@_07BDEMJIAO@viewdir?$AA@ 00477214     read.obj
 0002:0000121c       ??_C@_05CELKJGO@updir?$AA@ 0047721c     read.obj
 0002:00001224       ??_C@_0BC@CFBAKHOB@directional_light?$AA@ 00477224     read.obj
 0002:00001238       ??_C@_0BO@NHKEEDJH@No?5info?5for?5directional_light?$AA@ 00477238     read.obj
 0002:00001258       ??_C@_09HPKLLIJF@direction?$AA@ 00477258     read.obj
 0002:00001264       ??_C@_0M@GHOKJKOP@point_light?$AA@ 00477264     read.obj
 0002:00001270       ??_C@_0BI@OAABJGEO@No?5info?5for?5point_light?$AA@ 00477270     read.obj
 0002:00001288       ??_C@_06FNKMPIBD@camera?$AA@ 00477288     read.obj
 0002:00001290       ??_C@_0BG@BBAIFKIF@Unrecognized?5object?3?5?$AA@ 00477290     read.obj
 0002:000012a8       ??_C@_0BB@MOGOBHAF@list?$DMT?$DO?5too?5long?$AA@ 004772a8     read.obj
 0002:000012c0       __real@3ee4f8b588e368f1    004772c0     read.obj
 0002:000012c8       __real@3f800000            004772c8     read.obj
 0002:000012d0       __real@4000000000000000    004772d0     read.obj
 0002:000012d8       __real@bee4f8b588e368f1    004772d8     read.obj
 0002:000012e0       __xmm@00000000000000003ff0000000000000 004772e0     read.obj
 0002:000012f0       __xmm@3fe00000000000003fe0000000000000 004772f0     read.obj
 0002:00001300       __xmm@3ff00000000000000000000000000000 00477300     read.obj
 0002:00001310       __xmm@3ff00000000000003ff0000000000000 00477310     read.obj
 0002:00001320       __xmm@7fffffffffffffff7fffffffffffffff 00477320     read.obj
 0002:00001330       __xmm@80000000000000008000000000000000 00477330     read.obj
 0002:00001340       __xmm@bfe0000000000000bfe0000000000000 00477340     read.obj
 0002:00001350       __xmm@bff0000000000000bff0000000000000 00477350     read.obj
 0002:00001360       __real@0000000000000000    00477360     vecmath.obj
 0002:00001368       __real@404ca5dc1a63bfe5    00477368     camera.obj
 0002:00001370       __real@bff0000000000000    00477370     camera.obj
 0002:00001378       __real@7fe1ccf385ebc8a0    00477378     scene.obj
 0002:00001380       __real@ffe1ccf385ebc8a0    00477380     scene.obj
 0002:00001388       __real@4010000000000000    00477388     Cone.obj
 0002:00001390       __real@8000000000000000    00477390     Cylinder.obj
 0002:00001398       __real@bfe0000000000000    00477398     Square.obj
 0002:000013a4       ??_7TrimeshFace@@6B@       004773a4     trimesh.obj
 0002:000013c4       ??_C@_0CI@DJLMOCOM@Bad?5Trimesh?3?5Wrong?5number?5of?5mat@ 004773c4     trimesh.obj
 0002:000013ec       ??_C@_0CG@CGLEALMC@Bad?5Trimesh?3?5Wrong?5number?5of?5nor@ 004773ec     trimesh.obj
 0002:00001414       __real@00800000            00477414     trimesh.obj
 0002:00001418       __real@bf800000            00477418     trimesh.obj
 0002:000015a8       ?clipboard_plain_text@Fl@@2QBDB 004775a8     fltk:Fl.obj
 0002:000015ac       ?clipboard_image@Fl@@2QBDB 004775ac     fltk:Fl.obj
 0002:00001820       ??_7Fl_Image@@6B@          00477820     fltk:Fl.obj
 0002:00001844       ??_7Fl_RGB_Image@@6B@      00477844     fltk:Fl.obj
 0002:00001868       ??_7Fl_Device@@6B@         00477868     fltk:Fl.obj
 0002:00001874       ??_7Fl_Graphics_Driver@@6B@ 00477874     fltk:Fl.obj
 0002:00001964       ??_7Fl_GDI_Graphics_Driver@@6B@ 00477964     fltk:Fl.obj
 0002:00001a54       ??_7Fl_Surface_Device@@6B@ 00477a54     fltk:Fl.obj
 0002:00001a60       __real@3f50624dd2f1a9fc    00477a60     fltk:Fl.obj
 0002:00001a68       __real@3ff07c1bda5119ce    00477a68     fltk:Fl.obj
 0002:00001a70       __real@40c3880000000000    00477a70     fltk:Fl.obj
 0002:00001a78       __real@4415af1d78b58c40    00477a78     fltk:Fl.obj
 0002:00001ac0       ??_7Fl_Window@@6B@         00477ac0     fltk:Fl_Window.obj
 0002:00001b04       ??_7Fl_Group@@6B@          00477b04     fltk:Fl_Group.obj
 0002:00001b2c       ??_7InputMenuButton@Fl_Input_Choice@@6B@ 00477b2c     fltk:Fl_Group.obj
 0002:00001b54       ??_7Fl_Input_Choice@@6B@   00477b54     fltk:Fl_Group.obj
 0002:00001b7c       ??_7Fl_Spinner@@6B@        00477b7c     fltk:Fl_Group.obj
 0002:00001ba0       ??_C@_05DLHCDJKH@?$CF?412f?$AA@ 00477ba0     fltk:Fl_Group.obj
 0002:00001bc4       ??_7Fl_Menu_@@6B@          00477bc4     fltk:Fl_Menu_.obj
 0002:00001bec       ??_7Fl_Menu_Bar@@6B@       00477bec     fltk:Fl_Menu_Bar.obj
 0002:00001c28       ??_7Fl_Valuator@@6B@       00477c28     fltk:Fl_Valuator.obj
 0002:00001c58       __real@3e0002fab692ca0a    00477c58     fltk:Fl_Valuator.obj
 0002:00001c64       ??_7Fl_Value_Slider@@6B@   00477c64     fltk:Fl_Value_Slider.obj
 0002:00001c94       ??_7Fl_Hor_Value_Slider@@6B@ 00477c94     fltk:Fl_Value_Slider.obj
 0002:00001cc4       ??_7Fl_Button@@6B@         00477cc4     fltk:Fl_Button.obj
 0002:00001cec       ??_7Fl_Radio_Button@@6B@   00477cec     fltk:Fl_Button.obj
 0002:00001d14       ??_7Fl_Toggle_Button@@6B@  00477d14     fltk:Fl_Button.obj
 0002:00001d38       __real@3fc3333333333333    00477d38     fltk:Fl_Button.obj
 0002:000021f0       __real@00000000            004781f0     fltk:screen_xywh.obj
 0002:000021f8       ??_7Fl_Widget@@6B@         004781f8     fltk:Fl_Widget.obj
 0002:0000221c       __real@437f0000            0047821c     fltk:Fl_Image.obj
 0002:00002220       __real@43800000            00478220     fltk:Fl_Image.obj
 0002:00002230       __xmm@41f00000000000000000000000000000 00478230     fltk:Fl_Image.obj
 0002:00002244       ??_7Fl_TooltipBox@@6B@     00478244     fltk:Fl_Tooltip.obj
 0002:00002270       __real@3fb999999999999a    00478270     fltk:Fl_Tooltip.obj
 0002:00002278       __real@3ea8f5c3            00478278     fltk:fl_color.obj
 0002:00002298       ??_7Fl_Double_Window@@6B@  00478298     fltk:Fl_Double_Window.obj
 0002:000022c4       ??_7Fl_Overlay_Window@@6B@ 004782c4     fltk:Fl_Double_Window.obj
 0002:000025d8       ??_7Fl_Preferences@@6B@    004785d8     fltk:Fl_Preferences.obj
 0002:000025e0       ??_7Fl_Plugin@@6B@         004785e0     fltk:Fl_Preferences.obj
 0002:000025e8       ??_7Fl_Plugin_Manager@@6B@ 004785e8     fltk:Fl_Preferences.obj
 0002:00002670       ?m0@Fl_Graphics_Driver@@0Umatrix@1@B 00478670     fltk:Fl_Device.obj
 0002:000026a4       ??_7Fl_Display_Device@@6B@ 004786a4     fltk:Fl_Device.obj
 0002:000027b0       __real@400921fb54442d18    004787b0     fltk:fl_vertex.obj
 0002:000027b8       __real@4056800000000000    004787b8     fltk:fl_vertex.obj
 0002:000027c0       __real@4066800000000000    004787c0     fltk:fl_vertex.obj
 0002:000027c8       __real@4070e00000000000    004787c8     fltk:fl_vertex.obj
 0002:000027d0       __real@c056800000000000    004787d0     fltk:fl_vertex.obj
 0002:000027d8       __real@4008000000000000    004787d8     fltk:fl_curve.obj
 0002:000027e0       __real@4018000000000000    004787e0     fltk:fl_curve.obj
 0002:000027e8       __real@3f91df46a2529d39    004787e8     fltk:fl_arc.obj
 0002:000027f0       __real@3fc0000000000000    004787f0     fltk:fl_arc.obj
 0002:00002a10       ??_7Fl_Pixmap@@6B@         00478a10     fltk:Fl_Pixmap.obj
 0002:00002a58       ??_7Fl_Bitmap@@6B@         00478a58     fltk:Fl_Bitmap.obj
 0002:00003e48       __real@3fe7a6f4de9bd37a    00479e48     fltk:Fl_get_system_colors.obj
 0002:00003e50       __real@4037000000000000    00479e50     fltk:Fl_get_system_colors.obj
 0002:00003e6c       ??_7FLDropTarget@@6B@      00479e6c     fltk:fl_dnd.obj
 0002:00003e90       ??_7FLDropSource@@6B@      00479e90     fltk:fl_dnd.obj
 0002:00003eac       ??_7FLDataObject@@6B@      00479eac     fltk:fl_dnd.obj
 0002:0000401c       ??_7Fl_Box@@6B@            0047a01c     fltk:Fl_Box.obj
 0002:00004044       ??_7Fl_Return_Button@@6B@  0047a044     fltk:Fl_Return_Button.obj
 0002:0000407c       ??_7Fl_Input_@@6B@         0047a07c     fltk:Fl_Input_.obj
 0002:000040a0       __real@3f000000            0047a0a0     fltk:Fl_Input_.obj
 0002:000040a4       __real@40000000            0047a0a4     fltk:Fl_Input_.obj
 0002:000040a8       __real@40200000            0047a0a8     fltk:Fl_Input_.obj
 0002:000040ac       __real@40400000            0047a0ac     fltk:Fl_Input_.obj
 0002:000040b0       __real@40600000            0047a0b0     fltk:Fl_Input_.obj
 0002:000040c4       ??_7Fl_Input@@6B@          0047a0c4     fltk:Fl_Input.obj
 0002:000040ec       ??_7Fl_Float_Input@@6B@    0047a0ec     fltk:Fl_Input.obj
 0002:00004114       ??_7Fl_Int_Input@@6B@      0047a114     fltk:Fl_Input.obj
 0002:0000413c       ??_7Fl_Multiline_Input@@6B@ 0047a13c     fltk:Fl_Input.obj
 0002:00004164       ??_7Fl_Output@@6B@         0047a164     fltk:Fl_Input.obj
 0002:0000418c       ??_7Fl_Multiline_Output@@6B@ 0047a18c     fltk:Fl_Input.obj
 0002:000041b4       ??_7Fl_Secret_Input@@6B@   0047a1b4     fltk:Fl_Input.obj
 0002:00004254       ??_7Fl_Menu_Button@@6B@    0047a254     fltk:Fl_Menu_Button.obj
 0002:0000427c       ??_7Fl_Repeat_Button@@6B@  0047a27c     fltk:Fl_Repeat_Button.obj
 0002:000042bc       ??_7menutitle@@6B@         0047a2bc     fltk:Fl_Menu.obj
 0002:000042e8       ??_7menuwindow@@6B@        0047a2e8     fltk:Fl_Menu.obj
 0002:00004310       __real@3e4ccccd            0047a310     fltk:Fl_Menu.obj
 0002:00004318       __real@404e000000000000    0047a318     fltk:Fl_Menu.obj
 0002:00004320       __real@4076800000000000    0047a320     fltk:Fl_Menu.obj
 0002:00004334       ??_7Fl_Slider@@6B@         0047a334     fltk:Fl_Slider.obj
 0002:00004364       ??_7Fl_Fill_Slider@@6B@    0047a364     fltk:Fl_Slider.obj
 0002:00004394       ??_7Fl_Hor_Slider@@6B@     0047a394     fltk:Fl_Slider.obj
 0002:000043c4       ??_7Fl_Hor_Fill_Slider@@6B@ 0047a3c4     fltk:Fl_Slider.obj
 0002:000043f4       ??_7Fl_Hor_Nice_Slider@@6B@ 0047a3f4     fltk:Fl_Slider.obj
 0002:00004424       ??_7Fl_Nice_Slider@@6B@    0047a424     fltk:Fl_Slider.obj
 0002:00004450       __real@3f2b851f            0047a450     fltk:Fl_Slider.obj
 0002:00004714       ??_7Fl_Menu_Window@@6B@    0047a714     fltk:Fl_Menu_Window.obj
 0002:000047b8       __real@3f400000            0047a7b8     fltk:fl_plastic.obj
 0002:000047c0       __real@4046800000000000    0047a7c0     fltk:fl_plastic.obj
 0002:000047c8       __real@4060e00000000000    0047a7c8     fltk:fl_plastic.obj
 0002:000047d0       __real@406c200000000000    0047a7d0     fltk:fl_plastic.obj
 0002:000047d8       __real@4073b00000000000    0047a7d8     fltk:fl_plastic.obj
 0002:000047e0       __real@4079500000000000    0047a7e0     fltk:fl_plastic.obj
 0002:000047e8       __real@3ccccccd            0047a7e8     fltk:fl_gtk.obj
 0002:000047ec       __real@3d4ccccd            0047a7ec     fltk:fl_gtk.obj
 0002:000047f0       __real@3dcccccd            0047a7f0     fltk:fl_gtk.obj
 0002:000047f4       __real@3ecccccd            0047a7f4     fltk:fl_gtk.obj
 0002:000047f8       __real@3f19999a            0047a7f8     fltk:fl_gtk.obj
 0002:000047fc       __real@3e19999a            0047a7fc     fltk:fl_gleam.obj
 0002:00004800       __real@3e800000            0047a800     fltk:fl_gleam.obj
 0002:00004804       __real@3eb33333            0047a804     fltk:fl_gleam.obj
 0002:00004808       __real@3ee66666            0047a808     fltk:fl_gleam.obj
 0002:0000480c       __real@3f0ccccd            0047a80c     fltk:fl_gleam.obj
 0002:00004810       __real@3f266666            0047a810     fltk:fl_gleam.obj
 0002:00004814       __real@3f59999a            0047a814     fltk:fl_gleam.obj
 0002:00004818       __real@3f733333            0047a818     fltk:fl_gleam.obj
 0002:00004820       __real@3feff7ced916872b    0047a820     fltk:fl_gleam.obj
 0002:0000482c       ??_7Fl_Tiled_Image@@6B@    0047a82c     fltk:Fl_Tiled_Image.obj
 0002:00007260       __real@3f747ae147ae147b    0047d260     fltk:fl_symbols.obj
 0002:00007268       __real@3f8eb851eb851eb8    0047d268     fltk:fl_symbols.obj
 0002:00007270       __real@3fc0a3d70a3d70a4    0047d270     fltk:fl_symbols.obj
 0002:00007278       __real@3fc999999999999a    0047d278     fltk:fl_symbols.obj
 0002:00007280       __real@3fd3333333333333    0047d280     fltk:fl_symbols.obj
 0002:00007288       __real@3fd6666666666666    0047d288     fltk:fl_symbols.obj
 0002:00007290       __real@3fd999999999999a    0047d290     fltk:fl_symbols.obj
 0002:00007298       __real@3fe3333333333333    0047d298     fltk:fl_symbols.obj
 0002:000072a0       __real@3fe4cccccccccccd    0047d2a0     fltk:fl_symbols.obj
 0002:000072a8       __real@3fe6666666666666    0047d2a8     fltk:fl_symbols.obj
 0002:000072b0       __real@3fe75c28f5c28f5c    0047d2b0     fltk:fl_symbols.obj
 0002:000072b8       __real@3fe999999999999a    0047d2b8     fltk:fl_symbols.obj
 0002:000072c0       __real@3feb333333333333    0047d2c0     fltk:fl_symbols.obj
 0002:000072c8       __real@3feccccccccccccd    0047d2c8     fltk:fl_symbols.obj
 0002:000072d0       __real@3fee666666666666    0047d2d0     fltk:fl_symbols.obj
 0002:000072d8       __real@3ff199999999999a    0047d2d8     fltk:fl_symbols.obj
 0002:000072e0       __real@3ff4cccccccccccd    0047d2e0     fltk:fl_symbols.obj
 0002:000072e8       __real@3ff6e147ae147ae1    0047d2e8     fltk:fl_symbols.obj
 0002:000072f0       __real@3ffb333333333333    0047d2f0     fltk:fl_symbols.obj
 0002:000072f8       __real@4061800000000000    0047d2f8     fltk:fl_symbols.obj
 0002:00007300       __real@40a00000            0047d300     fltk:fl_symbols.obj
 0002:00007304       __real@40c00000            0047d304     fltk:fl_symbols.obj
 0002:00007308       __real@41200000            0047d308     fltk:fl_symbols.obj
 0002:00007310       __real@bfb999999999999a    0047d310     fltk:fl_symbols.obj
 0002:00007318       __real@bfc0a3d70a3d70a4    0047d318     fltk:fl_symbols.obj
 0002:00007320       __real@bfc3333333333333    0047d320     fltk:fl_symbols.obj
 0002:00007328       __real@bfc999999999999a    0047d328     fltk:fl_symbols.obj
 0002:00007330       __real@bfd0000000000000    0047d330     fltk:fl_symbols.obj
 0002:00007338       __real@bfd3333333333333    0047d338     fltk:fl_symbols.obj
 0002:00007340       __real@bfd6666666666666    0047d340     fltk:fl_symbols.obj
 0002:00007348       __real@bfd999999999999a    0047d348     fltk:fl_symbols.obj
 0002:00007350       __real@bfe3333333333333    0047d350     fltk:fl_symbols.obj
 0002:00007358       __real@bfe4cccccccccccd    0047d358     fltk:fl_symbols.obj
 0002:00007360       __real@bfe6666666666666    0047d360     fltk:fl_symbols.obj
 0002:00007368       __real@bfe75c28f5c28f5c    0047d368     fltk:fl_symbols.obj
 0002:00007370       __real@bfe999999999999a    0047d370     fltk:fl_symbols.obj
 0002:00007378       __real@bfeccccccccccccd    0047d378     fltk:fl_symbols.obj
 0002:00007380       __real@bfee666666666666    0047d380     fltk:fl_symbols.obj
 0002:00007388       __real@bff3333333333333    0047d388     fltk:fl_symbols.obj
 0002:00007390       __real@bffccccccccccccd    0047d390     fltk:fl_symbols.obj
 0002:00007398       __real@c000000000000000    0047d398     fltk:fl_symbols.obj
 0002:000073a0       __real@c060e00000000000    0047d3a0     fltk:fl_symbols.obj
 0002:000073a8       __real@c066800000000000    0047d3a8     fltk:fl_symbols.obj
 0002:000073bc       ??_7Fl_Choice@@6B@         0047d3bc     fltk:Fl_Choice.obj
 0002:000073e4       ??_7Fl_Tile@@6B@           0047d3e4     fltk:Fl_Tile.obj
 0002:0000740c       ??_7Fl_Browser_@@6B@       0047d40c     fltk:Fl_Browser_.obj
 0002:0000749c       ??_7Fl_Browser@@6B@        0047d49c     fltk:Fl_File_Browser.obj
 0002:00007504       ??_7Fl_File_Browser@@6B@   0047d504     fltk:Fl_File_Browser.obj
 0002:00007568       __real@4020000000000000    0047d568     fltk:Fl_File_Browser.obj
 0002:00007574       ??_7Fl_Check_Button@@6B@   0047d574     fltk:Fl_Check_Button.obj
 0002:0000759c       ??_7Fl_File_Input@@6B@     0047d59c     fltk:Fl_File_Input.obj
 0002:000075c8       ??_7Fl_Hold_Browser@@6B@   0047d5c8     fltk:Fl_Browser.obj
 0002:00007630       ??_7Fl_Multi_Browser@@6B@  0047d630     fltk:Fl_Browser.obj
 0002:00007698       ??_7Fl_Select_Browser@@6B@ 0047d698     fltk:Fl_Browser.obj
 0002:00007700       __real@3f1a36e2eb1c432d    0047d700     fltk:Fl_File_Icon.obj
 0002:00007730       ??_7Fl_Shared_Image@@6B@   0047d730     fltk:Fl_Shared_Image.obj
 0002:00007754       ??_7Fl_Single_Window@@6B@  0047d754     fltk:Fl_Single_Window.obj
 0002:00007790       ??_7Fl_Scrollbar@@6B@      0047d790     fltk:Fl_Scrollbar.obj
 0002:000077c0       __real@3fa999999999999a    0047d7c0     fltk:Fl_Scrollbar.obj
 0002:000077ec       ??_7Fl_Light_Button@@6B@   0047d7ec     fltk:Fl_Light_Button.obj
 0002:00007814       ??_7Fl_Radio_Light_Button@@6B@ 0047d814     fltk:Fl_Light_Button.obj
 0002:00007860       ??_7Fl_XBM_Image@@6B@      0047d860     fltk:Fl_XBM_Image.obj
 0002:00007894       ??_7Fl_XPM_Image@@6B@      0047d894     fltk:Fl_XPM_Image.obj
 0002:00007954       ??_7Fl_Device_Plugin@@6B@  0047d954     fltkgl:Fl_Gl_Device_Plugin.obj
 0002:00007964       ??_C@_0M@GJHFDAML@fltk?3device?$AA@ 0047d964     fltkgl:Fl_Gl_Device_Plugin.obj
 0002:00007974       ??_7Fl_Gl_Device_Plugin@@6B@ 0047d974     fltkgl:Fl_Gl_Device_Plugin.obj
 0002:00007984       ??_C@_0BH@OACKAEDA@opengl?4device?4fltk?4org?$AA@ 0047d984     fltkgl:Fl_Gl_Device_Plugin.obj
 0002:0000799c       _IID_IUnknown              0047d99c     uuid:unknwn_i.obj
 0002:000079ac       _IID_AsyncIUnknown         0047d9ac     uuid:unknwn_i.obj
 0002:000079bc       _IID_IClassFactory         0047d9bc     uuid:unknwn_i.obj
 0002:000079cc       _IID_IMarshal              0047d9cc     uuid:objidl_i.obj
 0002:000079dc       _IID_INoMarshal            0047d9dc     uuid:objidl_i.obj
 0002:000079ec       _IID_IAgileObject          0047d9ec     uuid:objidl_i.obj
 0002:000079fc       _IID_IActivationFilter     0047d9fc     uuid:objidl_i.obj
 0002:00007a0c       _IID_IMarshal2             0047da0c     uuid:objidl_i.obj
 0002:00007a1c       _IID_IMalloc               0047da1c     uuid:objidl_i.obj
 0002:00007a2c       _IID_IStdMarshalInfo       0047da2c     uuid:objidl_i.obj
 0002:00007a3c       _IID_IExternalConnection   0047da3c     uuid:objidl_i.obj
 0002:00007a4c       _IID_IMultiQI              0047da4c     uuid:objidl_i.obj
 0002:00007a5c       _IID_AsyncIMultiQI         0047da5c     uuid:objidl_i.obj
 0002:00007a6c       _IID_IInternalUnknown      0047da6c     uuid:objidl_i.obj
 0002:00007a7c       _IID_IEnumUnknown          0047da7c     uuid:objidl_i.obj
 0002:00007a8c       _IID_IEnumString           0047da8c     uuid:objidl_i.obj
 0002:00007a9c       _IID_ISequentialStream     0047da9c     uuid:objidl_i.obj
 0002:00007aac       _IID_IStream               0047daac     uuid:objidl_i.obj
 0002:00007abc       _IID_IRpcChannelBuffer     0047dabc     uuid:objidl_i.obj
 0002:00007acc       _IID_IRpcChannelBuffer2    0047dacc     uuid:objidl_i.obj
 0002:00007adc       _IID_IAsyncRpcChannelBuffer 0047dadc     uuid:objidl_i.obj
 0002:00007aec       _IID_IRpcChannelBuffer3    0047daec     uuid:objidl_i.obj
 0002:00007afc       _IID_IRpcSyntaxNegotiate   0047dafc     uuid:objidl_i.obj
 0002:00007b0c       _IID_IRpcProxyBuffer       0047db0c     uuid:objidl_i.obj
 0002:00007b1c       _IID_IRpcStubBuffer        0047db1c     uuid:objidl_i.obj
 0002:00007b2c       _IID_IPSFactoryBuffer      0047db2c     uuid:objidl_i.obj
 0002:00007b3c       _IID_IChannelHook          0047db3c     uuid:objidl_i.obj
 0002:00007b4c       _IID_IClientSecurity       0047db4c     uuid:objidl_i.obj
 0002:00007b5c       _IID_IServerSecurity       0047db5c     uuid:objidl_i.obj
 0002:00007b6c       _IID_IRpcOptions           0047db6c     uuid:objidl_i.obj
 0002:00007b7c       _IID_IGlobalOptions        0047db7c     uuid:objidl_i.obj
 0002:00007b8c       _IID_ISurrogate            0047db8c     uuid:objidl_i.obj
 0002:00007b9c       _IID_IGlobalInterfaceTable 0047db9c     uuid:objidl_i.obj
 0002:00007bac       _IID_ISynchronize          0047dbac     uuid:objidl_i.obj
 0002:00007bbc       _IID_ISynchronizeHandle    0047dbbc     uuid:objidl_i.obj
 0002:00007bcc       _IID_ISynchronizeEvent     0047dbcc     uuid:objidl_i.obj
 0002:00007bdc       _IID_ISynchronizeContainer 0047dbdc     uuid:objidl_i.obj
 0002:00007bec       _IID_ISynchronizeMutex     0047dbec     uuid:objidl_i.obj
 0002:00007bfc       _IID_ICancelMethodCalls    0047dbfc     uuid:objidl_i.obj
 0002:00007c0c       _IID_IAsyncManager         0047dc0c     uuid:objidl_i.obj
 0002:00007c1c       _IID_ICallFactory          0047dc1c     uuid:objidl_i.obj
 0002:00007c2c       _IID_IRpcHelper            0047dc2c     uuid:objidl_i.obj
 0002:00007c3c       _IID_IReleaseMarshalBuffers 0047dc3c     uuid:objidl_i.obj
 0002:00007c4c       _IID_IWaitMultiple         0047dc4c     uuid:objidl_i.obj
 0002:00007c5c       _IID_IAddrTrackingControl  0047dc5c     uuid:objidl_i.obj
 0002:00007c6c       _IID_IAddrExclusionControl 0047dc6c     uuid:objidl_i.obj
 0002:00007c7c       _IID_IPipeByte             0047dc7c     uuid:objidl_i.obj
 0002:00007c8c       _IID_AsyncIPipeByte        0047dc8c     uuid:objidl_i.obj
 0002:00007c9c       _IID_IPipeLong             0047dc9c     uuid:objidl_i.obj
 0002:00007cac       _IID_AsyncIPipeLong        0047dcac     uuid:objidl_i.obj
 0002:00007cbc       _IID_IPipeDouble           0047dcbc     uuid:objidl_i.obj
 0002:00007ccc       _IID_AsyncIPipeDouble      0047dccc     uuid:objidl_i.obj
 0002:00007cdc       _IID_IEnumContextProps     0047dcdc     uuid:objidl_i.obj
 0002:00007cec       _IID_IContext              0047dcec     uuid:objidl_i.obj
 0002:00007cfc       _IID_IObjContext           0047dcfc     uuid:objidl_i.obj
 0002:00007d0c       _IID_IComThreadingInfo     0047dd0c     uuid:objidl_i.obj
 0002:00007d1c       _IID_IProcessInitControl   0047dd1c     uuid:objidl_i.obj
 0002:00007d2c       _IID_IFastRundown          0047dd2c     uuid:objidl_i.obj
 0002:00007d3c       _IID_IMarshalingStream     0047dd3c     uuid:objidl_i.obj
 0002:00007d4c       _IID_IAgileReference       0047dd4c     uuid:objidl_i.obj
 0002:00007d5c       _IID_IMallocSpy            0047dd5c     uuid:objidl_i.obj
 0002:00007d6c       _IID_IBindCtx              0047dd6c     uuid:objidl_i.obj
 0002:00007d7c       _IID_IEnumMoniker          0047dd7c     uuid:objidl_i.obj
 0002:00007d8c       _IID_IRunnableObject       0047dd8c     uuid:objidl_i.obj
 0002:00007d9c       _IID_IRunningObjectTable   0047dd9c     uuid:objidl_i.obj
 0002:00007dac       _IID_IPersist              0047ddac     uuid:objidl_i.obj
 0002:00007dbc       _IID_IPersistStream        0047ddbc     uuid:objidl_i.obj
 0002:00007dcc       _IID_IMoniker              0047ddcc     uuid:objidl_i.obj
 0002:00007ddc       _IID_IROTData              0047dddc     uuid:objidl_i.obj
 0002:00007dec       _IID_IEnumSTATSTG          0047ddec     uuid:objidl_i.obj
 0002:00007dfc       _IID_IStorage              0047ddfc     uuid:objidl_i.obj
 0002:00007e0c       _IID_IPersistFile          0047de0c     uuid:objidl_i.obj
 0002:00007e1c       _IID_IPersistStorage       0047de1c     uuid:objidl_i.obj
 0002:00007e2c       _IID_ILockBytes            0047de2c     uuid:objidl_i.obj
 0002:00007e3c       _IID_IEnumFORMATETC        0047de3c     uuid:objidl_i.obj
 0002:00007e4c       _IID_IEnumSTATDATA         0047de4c     uuid:objidl_i.obj
 0002:00007e5c       _IID_IRootStorage          0047de5c     uuid:objidl_i.obj
 0002:00007e6c       _IID_IAdviseSink           0047de6c     uuid:objidl_i.obj
 0002:00007e7c       _IID_AsyncIAdviseSink      0047de7c     uuid:objidl_i.obj
 0002:00007e8c       _IID_IAdviseSink2          0047de8c     uuid:objidl_i.obj
 0002:00007e9c       _IID_AsyncIAdviseSink2     0047de9c     uuid:objidl_i.obj
 0002:00007eac       _IID_IDataObject           0047deac     uuid:objidl_i.obj
 0002:00007ebc       _IID_IDataAdviseHolder     0047debc     uuid:objidl_i.obj
 0002:00007ecc       _IID_IMessageFilter        0047decc     uuid:objidl_i.obj
 0002:00007edc       _IID_IClassActivator       0047dedc     uuid:objidl_i.obj
 0002:00007eec       _IID_IFillLockBytes        0047deec     uuid:objidl_i.obj
 0002:00007efc       _IID_IProgressNotify       0047defc     uuid:objidl_i.obj
 0002:00007f0c       _IID_ILayoutStorage        0047df0c     uuid:objidl_i.obj
 0002:00007f1c       _IID_IBlockingLock         0047df1c     uuid:objidl_i.obj
 0002:00007f2c       _IID_ITimeAndNoticeControl 0047df2c     uuid:objidl_i.obj
 0002:00007f3c       _IID_IOplockStorage        0047df3c     uuid:objidl_i.obj
 0002:00007f4c       _IID_IDirectWriterLock     0047df4c     uuid:objidl_i.obj
 0002:00007f5c       _IID_IUrlMon               0047df5c     uuid:objidl_i.obj
 0002:00007f6c       _IID_IForegroundTransfer   0047df6c     uuid:objidl_i.obj
 0002:00007f7c       _IID_IThumbnailExtractor   0047df7c     uuid:objidl_i.obj
 0002:00007f8c       _IID_IDummyHICONIncluder   0047df8c     uuid:objidl_i.obj
 0002:00007f9c       _IID_IProcessLock          0047df9c     uuid:objidl_i.obj
 0002:00007fac       _IID_ISurrogateService     0047dfac     uuid:objidl_i.obj
 0002:00007fbc       _IID_IInitializeSpy        0047dfbc     uuid:objidl_i.obj
 0002:00007fcc       _IID_IApartmentShutdown    0047dfcc     uuid:objidl_i.obj
 0002:00007fdc       _IID_IOleAdviseHolder      0047dfdc     uuid:oleidl_i.obj
 0002:00007fec       _IID_IOleCache             0047dfec     uuid:oleidl_i.obj
 0002:00007ffc       _IID_IOleCache2            0047dffc     uuid:oleidl_i.obj
 0002:0000800c       _IID_IOleCacheControl      0047e00c     uuid:oleidl_i.obj
 0002:0000801c       _IID_IParseDisplayName     0047e01c     uuid:oleidl_i.obj
 0002:0000802c       _IID_IOleContainer         0047e02c     uuid:oleidl_i.obj
 0002:0000803c       _IID_IOleClientSite        0047e03c     uuid:oleidl_i.obj
 0002:0000804c       _IID_IOleObject            0047e04c     uuid:oleidl_i.obj
 0002:0000805c       _IID_IOleWindow            0047e05c     uuid:oleidl_i.obj
 0002:0000806c       _IID_IOleLink              0047e06c     uuid:oleidl_i.obj
 0002:0000807c       _IID_IOleItemContainer     0047e07c     uuid:oleidl_i.obj
 0002:0000808c       _IID_IOleInPlaceUIWindow   0047e08c     uuid:oleidl_i.obj
 0002:0000809c       _IID_IOleInPlaceActiveObject 0047e09c     uuid:oleidl_i.obj
 0002:000080ac       _IID_IOleInPlaceFrame      0047e0ac     uuid:oleidl_i.obj
 0002:000080bc       _IID_IOleInPlaceObject     0047e0bc     uuid:oleidl_i.obj
 0002:000080cc       _IID_IOleInPlaceSite       0047e0cc     uuid:oleidl_i.obj
 0002:000080dc       _IID_IContinue             0047e0dc     uuid:oleidl_i.obj
 0002:000080ec       _IID_IViewObject           0047e0ec     uuid:oleidl_i.obj
 0002:000080fc       _IID_IViewObject2          0047e0fc     uuid:oleidl_i.obj
 0002:0000810c       _IID_IDropSource           0047e10c     uuid:oleidl_i.obj
 0002:0000811c       _IID_IDropTarget           0047e11c     uuid:oleidl_i.obj
 0002:0000812c       _IID_IDropSourceNotify     0047e12c     uuid:oleidl_i.obj
 0002:0000813c       _IID_IEnumOLEVERB          0047e13c     uuid:oleidl_i.obj
 0002:00008150       ??_7type_info@@6B@         0047e150     MSVCRT:std_type_info_static.obj
 0002:0000815c       ??_C@_1BK@MGMFAEKH@?$AAk?$AAe?$AAr?$AAn?$AAe?$AAl?$AA3?$AA2?$AA?4?$AAd?$AAl?$AAl?$AA?$AA@ 0047e15c     MSVCRT:thread_safe_statics.obj
 0002:00008178       ??_C@_0BM@HLJJNPAH@InitializeConditionVariable?$AA@ 0047e178     MSVCRT:thread_safe_statics.obj
 0002:00008194       ??_C@_0BJ@JEBJOJFJ@SleepConditionVariableCS?$AA@ 0047e194     MSVCRT:thread_safe_statics.obj
 0002:000081b0       ??_C@_0BJ@PGPPEPCC@WakeAllConditionVariable?$AA@ 0047e1b0     MSVCRT:thread_safe_statics.obj
 0002:00008258       ??_7bad_alloc@std@@6B@     0047e258     MSVCRT:throw_bad_alloc.obj
 0002:00008260       ??_C@_0P@GHFPNOJB@bad?5allocation?$AA@ 0047e260     MSVCRT:throw_bad_alloc.obj
 0002:00008274       ??_7bad_array_new_length@std@@6B@ 0047e274     MSVCRT:throw_bad_alloc.obj
 0002:0000827c       ??_C@_0BF@KINCDENJ@bad?5array?5new?5length?$AA@ 0047e27c     MSVCRT:throw_bad_alloc.obj
 0002:000082f8       __load_config_used         0047e2f8     MSVCRT:loadcfg.obj
 0002:00008354       __tls_used                 0047e354     MSVCRT:tlssup.obj
 0002:0000836c       ??_R4Fl_Gl_Window@@6B@     0047e36c     TraceGLWindow.obj
 0002:00008380       ??_R3Fl_Gl_Window@@8       0047e380     TraceGLWindow.obj
 0002:00008390       ??_R2Fl_Gl_Window@@8       0047e390     TraceGLWindow.obj
 0002:000083a4       ??_R1A@?0A@EA@Fl_Gl_Window@@8 0047e3a4     TraceGLWindow.obj
 0002:000083c0       ??_R1A@?0A@EA@Fl_Window@@8 0047e3c0     TraceGLWindow.obj
 0002:000083dc       ??_R3Fl_Window@@8          0047e3dc     TraceGLWindow.obj
 0002:000083ec       ??_R2Fl_Window@@8          0047e3ec     TraceGLWindow.obj
 0002:000083fc       ??_R1A@?0A@EA@Fl_Group@@8  0047e3fc     TraceGLWindow.obj
 0002:00008418       ??_R3Fl_Group@@8           0047e418     TraceGLWindow.obj
 0002:00008428       ??_R2Fl_Group@@8           0047e428     TraceGLWindow.obj
 0002:00008434       ??_R1A@?0A@EA@Fl_Widget@@8 0047e434     TraceGLWindow.obj
 0002:00008450       ??_R3Fl_Widget@@8          0047e450     TraceGLWindow.obj
 0002:00008460       ??_R2Fl_Widget@@8          0047e460     TraceGLWindow.obj
 0002:00008468       ??_R4TraceGLWindow@@6B@    0047e468     TraceGLWindow.obj
 0002:0000847c       ??_R3TraceGLWindow@@8      0047e47c     TraceGLWindow.obj
 0002:0000848c       ??_R2TraceGLWindow@@8      0047e48c     TraceGLWindow.obj
 0002:000084a4       ??_R1A@?0A@EA@TraceGLWindow@@8 0047e4a4     TraceGLWindow.obj
 0002:000084c0       ??_R4Obj@@6B@              0047e4c0     parse.obj
 0002:000084d4       ??_R3Obj@@8                0047e4d4     parse.obj
 0002:000084e4       ??_R2Obj@@8                0047e4e4     parse.obj
 0002:000084ec       ??_R1A@?0A@EA@Obj@@8       0047e4ec     parse.obj
 0002:00008508       ??_R4ScalarObj@@6B@        0047e508     parse.obj
 0002:0000851c       ??_R3ScalarObj@@8          0047e51c     parse.obj
 0002:0000852c       ??_R2ScalarObj@@8          0047e52c     parse.obj
 0002:00008538       ??_R1A@?0A@EA@ScalarObj@@8 0047e538     parse.obj
 0002:00008554       ??_R4BooleanObj@@6B@       0047e554     parse.obj
 0002:00008568       ??_R3BooleanObj@@8         0047e568     parse.obj
 0002:00008578       ??_R2BooleanObj@@8         0047e578     parse.obj
 0002:00008584       ??_R1A@?0A@EA@BooleanObj@@8 0047e584     parse.obj
 0002:000085a0       ??_R4IdObj@@6B@            0047e5a0     parse.obj
 0002:000085b4       ??_R3IdObj@@8              0047e5b4     parse.obj
 0002:000085c4       ??_R2IdObj@@8              0047e5c4     parse.obj
 0002:000085d0       ??_R1A@?0A@EA@IdObj@@8     0047e5d0     parse.obj
 0002:000085ec       ??_R4StringObj@@6B@        0047e5ec     parse.obj
 0002:00008600       ??_R3StringObj@@8          0047e600     parse.obj
 0002:00008610       ??_R2StringObj@@8          0047e610     parse.obj
 0002:0000861c       ??_R1A@?0A@EA@StringObj@@8 0047e61c     parse.obj
 0002:00008638       ??_R4TupleObj@@6B@         0047e638     parse.obj
 0002:0000864c       ??_R3TupleObj@@8           0047e64c     parse.obj
 0002:0000865c       ??_R2TupleObj@@8           0047e65c     parse.obj
 0002:00008668       ??_R1A@?0A@EA@TupleObj@@8  0047e668     parse.obj
 0002:00008684       ??_R4DictObj@@6B@          0047e684     parse.obj
 0002:00008698       ??_R3DictObj@@8            0047e698     parse.obj
 0002:000086a8       ??_R2DictObj@@8            0047e6a8     parse.obj
 0002:000086b4       ??_R1A@?0A@EA@DictObj@@8   0047e6b4     parse.obj
 0002:000086d0       ??_R4NamedObj@@6B@         0047e6d0     parse.obj
 0002:000086e4       ??_R3NamedObj@@8           0047e6e4     parse.obj
 0002:000086f4       ??_R2NamedObj@@8           0047e6f4     parse.obj
 0002:00008700       ??_R1A@?0A@EA@NamedObj@@8  0047e700     parse.obj
 0002:0000871c       ??_R4exception@std@@6B@    0047e71c     read.obj
 0002:00008730       ??_R3exception@std@@8      0047e730     read.obj
 0002:00008740       ??_R2exception@std@@8      0047e740     read.obj
 0002:00008748       ??_R1A@?0A@EA@exception@std@@8 0047e748     read.obj
 0002:00008764       ??_R4?$basic_filebuf@DU?$char_traits@D@std@@@std@@6B@ 0047e764     read.obj
 0002:00008778       ??_R3?$basic_filebuf@DU?$char_traits@D@std@@@std@@8 0047e778     read.obj
 0002:00008788       ??_R2?$basic_filebuf@DU?$char_traits@D@std@@@std@@8 0047e788     read.obj
 0002:00008794       ??_R1A@?0A@EA@?$basic_filebuf@DU?$char_traits@D@std@@@std@@8 0047e794     read.obj
 0002:000087b0       ??_R1A@?0A@EA@?$basic_streambuf@DU?$char_traits@D@std@@@std@@8 0047e7b0     read.obj
 0002:000087cc       ??_R3?$basic_streambuf@DU?$char_traits@D@std@@@std@@8 0047e7cc     read.obj
 0002:000087dc       ??_R2?$basic_streambuf@DU?$char_traits@D@std@@@std@@8 0047e7dc     read.obj
 0002:000087e4       ??_R4?$basic_ifstream@DU?$char_traits@D@std@@@std@@6B@ 0047e7e4     read.obj
 0002:000087f8       ??_R3?$basic_ifstream@DU?$char_traits@D@std@@@std@@8 0047e7f8     read.obj
 0002:00008808       ??_R2?$basic_ifstream@DU?$char_traits@D@std@@@std@@8 0047e808     read.obj
 0002:00008820       ??_R1A@?0A@EA@?$basic_ifstream@DU?$char_traits@D@std@@@std@@8 0047e820     read.obj
 0002:0000883c       ??_R1A@?0A@EA@?$basic_istream@DU?$char_traits@D@std@@@std@@8 0047e83c     read.obj
 0002:00008858       ??_R3?$basic_istream@DU?$char_traits@D@std@@@std@@8 0047e858     read.obj
 0002:00008868       ??_R2?$basic_istream@DU?$char_traits@D@std@@@std@@8 0047e868     read.obj
 0002:0000887c       ??_R1A@A@3FA@?$basic_ios@DU?$char_traits@D@std@@@std@@8 0047e87c     read.obj
 0002:00008898       ??_R3?$basic_ios@DU?$char_traits@D@std@@@std@@8 0047e898     read.obj
 0002:000088a8       ??_R2?$basic_ios@DU?$char_traits@D@std@@@std@@8 0047e8a8     read.obj
 0002:000088b8       ??_R1A@?0A@EA@?$basic_ios@DU?$char_traits@D@std@@@std@@8 0047e8b8     read.obj
 0002:000088d4       ??_R1A@?0A@EA@ios_base@std@@8 0047e8d4     read.obj
 0002:000088f0       ??_R3ios_base@std@@8       0047e8f0     read.obj
 0002:00008900       ??_R2ios_base@std@@8       0047e900     read.obj
 0002:0000890c       ??_R17?0A@EA@?$_Iosb@H@std@@8 0047e90c     read.obj
 0002:00008928       ??_R3?$_Iosb@H@std@@8      0047e928     read.obj
 0002:00008938       ??_R2?$_Iosb@H@std@@8      0047e938     read.obj
 0002:00008940       ??_R1A@?0A@EA@?$_Iosb@H@std@@8 0047e940     read.obj
 0002:0000895c       ??_R1A@A@3EA@ios_base@std@@8 0047e95c     read.obj
 0002:00008978       ??_R17A@3EA@?$_Iosb@H@std@@8 0047e978     read.obj
 0002:00008994       ??_R4bad_cast@std@@6B@     0047e994     read.obj
 0002:000089a8       ??_R3bad_cast@std@@8       0047e9a8     read.obj
 0002:000089b8       ??_R2bad_cast@std@@8       0047e9b8     read.obj
 0002:000089c4       ??_R1A@?0A@EA@bad_cast@std@@8 0047e9c4     read.obj
 0002:000089e0       ??_R4strstreambuf@std@@6B@ 0047e9e0     read.obj
 0002:000089f4       ??_R3strstreambuf@std@@8   0047e9f4     read.obj
 0002:00008a04       ??_R2strstreambuf@std@@8   0047ea04     read.obj
 0002:00008a10       ??_R1A@?0A@EA@strstreambuf@std@@8 0047ea10     read.obj
 0002:00008a2c       ??_R4ostrstream@std@@6B@   0047ea2c     read.obj
 0002:00008a40       ??_R3ostrstream@std@@8     0047ea40     read.obj
 0002:00008a50       ??_R2ostrstream@std@@8     0047ea50     read.obj
 0002:00008a68       ??_R1A@?0A@EA@ostrstream@std@@8 0047ea68     read.obj
 0002:00008a84       ??_R1A@?0A@EA@?$basic_ostream@DU?$char_traits@D@std@@@std@@8 0047ea84     read.obj
 0002:00008aa0       ??_R3?$basic_ostream@DU?$char_traits@D@std@@@std@@8 0047eaa0     read.obj
 0002:00008ab0       ??_R2?$basic_ostream@DU?$char_traits@D@std@@@std@@8 0047eab0     read.obj
 0002:00008ac4       ??_R4Scene@@6B@            0047eac4     read.obj
 0002:00008ad8       ??_R3Scene@@8              0047ead8     read.obj
 0002:00008ae8       ??_R2Scene@@8              0047eae8     read.obj
 0002:00008af0       ??_R1A@?0A@EA@Scene@@8     0047eaf0     read.obj
 0002:00008b0c       ??_R4Material@@6B@         0047eb0c     read.obj
 0002:00008b20       ??_R3Material@@8           0047eb20     read.obj
 0002:00008b30       ??_R2Material@@8           0047eb30     read.obj
 0002:00008b38       ??_R1A@?0A@EA@Material@@8  0047eb38     read.obj
 0002:00008b54       ??_R4SceneObject@@6B@      0047eb54     read.obj
 0002:00008b68       ??_R3SceneObject@@8        0047eb68     read.obj
 0002:00008b78       ??_R2SceneObject@@8        0047eb78     read.obj
 0002:00008b88       ??_R1A@?0A@EA@SceneObject@@8 0047eb88     read.obj
 0002:00008ba4       ??_R1A@?0A@EA@Geometry@@8  0047eba4     read.obj
 0002:00008bc0       ??_R3Geometry@@8           0047ebc0     read.obj
 0002:00008bd0       ??_R2Geometry@@8           0047ebd0     read.obj
 0002:00008bdc       ??_R1A@?0A@EA@SceneElement@@8 0047ebdc     read.obj
 0002:00008bf8       ??_R3SceneElement@@8       0047ebf8     read.obj
 0002:00008c08       ??_R2SceneElement@@8       0047ec08     read.obj
 0002:00008c10       ??_R4Light@@6B@            0047ec10     read.obj
 0002:00008c24       ??_R3Light@@8              0047ec24     read.obj
 0002:00008c34       ??_R2Light@@8              0047ec34     read.obj
 0002:00008c40       ??_R1A@?0A@EA@Light@@8     0047ec40     read.obj
 0002:00008c5c       ??_R4SceneElement@@6B@     0047ec5c     read.obj
 0002:00008c70       ??_R4Geometry@@6B@         0047ec70     read.obj
 0002:00008c84       ??_R4MaterialSceneObject@@6B@ 0047ec84     read.obj
 0002:00008c98       ??_R3MaterialSceneObject@@8 0047ec98     read.obj
 0002:00008ca8       ??_R2MaterialSceneObject@@8 0047eca8     read.obj
 0002:00008cbc       ??_R1A@?0A@EA@MaterialSceneObject@@8 0047ecbc     read.obj
 0002:00008cd8       ??_R4Trimesh@@6B@          0047ecd8     read.obj
 0002:00008cec       ??_R3Trimesh@@8            0047ecec     read.obj
 0002:00008cfc       ??_R2Trimesh@@8            0047ecfc     read.obj
 0002:00008d14       ??_R1A@?0A@EA@Trimesh@@8   0047ed14     read.obj
 0002:00008d30       ??_R4Box@@6B@              0047ed30     read.obj
 0002:00008d44       ??_R3Box@@8                0047ed44     read.obj
 0002:00008d54       ??_R2Box@@8                0047ed54     read.obj
 0002:00008d6c       ??_R1A@?0A@EA@Box@@8       0047ed6c     read.obj
 0002:00008d88       ??_R4Cone@@6B@             0047ed88     read.obj
 0002:00008d9c       ??_R3Cone@@8               0047ed9c     read.obj
 0002:00008dac       ??_R2Cone@@8               0047edac     read.obj
 0002:00008dc4       ??_R1A@?0A@EA@Cone@@8      0047edc4     read.obj
 0002:00008de0       ??_R4Cylinder@@6B@         0047ede0     read.obj
 0002:00008df4       ??_R3Cylinder@@8           0047edf4     read.obj
 0002:00008e04       ??_R2Cylinder@@8           0047ee04     read.obj
 0002:00008e1c       ??_R1A@?0A@EA@Cylinder@@8  0047ee1c     read.obj
 0002:00008e38       ??_R4Sphere@@6B@           0047ee38     read.obj
 0002:00008e4c       ??_R3Sphere@@8             0047ee4c     read.obj
 0002:00008e5c       ??_R2Sphere@@8             0047ee5c     read.obj
 0002:00008e74       ??_R1A@?0A@EA@Sphere@@8    0047ee74     read.obj
 0002:00008e90       ??_R4Square@@6B@           0047ee90     read.obj
 0002:00008ea4       ??_R3Square@@8             0047eea4     read.obj
 0002:00008eb4       ??_R2Square@@8             0047eeb4     read.obj
 0002:00008ecc       ??_R1A@?0A@EA@Square@@8    0047eecc     read.obj
 0002:00008ee8       ??_R4DirectionalLight@@6B@ 0047eee8     read.obj
 0002:00008efc       ??_R3DirectionalLight@@8   0047eefc     read.obj
 0002:00008f0c       ??_R2DirectionalLight@@8   0047ef0c     read.obj
 0002:00008f1c       ??_R1A@?0A@EA@DirectionalLight@@8 0047ef1c     read.obj
 0002:00008f38       ??_R4PointLight@@6B@       0047ef38     read.obj
 0002:00008f4c       ??_R3PointLight@@8         0047ef4c     read.obj
 0002:00008f5c       ??_R2PointLight@@8         0047ef5c     read.obj
 0002:00008f6c       ??_R1A@?0A@EA@PointLight@@8 0047ef6c     read.obj
 0002:00008f88       ??_R4TrimeshFace@@6B@      0047ef88     trimesh.obj
 0002:00008f9c       ??_R3TrimeshFace@@8        0047ef9c     trimesh.obj
 0002:00008fac       ??_R2TrimeshFace@@8        0047efac     trimesh.obj
 0002:00008fc4       ??_R1A@?0A@EA@TrimeshFace@@8 0047efc4     trimesh.obj
 0002:00008fe0       ??_R4Fl_Image@@6B@         0047efe0     fltk:Fl.obj
 0002:00008ff4       ??_R3Fl_Image@@8           0047eff4     fltk:Fl.obj
 0002:00009004       ??_R2Fl_Image@@8           0047f004     fltk:Fl.obj
 0002:0000900c       ??_R1A@?0A@EA@Fl_Image@@8  0047f00c     fltk:Fl.obj
 0002:00009028       ??_R4Fl_RGB_Image@@6B@     0047f028     fltk:Fl.obj
 0002:0000903c       ??_R3Fl_RGB_Image@@8       0047f03c     fltk:Fl.obj
 0002:0000904c       ??_R2Fl_RGB_Image@@8       0047f04c     fltk:Fl.obj
 0002:00009058       ??_R1A@?0A@EA@Fl_RGB_Image@@8 0047f058     fltk:Fl.obj
 0002:00009074       ??_R4Fl_GDI_Graphics_Driver@@6B@ 0047f074     fltk:Fl.obj
 0002:00009088       ??_R3Fl_GDI_Graphics_Driver@@8 0047f088     fltk:Fl.obj
 0002:00009098       ??_R2Fl_GDI_Graphics_Driver@@8 0047f098     fltk:Fl.obj
 0002:000090a8       ??_R1A@?0A@EA@Fl_GDI_Graphics_Driver@@8 0047f0a8     fltk:Fl.obj
 0002:000090c4       ??_R1A@?0A@EA@Fl_Graphics_Driver@@8 0047f0c4     fltk:Fl.obj
 0002:000090e0       ??_R3Fl_Graphics_Driver@@8 0047f0e0     fltk:Fl.obj
 0002:000090f0       ??_R2Fl_Graphics_Driver@@8 0047f0f0     fltk:Fl.obj
 0002:000090fc       ??_R1A@?0A@EA@Fl_Device@@8 0047f0fc     fltk:Fl.obj
 0002:00009118       ??_R3Fl_Device@@8          0047f118     fltk:Fl.obj
 0002:00009128       ??_R2Fl_Device@@8          0047f128     fltk:Fl.obj
 0002:00009130       ??_R4Fl_Graphics_Driver@@6B@ 0047f130     fltk:Fl.obj
 0002:00009144       ??_R4Fl_Device@@6B@        0047f144     fltk:Fl.obj
 0002:00009158       ??_R4Fl_Surface_Device@@6B@ 0047f158     fltk:Fl.obj
 0002:0000916c       ??_R3Fl_Surface_Device@@8  0047f16c     fltk:Fl.obj
 0002:0000917c       ??_R2Fl_Surface_Device@@8  0047f17c     fltk:Fl.obj
 0002:00009188       ??_R1A@?0A@EA@Fl_Surface_Device@@8 0047f188     fltk:Fl.obj
 0002:000091a4       ??_R4Fl_Window@@6B@        0047f1a4     fltk:Fl_Window.obj
 0002:000091b8       ??_R4Fl_Group@@6B@         0047f1b8     fltk:Fl_Group.obj
 0002:000091cc       ??_R4Fl_Input_Choice@@6B@  0047f1cc     fltk:Fl_Group.obj
 0002:000091e0       ??_R3Fl_Input_Choice@@8    0047f1e0     fltk:Fl_Group.obj
 0002:000091f0       ??_R2Fl_Input_Choice@@8    0047f1f0     fltk:Fl_Group.obj
 0002:00009200       ??_R1A@?0A@EA@Fl_Input_Choice@@8 0047f200     fltk:Fl_Group.obj
 0002:0000921c       ??_R4InputMenuButton@Fl_Input_Choice@@6B@ 0047f21c     fltk:Fl_Group.obj
 0002:00009230       ??_R3InputMenuButton@Fl_Input_Choice@@8 0047f230     fltk:Fl_Group.obj
 0002:00009240       ??_R2InputMenuButton@Fl_Input_Choice@@8 0047f240     fltk:Fl_Group.obj
 0002:00009254       ??_R1A@?0A@EA@InputMenuButton@Fl_Input_Choice@@8 0047f254     fltk:Fl_Group.obj
 0002:00009270       ??_R1A@?0A@EA@Fl_Menu_Button@@8 0047f270     fltk:Fl_Group.obj
 0002:0000928c       ??_R3Fl_Menu_Button@@8     0047f28c     fltk:Fl_Group.obj
 0002:0000929c       ??_R2Fl_Menu_Button@@8     0047f29c     fltk:Fl_Group.obj
 0002:000092ac       ??_R1A@?0A@EA@Fl_Menu_@@8  0047f2ac     fltk:Fl_Group.obj
 0002:000092c8       ??_R3Fl_Menu_@@8           0047f2c8     fltk:Fl_Group.obj
 0002:000092d8       ??_R2Fl_Menu_@@8           0047f2d8     fltk:Fl_Group.obj
 0002:000092e4       ??_R4Fl_Spinner@@6B@       0047f2e4     fltk:Fl_Group.obj
 0002:000092f8       ??_R3Fl_Spinner@@8         0047f2f8     fltk:Fl_Group.obj
 0002:00009308       ??_R2Fl_Spinner@@8         0047f308     fltk:Fl_Group.obj
 0002:00009318       ??_R1A@?0A@EA@Fl_Spinner@@8 0047f318     fltk:Fl_Group.obj
 0002:00009334       ??_R4Fl_Menu_@@6B@         0047f334     fltk:Fl_Menu_.obj
 0002:00009348       ??_R4Fl_Menu_Bar@@6B@      0047f348     fltk:Fl_Menu_Bar.obj
 0002:0000935c       ??_R3Fl_Menu_Bar@@8        0047f35c     fltk:Fl_Menu_Bar.obj
 0002:0000936c       ??_R2Fl_Menu_Bar@@8        0047f36c     fltk:Fl_Menu_Bar.obj
 0002:0000937c       ??_R1A@?0A@EA@Fl_Menu_Bar@@8 0047f37c     fltk:Fl_Menu_Bar.obj
 0002:00009398       ??_R4Fl_Valuator@@6B@      0047f398     fltk:Fl_Valuator.obj
 0002:000093ac       ??_R3Fl_Valuator@@8        0047f3ac     fltk:Fl_Valuator.obj
 0002:000093bc       ??_R2Fl_Valuator@@8        0047f3bc     fltk:Fl_Valuator.obj
 0002:000093c8       ??_R1A@?0A@EA@Fl_Valuator@@8 0047f3c8     fltk:Fl_Valuator.obj
 0002:000093e4       ??_R4Fl_Value_Slider@@6B@  0047f3e4     fltk:Fl_Value_Slider.obj
 0002:000093f8       ??_R3Fl_Value_Slider@@8    0047f3f8     fltk:Fl_Value_Slider.obj
 0002:00009408       ??_R2Fl_Value_Slider@@8    0047f408     fltk:Fl_Value_Slider.obj
 0002:0000941c       ??_R1A@?0A@EA@Fl_Value_Slider@@8 0047f41c     fltk:Fl_Value_Slider.obj
 0002:00009438       ??_R1A@?0A@EA@Fl_Slider@@8 0047f438     fltk:Fl_Value_Slider.obj
 0002:00009454       ??_R3Fl_Slider@@8          0047f454     fltk:Fl_Value_Slider.obj
 0002:00009464       ??_R2Fl_Slider@@8          0047f464     fltk:Fl_Value_Slider.obj
 0002:00009474       ??_R4Fl_Hor_Value_Slider@@6B@ 0047f474     fltk:Fl_Value_Slider.obj
 0002:00009488       ??_R3Fl_Hor_Value_Slider@@8 0047f488     fltk:Fl_Value_Slider.obj
 0002:00009498       ??_R2Fl_Hor_Value_Slider@@8 0047f498     fltk:Fl_Value_Slider.obj
 0002:000094b0       ??_R1A@?0A@EA@Fl_Hor_Value_Slider@@8 0047f4b0     fltk:Fl_Value_Slider.obj
 0002:000094cc       ??_R4Fl_Button@@6B@        0047f4cc     fltk:Fl_Button.obj
 0002:000094e0       ??_R3Fl_Button@@8          0047f4e0     fltk:Fl_Button.obj
 0002:000094f0       ??_R2Fl_Button@@8          0047f4f0     fltk:Fl_Button.obj
 0002:000094fc       ??_R1A@?0A@EA@Fl_Button@@8 0047f4fc     fltk:Fl_Button.obj
 0002:00009518       ??_R4Fl_Radio_Button@@6B@  0047f518     fltk:Fl_Button.obj
 0002:0000952c       ??_R3Fl_Radio_Button@@8    0047f52c     fltk:Fl_Button.obj
 0002:0000953c       ??_R2Fl_Radio_Button@@8    0047f53c     fltk:Fl_Button.obj
 0002:0000954c       ??_R1A@?0A@EA@Fl_Radio_Button@@8 0047f54c     fltk:Fl_Button.obj
 0002:00009568       ??_R4Fl_Toggle_Button@@6B@ 0047f568     fltk:Fl_Button.obj
 0002:0000957c       ??_R3Fl_Toggle_Button@@8   0047f57c     fltk:Fl_Button.obj
 0002:0000958c       ??_R2Fl_Toggle_Button@@8   0047f58c     fltk:Fl_Button.obj
 0002:0000959c       ??_R1A@?0A@EA@Fl_Toggle_Button@@8 0047f59c     fltk:Fl_Button.obj
 0002:000095b8       ??_R4Fl_Widget@@6B@        0047f5b8     fltk:Fl_Widget.obj
 0002:000095cc       ??_R4Fl_TooltipBox@@6B@    0047f5cc     fltk:Fl_Tooltip.obj
 0002:000095e0       ??_R3Fl_TooltipBox@@8      0047f5e0     fltk:Fl_Tooltip.obj
 0002:000095f0       ??_R2Fl_TooltipBox@@8      0047f5f0     fltk:Fl_Tooltip.obj
 0002:0000960c       ??_R1A@?0A@EA@Fl_TooltipBox@@8 0047f60c     fltk:Fl_Tooltip.obj
 0002:00009628       ??_R1A@?0A@EA@Fl_Menu_Window@@8 0047f628     fltk:Fl_Tooltip.obj
 0002:00009644       ??_R3Fl_Menu_Window@@8     0047f644     fltk:Fl_Tooltip.obj
 0002:00009654       ??_R2Fl_Menu_Window@@8     0047f654     fltk:Fl_Tooltip.obj
 0002:0000966c       ??_R1A@?0A@EA@Fl_Single_Window@@8 0047f66c     fltk:Fl_Tooltip.obj
 0002:00009688       ??_R3Fl_Single_Window@@8   0047f688     fltk:Fl_Tooltip.obj
 0002:00009698       ??_R2Fl_Single_Window@@8   0047f698     fltk:Fl_Tooltip.obj
 0002:000096ac       ??_R4Fl_Double_Window@@6B@ 0047f6ac     fltk:Fl_Double_Window.obj
 0002:000096c0       ??_R3Fl_Double_Window@@8   0047f6c0     fltk:Fl_Double_Window.obj
 0002:000096d0       ??_R2Fl_Double_Window@@8   0047f6d0     fltk:Fl_Double_Window.obj
 0002:000096e4       ??_R1A@?0A@EA@Fl_Double_Window@@8 0047f6e4     fltk:Fl_Double_Window.obj
 0002:00009700       ??_R4Fl_Overlay_Window@@6B@ 0047f700     fltk:Fl_Double_Window.obj
 0002:00009714       ??_R3Fl_Overlay_Window@@8  0047f714     fltk:Fl_Double_Window.obj
 0002:00009724       ??_R2Fl_Overlay_Window@@8  0047f724     fltk:Fl_Double_Window.obj
 0002:0000973c       ??_R1A@?0A@EA@Fl_Overlay_Window@@8 0047f73c     fltk:Fl_Double_Window.obj
 0002:00009758       ??_R4Fl_Preferences@@6B@   0047f758     fltk:Fl_Preferences.obj
 0002:0000976c       ??_R3Fl_Preferences@@8     0047f76c     fltk:Fl_Preferences.obj
 0002:0000977c       ??_R2Fl_Preferences@@8     0047f77c     fltk:Fl_Preferences.obj
 0002:00009784       ??_R1A@?0A@EA@Fl_Preferences@@8 0047f784     fltk:Fl_Preferences.obj
 0002:000097a0       ??_R4Fl_Plugin@@6B@        0047f7a0     fltk:Fl_Preferences.obj
 0002:000097b4       ??_R3Fl_Plugin@@8          0047f7b4     fltk:Fl_Preferences.obj
 0002:000097c4       ??_R2Fl_Plugin@@8          0047f7c4     fltk:Fl_Preferences.obj
 0002:000097cc       ??_R1A@?0A@EA@Fl_Plugin@@8 0047f7cc     fltk:Fl_Preferences.obj
 0002:000097e8       ??_R4Fl_Plugin_Manager@@6B@ 0047f7e8     fltk:Fl_Preferences.obj
 0002:000097fc       ??_R3Fl_Plugin_Manager@@8  0047f7fc     fltk:Fl_Preferences.obj
 0002:0000980c       ??_R2Fl_Plugin_Manager@@8  0047f80c     fltk:Fl_Preferences.obj
 0002:00009818       ??_R1A@?0A@EA@Fl_Plugin_Manager@@8 0047f818     fltk:Fl_Preferences.obj
 0002:00009834       ??_R4Fl_Display_Device@@6B@ 0047f834     fltk:Fl_Device.obj
 0002:00009848       ??_R3Fl_Display_Device@@8  0047f848     fltk:Fl_Device.obj
 0002:00009858       ??_R2Fl_Display_Device@@8  0047f858     fltk:Fl_Device.obj
 0002:00009868       ??_R1A@?0A@EA@Fl_Display_Device@@8 0047f868     fltk:Fl_Device.obj
 0002:00009884       ??_R4Fl_Pixmap@@6B@        0047f884     fltk:Fl_Pixmap.obj
 0002:00009898       ??_R3Fl_Pixmap@@8          0047f898     fltk:Fl_Pixmap.obj
 0002:000098a8       ??_R2Fl_Pixmap@@8          0047f8a8     fltk:Fl_Pixmap.obj
 0002:000098b4       ??_R1A@?0A@EA@Fl_Pixmap@@8 0047f8b4     fltk:Fl_Pixmap.obj
 0002:000098d0       ??_R4Fl_Bitmap@@6B@        0047f8d0     fltk:Fl_Bitmap.obj
 0002:000098e4       ??_R3Fl_Bitmap@@8          0047f8e4     fltk:Fl_Bitmap.obj
 0002:000098f4       ??_R2Fl_Bitmap@@8          0047f8f4     fltk:Fl_Bitmap.obj
 0002:00009900       ??_R1A@?0A@EA@Fl_Bitmap@@8 0047f900     fltk:Fl_Bitmap.obj
 0002:0000991c       ??_R3IUnknown@@8           0047f91c     fltk:fl_dnd.obj
 0002:0000992c       ??_R2IUnknown@@8           0047f92c     fltk:fl_dnd.obj
 0002:00009934       ??_R1A@?0A@EA@IUnknown@@8  0047f934     fltk:fl_dnd.obj
 0002:00009950       ??_R3IDataObject@@8        0047f950     fltk:fl_dnd.obj
 0002:00009960       ??_R2IDataObject@@8        0047f960     fltk:fl_dnd.obj
 0002:0000996c       ??_R1A@?0A@EA@IDataObject@@8 0047f96c     fltk:fl_dnd.obj
 0002:00009988       ??_R3IDropSource@@8        0047f988     fltk:fl_dnd.obj
 0002:00009998       ??_R2IDropSource@@8        0047f998     fltk:fl_dnd.obj
 0002:000099a4       ??_R1A@?0A@EA@IDropSource@@8 0047f9a4     fltk:fl_dnd.obj
 0002:000099c0       ??_R3IDropTarget@@8        0047f9c0     fltk:fl_dnd.obj
 0002:000099d0       ??_R2IDropTarget@@8        0047f9d0     fltk:fl_dnd.obj
 0002:000099dc       ??_R1A@?0A@EA@IDropTarget@@8 0047f9dc     fltk:fl_dnd.obj
 0002:000099f8       ??_R4FLDropTarget@@6B@     0047f9f8     fltk:fl_dnd.obj
 0002:00009a0c       ??_R3FLDropTarget@@8       0047fa0c     fltk:fl_dnd.obj
 0002:00009a1c       ??_R2FLDropTarget@@8       0047fa1c     fltk:fl_dnd.obj
 0002:00009a2c       ??_R1A@?0A@EA@FLDropTarget@@8 0047fa2c     fltk:fl_dnd.obj
 0002:00009a48       ??_R4FLDropSource@@6B@     0047fa48     fltk:fl_dnd.obj
 0002:00009a5c       ??_R3FLDropSource@@8       0047fa5c     fltk:fl_dnd.obj
 0002:00009a6c       ??_R2FLDropSource@@8       0047fa6c     fltk:fl_dnd.obj
 0002:00009a7c       ??_R1A@?0A@EA@FLDropSource@@8 0047fa7c     fltk:fl_dnd.obj
 0002:00009a98       ??_R4FLDataObject@@6B@     0047fa98     fltk:fl_dnd.obj
 0002:00009aac       ??_R3FLDataObject@@8       0047faac     fltk:fl_dnd.obj
 0002:00009abc       ??_R2FLDataObject@@8       0047fabc     fltk:fl_dnd.obj
 0002:00009acc       ??_R1A@?0A@EA@FLDataObject@@8 0047facc     fltk:fl_dnd.obj
 0002:00009ae8       ??_R4Fl_Box@@6B@           0047fae8     fltk:Fl_Box.obj
 0002:00009afc       ??_R3Fl_Box@@8             0047fafc     fltk:Fl_Box.obj
 0002:00009b0c       ??_R2Fl_Box@@8             0047fb0c     fltk:Fl_Box.obj
 0002:00009b18       ??_R1A@?0A@EA@Fl_Box@@8    0047fb18     fltk:Fl_Box.obj
 0002:00009b34       ??_R4Fl_Return_Button@@6B@ 0047fb34     fltk:Fl_Return_Button.obj
 0002:00009b48       ??_R3Fl_Return_Button@@8   0047fb48     fltk:Fl_Return_Button.obj
 0002:00009b58       ??_R2Fl_Return_Button@@8   0047fb58     fltk:Fl_Return_Button.obj
 0002:00009b68       ??_R1A@?0A@EA@Fl_Return_Button@@8 0047fb68     fltk:Fl_Return_Button.obj
 0002:00009b84       ??_R4Fl_Input_@@6B@        0047fb84     fltk:Fl_Input_.obj
 0002:00009b98       ??_R3Fl_Input_@@8          0047fb98     fltk:Fl_Input_.obj
 0002:00009ba8       ??_R2Fl_Input_@@8          0047fba8     fltk:Fl_Input_.obj
 0002:00009bb4       ??_R1A@?0A@EA@Fl_Input_@@8 0047fbb4     fltk:Fl_Input_.obj
 0002:00009bd0       ??_R4Fl_Input@@6B@         0047fbd0     fltk:Fl_Input.obj
 0002:00009be4       ??_R3Fl_Input@@8           0047fbe4     fltk:Fl_Input.obj
 0002:00009bf4       ??_R2Fl_Input@@8           0047fbf4     fltk:Fl_Input.obj
 0002:00009c04       ??_R1A@?0A@EA@Fl_Input@@8  0047fc04     fltk:Fl_Input.obj
 0002:00009c20       ??_R4Fl_Float_Input@@6B@   0047fc20     fltk:Fl_Input.obj
 0002:00009c34       ??_R3Fl_Float_Input@@8     0047fc34     fltk:Fl_Input.obj
 0002:00009c44       ??_R2Fl_Float_Input@@8     0047fc44     fltk:Fl_Input.obj
 0002:00009c58       ??_R1A@?0A@EA@Fl_Float_Input@@8 0047fc58     fltk:Fl_Input.obj
 0002:00009c74       ??_R4Fl_Int_Input@@6B@     0047fc74     fltk:Fl_Input.obj
 0002:00009c88       ??_R3Fl_Int_Input@@8       0047fc88     fltk:Fl_Input.obj
 0002:00009c98       ??_R2Fl_Int_Input@@8       0047fc98     fltk:Fl_Input.obj
 0002:00009cac       ??_R1A@?0A@EA@Fl_Int_Input@@8 0047fcac     fltk:Fl_Input.obj
 0002:00009cc8       ??_R4Fl_Multiline_Input@@6B@ 0047fcc8     fltk:Fl_Input.obj
 0002:00009cdc       ??_R3Fl_Multiline_Input@@8 0047fcdc     fltk:Fl_Input.obj
 0002:00009cec       ??_R2Fl_Multiline_Input@@8 0047fcec     fltk:Fl_Input.obj
 0002:00009d00       ??_R1A@?0A@EA@Fl_Multiline_Input@@8 0047fd00     fltk:Fl_Input.obj
 0002:00009d1c       ??_R4Fl_Output@@6B@        0047fd1c     fltk:Fl_Input.obj
 0002:00009d30       ??_R3Fl_Output@@8          0047fd30     fltk:Fl_Input.obj
 0002:00009d40       ??_R2Fl_Output@@8          0047fd40     fltk:Fl_Input.obj
 0002:00009d54       ??_R1A@?0A@EA@Fl_Output@@8 0047fd54     fltk:Fl_Input.obj
 0002:00009d70       ??_R4Fl_Multiline_Output@@6B@ 0047fd70     fltk:Fl_Input.obj
 0002:00009d84       ??_R3Fl_Multiline_Output@@8 0047fd84     fltk:Fl_Input.obj
 0002:00009d94       ??_R2Fl_Multiline_Output@@8 0047fd94     fltk:Fl_Input.obj
 0002:00009dac       ??_R1A@?0A@EA@Fl_Multiline_Output@@8 0047fdac     fltk:Fl_Input.obj
 0002:00009dc8       ??_R4Fl_Secret_Input@@6B@  0047fdc8     fltk:Fl_Input.obj
 0002:00009ddc       ??_R3Fl_Secret_Input@@8    0047fddc     fltk:Fl_Input.obj
 0002:00009dec       ??_R2Fl_Secret_Input@@8    0047fdec     fltk:Fl_Input.obj
 0002:00009e00       ??_R1A@?0A@EA@Fl_Secret_Input@@8 0047fe00     fltk:Fl_Input.obj
 0002:00009e1c       ??_R4Fl_Menu_Button@@6B@   0047fe1c     fltk:Fl_Menu_Button.obj
 0002:00009e30       ??_R4Fl_Repeat_Button@@6B@ 0047fe30     fltk:Fl_Repeat_Button.obj
 0002:00009e44       ??_R3Fl_Repeat_Button@@8   0047fe44     fltk:Fl_Repeat_Button.obj
 0002:00009e54       ??_R2Fl_Repeat_Button@@8   0047fe54     fltk:Fl_Repeat_Button.obj
 0002:00009e64       ??_R1A@?0A@EA@Fl_Repeat_Button@@8 0047fe64     fltk:Fl_Repeat_Button.obj
 0002:00009e80       ??_R4menutitle@@6B@        0047fe80     fltk:Fl_Menu.obj
 0002:00009e94       ??_R3menutitle@@8          0047fe94     fltk:Fl_Menu.obj
 0002:00009ea4       ??_R2menutitle@@8          0047fea4     fltk:Fl_Menu.obj
 0002:00009ec0       ??_R1A@?0A@EA@menutitle@@8 0047fec0     fltk:Fl_Menu.obj
 0002:00009edc       ??_R4menuwindow@@6B@       0047fedc     fltk:Fl_Menu.obj
 0002:00009ef0       ??_R3menuwindow@@8         0047fef0     fltk:Fl_Menu.obj
 0002:00009f00       ??_R2menuwindow@@8         0047ff00     fltk:Fl_Menu.obj
 0002:00009f1c       ??_R1A@?0A@EA@menuwindow@@8 0047ff1c     fltk:Fl_Menu.obj
 0002:00009f38       ??_R4Fl_Slider@@6B@        0047ff38     fltk:Fl_Slider.obj
 0002:00009f4c       ??_R4Fl_Fill_Slider@@6B@   0047ff4c     fltk:Fl_Slider.obj
 0002:00009f60       ??_R3Fl_Fill_Slider@@8     0047ff60     fltk:Fl_Slider.obj
 0002:00009f70       ??_R2Fl_Fill_Slider@@8     0047ff70     fltk:Fl_Slider.obj
 0002:00009f84       ??_R1A@?0A@EA@Fl_Fill_Slider@@8 0047ff84     fltk:Fl_Slider.obj
 0002:00009fa0       ??_R4Fl_Hor_Slider@@6B@    0047ffa0     fltk:Fl_Slider.obj
 0002:00009fb4       ??_R3Fl_Hor_Slider@@8      0047ffb4     fltk:Fl_Slider.obj
 0002:00009fc4       ??_R2Fl_Hor_Slider@@8      0047ffc4     fltk:Fl_Slider.obj
 0002:00009fd8       ??_R1A@?0A@EA@Fl_Hor_Slider@@8 0047ffd8     fltk:Fl_Slider.obj
 0002:00009ff4       ??_R4Fl_Hor_Fill_Slider@@6B@ 0047fff4     fltk:Fl_Slider.obj
 0002:0000a008       ??_R3Fl_Hor_Fill_Slider@@8 00480008     fltk:Fl_Slider.obj
 0002:0000a018       ??_R2Fl_Hor_Fill_Slider@@8 00480018     fltk:Fl_Slider.obj
 0002:0000a02c       ??_R1A@?0A@EA@Fl_Hor_Fill_Slider@@8 0048002c     fltk:Fl_Slider.obj
 0002:0000a048       ??_R4Fl_Hor_Nice_Slider@@6B@ 00480048     fltk:Fl_Slider.obj
 0002:0000a05c       ??_R3Fl_Hor_Nice_Slider@@8 0048005c     fltk:Fl_Slider.obj
 0002:0000a06c       ??_R2Fl_Hor_Nice_Slider@@8 0048006c     fltk:Fl_Slider.obj
 0002:0000a080       ??_R1A@?0A@EA@Fl_Hor_Nice_Slider@@8 00480080     fltk:Fl_Slider.obj
 0002:0000a09c       ??_R4Fl_Nice_Slider@@6B@   0048009c     fltk:Fl_Slider.obj
 0002:0000a0b0       ??_R3Fl_Nice_Slider@@8     004800b0     fltk:Fl_Slider.obj
 0002:0000a0c0       ??_R2Fl_Nice_Slider@@8     004800c0     fltk:Fl_Slider.obj
 0002:0000a0d4       ??_R1A@?0A@EA@Fl_Nice_Slider@@8 004800d4     fltk:Fl_Slider.obj
 0002:0000a0f0       ??_R4Fl_Menu_Window@@6B@   004800f0     fltk:Fl_Menu_Window.obj
 0002:0000a104       ??_R4Fl_Tiled_Image@@6B@   00480104     fltk:Fl_Tiled_Image.obj
 0002:0000a118       ??_R3Fl_Tiled_Image@@8     00480118     fltk:Fl_Tiled_Image.obj
 0002:0000a128       ??_R2Fl_Tiled_Image@@8     00480128     fltk:Fl_Tiled_Image.obj
 0002:0000a134       ??_R1A@?0A@EA@Fl_Tiled_Image@@8 00480134     fltk:Fl_Tiled_Image.obj
 0002:0000a150       ??_R4Fl_Choice@@6B@        00480150     fltk:Fl_Choice.obj
 0002:0000a164       ??_R3Fl_Choice@@8          00480164     fltk:Fl_Choice.obj
 0002:0000a174       ??_R2Fl_Choice@@8          00480174     fltk:Fl_Choice.obj
 0002:0000a184       ??_R1A@?0A@EA@Fl_Choice@@8 00480184     fltk:Fl_Choice.obj
 0002:0000a1a0       ??_R4Fl_Tile@@6B@          004801a0     fltk:Fl_Tile.obj
 0002:0000a1b4       ??_R3Fl_Tile@@8            004801b4     fltk:Fl_Tile.obj
 0002:0000a1c4       ??_R2Fl_Tile@@8            004801c4     fltk:Fl_Tile.obj
 0002:0000a1d4       ??_R1A@?0A@EA@Fl_Tile@@8   004801d4     fltk:Fl_Tile.obj
 0002:0000a1f0       ??_R4Fl_Browser_@@6B@      004801f0     fltk:Fl_Browser_.obj
 0002:0000a204       ??_R3Fl_Browser_@@8        00480204     fltk:Fl_Browser_.obj
 0002:0000a214       ??_R2Fl_Browser_@@8        00480214     fltk:Fl_Browser_.obj
 0002:0000a224       ??_R1A@?0A@EA@Fl_Browser_@@8 00480224     fltk:Fl_Browser_.obj
 0002:0000a240       ??_R4Fl_Browser@@6B@       00480240     fltk:Fl_File_Browser.obj
 0002:0000a254       ??_R3Fl_Browser@@8         00480254     fltk:Fl_File_Browser.obj
 0002:0000a264       ??_R2Fl_Browser@@8         00480264     fltk:Fl_File_Browser.obj
 0002:0000a278       ??_R1A@?0A@EA@Fl_Browser@@8 00480278     fltk:Fl_File_Browser.obj
 0002:0000a294       ??_R4Fl_File_Browser@@6B@  00480294     fltk:Fl_File_Browser.obj
 0002:0000a2a8       ??_R3Fl_File_Browser@@8    004802a8     fltk:Fl_File_Browser.obj
 0002:0000a2b8       ??_R2Fl_File_Browser@@8    004802b8     fltk:Fl_File_Browser.obj
 0002:0000a2d0       ??_R1A@?0A@EA@Fl_File_Browser@@8 004802d0     fltk:Fl_File_Browser.obj
 0002:0000a2ec       ??_R4Fl_Check_Button@@6B@  004802ec     fltk:Fl_Check_Button.obj
 0002:0000a300       ??_R3Fl_Check_Button@@8    00480300     fltk:Fl_Check_Button.obj
 0002:0000a310       ??_R2Fl_Check_Button@@8    00480310     fltk:Fl_Check_Button.obj
 0002:0000a324       ??_R1A@?0A@EA@Fl_Check_Button@@8 00480324     fltk:Fl_Check_Button.obj
 0002:0000a340       ??_R1A@?0A@EA@Fl_Light_Button@@8 00480340     fltk:Fl_Check_Button.obj
 0002:0000a35c       ??_R3Fl_Light_Button@@8    0048035c     fltk:Fl_Check_Button.obj
 0002:0000a36c       ??_R2Fl_Light_Button@@8    0048036c     fltk:Fl_Check_Button.obj
 0002:0000a37c       ??_R4Fl_File_Input@@6B@    0048037c     fltk:Fl_File_Input.obj
 0002:0000a390       ??_R3Fl_File_Input@@8      00480390     fltk:Fl_File_Input.obj
 0002:0000a3a0       ??_R2Fl_File_Input@@8      004803a0     fltk:Fl_File_Input.obj
 0002:0000a3b4       ??_R1A@?0A@EA@Fl_File_Input@@8 004803b4     fltk:Fl_File_Input.obj
 0002:0000a3d0       ??_R4Fl_Hold_Browser@@6B@  004803d0     fltk:Fl_Browser.obj
 0002:0000a3e4       ??_R3Fl_Hold_Browser@@8    004803e4     fltk:Fl_Browser.obj
 0002:0000a3f4       ??_R2Fl_Hold_Browser@@8    004803f4     fltk:Fl_Browser.obj
 0002:0000a40c       ??_R1A@?0A@EA@Fl_Hold_Browser@@8 0048040c     fltk:Fl_Browser.obj
 0002:0000a428       ??_R4Fl_Multi_Browser@@6B@ 00480428     fltk:Fl_Browser.obj
 0002:0000a43c       ??_R3Fl_Multi_Browser@@8   0048043c     fltk:Fl_Browser.obj
 0002:0000a44c       ??_R2Fl_Multi_Browser@@8   0048044c     fltk:Fl_Browser.obj
 0002:0000a464       ??_R1A@?0A@EA@Fl_Multi_Browser@@8 00480464     fltk:Fl_Browser.obj
 0002:0000a480       ??_R4Fl_Select_Browser@@6B@ 00480480     fltk:Fl_Browser.obj
 0002:0000a494       ??_R3Fl_Select_Browser@@8  00480494     fltk:Fl_Browser.obj
 0002:0000a4a4       ??_R2Fl_Select_Browser@@8  004804a4     fltk:Fl_Browser.obj
 0002:0000a4bc       ??_R1A@?0A@EA@Fl_Select_Browser@@8 004804bc     fltk:Fl_Browser.obj
 0002:0000a4d8       ??_R4Fl_Shared_Image@@6B@  004804d8     fltk:Fl_Shared_Image.obj
 0002:0000a4ec       ??_R3Fl_Shared_Image@@8    004804ec     fltk:Fl_Shared_Image.obj
 0002:0000a4fc       ??_R2Fl_Shared_Image@@8    004804fc     fltk:Fl_Shared_Image.obj
 0002:0000a508       ??_R1A@?0A@EA@Fl_Shared_Image@@8 00480508     fltk:Fl_Shared_Image.obj
 0002:0000a524       ??_R4Fl_Single_Window@@6B@ 00480524     fltk:Fl_Single_Window.obj
 0002:0000a538       ??_R4Fl_Scrollbar@@6B@     00480538     fltk:Fl_Scrollbar.obj
 0002:0000a54c       ??_R3Fl_Scrollbar@@8       0048054c     fltk:Fl_Scrollbar.obj
 0002:0000a55c       ??_R2Fl_Scrollbar@@8       0048055c     fltk:Fl_Scrollbar.obj
 0002:0000a570       ??_R1A@?0A@EA@Fl_Scrollbar@@8 00480570     fltk:Fl_Scrollbar.obj
 0002:0000a58c       ??_R4Fl_Light_Button@@6B@  0048058c     fltk:Fl_Light_Button.obj
 0002:0000a5a0       ??_R4Fl_Radio_Light_Button@@6B@ 004805a0     fltk:Fl_Light_Button.obj
 0002:0000a5b4       ??_R3Fl_Radio_Light_Button@@8 004805b4     fltk:Fl_Light_Button.obj
 0002:0000a5c4       ??_R2Fl_Radio_Light_Button@@8 004805c4     fltk:Fl_Light_Button.obj
 0002:0000a5d8       ??_R1A@?0A@EA@Fl_Radio_Light_Button@@8 004805d8     fltk:Fl_Light_Button.obj
 0002:0000a5f4       ??_R4Fl_XBM_Image@@6B@     004805f4     fltk:Fl_XBM_Image.obj
 0002:0000a608       ??_R3Fl_XBM_Image@@8       00480608     fltk:Fl_XBM_Image.obj
 0002:0000a618       ??_R2Fl_XBM_Image@@8       00480618     fltk:Fl_XBM_Image.obj
 0002:0000a628       ??_R1A@?0A@EA@Fl_XBM_Image@@8 00480628     fltk:Fl_XBM_Image.obj
 0002:0000a644       ??_R4Fl_XPM_Image@@6B@     00480644     fltk:Fl_XPM_Image.obj
 0002:0000a658       ??_R3Fl_XPM_Image@@8       00480658     fltk:Fl_XPM_Image.obj
 0002:0000a668       ??_R2Fl_XPM_Image@@8       00480668     fltk:Fl_XPM_Image.obj
 0002:0000a678       ??_R1A@?0A@EA@Fl_XPM_Image@@8 00480678     fltk:Fl_XPM_Image.obj
 0002:0000a694       ??_R4Fl_Device_Plugin@@6B@ 00480694     fltkgl:Fl_Gl_Device_Plugin.obj
 0002:0000a6a8       ??_R3Fl_Device_Plugin@@8   004806a8     fltkgl:Fl_Gl_Device_Plugin.obj
 0002:0000a6b8       ??_R2Fl_Device_Plugin@@8   004806b8     fltkgl:Fl_Gl_Device_Plugin.obj
 0002:0000a6c4       ??_R1A@?0A@EA@Fl_Device_Plugin@@8 004806c4     fltkgl:Fl_Gl_Device_Plugin.obj
 0002:0000a6e0       ??_R4Fl_Gl_Device_Plugin@@6B@ 004806e0     fltkgl:Fl_Gl_Device_Plugin.obj
 0002:0000a6f4       ??_R3Fl_Gl_Device_Plugin@@8 004806f4     fltkgl:Fl_Gl_Device_Plugin.obj
 0002:0000a704       ??_R2Fl_Gl_Device_Plugin@@8 00480704     fltkgl:Fl_Gl_Device_Plugin.obj
 0002:0000a714       ??_R1A@?0A@EA@Fl_Gl_Device_Plugin@@8 00480714     fltkgl:Fl_Gl_Device_Plugin.obj
 0002:0000a730       ??_R4type_info@@6B@        00480730     MSVCRT:std_type_info_static.obj
 0002:0000a744       ??_R3type_info@@8          00480744     MSVCRT:std_type_info_static.obj
 0002:0000a754       ??_R2type_info@@8          00480754     MSVCRT:std_type_info_static.obj
 0002:0000a75c       ??_R1A@?0A@EA@type_info@@8 0048075c     MSVCRT:std_type_info_static.obj
 0002:0000a778       ??_R4bad_alloc@std@@6B@    00480778     MSVCRT:throw_bad_alloc.obj
 0002:0000a78c       ??_R3bad_alloc@std@@8      0048078c     MSVCRT:throw_bad_alloc.obj
 0002:0000a79c       ??_R2bad_alloc@std@@8      0048079c     MSVCRT:throw_bad_alloc.obj
 0002:0000a7a8       ??_R1A@?0A@EA@bad_alloc@std@@8 004807a8     MSVCRT:throw_bad_alloc.obj
 0002:0000a7c4       ??_R4bad_array_new_length@std@@6B@ 004807c4     MSVCRT:throw_bad_alloc.obj
 0002:0000a7d8       ??_R3bad_array_new_length@std@@8 004807d8     MSVCRT:throw_bad_alloc.obj
 0002:0000a7e8       ??_R2bad_array_new_length@std@@8 004807e8     MSVCRT:throw_bad_alloc.obj
 0002:0000a7f8       ??_R1A@?0A@EA@bad_array_new_length@std@@8 004807f8     MSVCRT:throw_bad_alloc.obj
 0002:0000abd0       ___rtc_iaa                 00480bd0     MSVCRT:_initsect_.obj
 0002:0000abd4       ___rtc_izz                 00480bd4     MSVCRT:_initsect_.obj
 0002:0000abd8       ___rtc_taa                 00480bd8     MSVCRT:_initsect_.obj
 0002:0000abdc       ___rtc_tzz                 00480bdc     MSVCRT:_initsect_.obj
 0002:0000b610       __TI3?AVObjTypeMismatch@@  00481610     parse.obj
 0002:0000b620       __CTA3?AVObjTypeMismatch@@ 00481620     parse.obj
 0002:0000b630       __CT??_R0?AVObjTypeMismatch@@@8??0ObjTypeMismatch@@QAE@ABV0@@Z24 00481630     parse.obj
 0002:0000b64c       __CT??_R0?AVParseError@@@8??0ParseError@@QAE@ABV0@@Z24 0048164c     parse.obj
 0002:0000b668       __CT??_R0?AVException@@@8??0Exception@@QAE@ABV0@@Z24 00481668     parse.obj
 0002:0000b684       __TI2?AVParseError@@       00481684     parse.obj
 0002:0000b694       __CTA2?AVParseError@@      00481694     parse.obj
 0002:0000c028       __CT??_R0?AVexception@std@@@8??0exception@std@@QAE@ABV01@@Z12 00482028     read.obj
 0002:0000c044       __TI2?AVbad_cast@std@@     00482044     read.obj
 0002:0000c054       __CTA2?AVbad_cast@std@@    00482054     read.obj
 0002:0000c060       __CT??_R0?AVbad_cast@std@@@8??0bad_cast@std@@QAE@ABV01@@Z12 00482060     read.obj
 0002:0000c07c       __TI1?AVSingularMatrixException@@ 0048207c     vecmath.obj
 0002:0000c08c       __CTA1?AVSingularMatrixException@@ 0048208c     vecmath.obj
 0002:0000c094       __CT??_R0?AVSingularMatrixException@@@81 00482094     vecmath.obj
 0002:0000d0b4       __TI2?AVbad_alloc@std@@    004830b4     MSVCRT:throw_bad_alloc.obj
 0002:0000d0c4       __CTA2?AVbad_alloc@std@@   004830c4     MSVCRT:throw_bad_alloc.obj
 0002:0000d0d0       __CT??_R0?AVbad_alloc@std@@@8??0bad_alloc@std@@QAE@ABV01@@Z12 004830d0     MSVCRT:throw_bad_alloc.obj
 0002:0000d0ec       __TI3?AVbad_array_new_length@std@@ 004830ec     MSVCRT:throw_bad_alloc.obj
 0002:0000d0fc       __CTA3?AVbad_array_new_length@std@@ 004830fc     MSVCRT:throw_bad_alloc.obj
 0002:0000d10c       __CT??_R0?AVbad_array_new_length@std@@@8??0bad_array_new_length@std@@QAE@ABV01@@Z12 0048310c     MSVCRT:throw_bad_alloc.obj
 0002:0000d14c       __IMPORT_DESCRIPTOR_OPENGL32 0048314c     opengl32:OPENGL32.dll
 0002:0000d160       __IMPORT_DESCRIPTOR_KERNEL32 00483160     kernel32:KERNEL32.dll
 0002:0000d174       __IMPORT_DESCRIPTOR_USER32 00483174     user32:USER32.dll
 0002:0000d188       __IMPORT_DESCRIPTOR_GDI32  00483188     gdi32:GDI32.dll
 0002:0000d19c       __IMPORT_DESCRIPTOR_ADVAPI32 0048319c     advapi32:ADVAPI32.dll
 0002:0000d1b0       __IMPORT_DESCRIPTOR_SHELL32 004831b0     shell32:SHELL32.dll
 0002:0000d1c4       __IMPORT_DESCRIPTOR_ole32  004831c4     ole32:ole32.dll
 0002:0000d1d8       __IMPORT_DESCRIPTOR_MSVCP140 004831d8     msvcprt:MSVCP140.dll
 0002:0000d1ec       __IMPORT_DESCRIPTOR_COMCTL32 004831ec     comctl32:COMCTL32.dll
 0002:0000d200       __IMPORT_DESCRIPTOR_VCRUNTIME140 00483200     vcruntime:VCRUNTIME140.dll
 0002:0000d214       __IMPORT_DESCRIPTOR_api-ms-win-crt-string-l1-1-0 00483214     ucrt:api-ms-win-crt-string-l1-1-0.dll
 0002:0000d228       __IMPORT_DESCRIPTOR_api-ms-win-crt-stdio-l1-1-0 00483228     ucrt:api-ms-win-crt-stdio-l1-1-0.dll
 0002:0000d23c       __IMPORT_DESCRIPTOR_api-ms-win-crt-runtime-l1-1-0 0048323c     ucrt:api-ms-win-crt-runtime-l1-1-0.dll
 0002:0000d250       __IMPORT_DESCRIPTOR_api-ms-win-crt-convert-l1-1-0 00483250     ucrt:api-ms-win-crt-convert-l1-1-0.dll
 0002:0000d264       __IMPORT_DESCRIPTOR_api-ms-win-crt-time-l1-1-0 00483264     ucrt:api-ms-win-crt-time-l1-1-0.dll
 0002:0000d278       __IMPORT_DESCRIPTOR_api-ms-win-crt-heap-l1-1-0 00483278     ucrt:api-ms-win-crt-heap-l1-1-0.dll
 0002:0000d28c       __IMPORT_DESCRIPTOR_api-ms-win-crt-filesystem-l1-1-0 0048328c     ucrt:api-ms-win-crt-filesystem-l1-1-0.dll
 0002:0000d2a0       __IMPORT_DESCRIPTOR_api-ms-win-crt-math-l1-1-0 004832a0     ucrt:api-ms-win-crt-math-l1-1-0.dll
 0002:0000d2b4       __IMPORT_DESCRIPTOR_api-ms-win-crt-utility-l1-1-0 004832b4     ucrt:api-ms-win-crt-utility-l1-1-0.dll
 0002:0000d2c8       __IMPORT_DESCRIPTOR_api-ms-win-crt-environment-l1-1-0 004832c8     ucrt:api-ms-win-crt-environment-l1-1-0.dll
 0002:0000d2dc       __IMPORT_DESCRIPTOR_api-ms-win-crt-process-l1-1-0 004832dc     ucrt:api-ms-win-crt-process-l1-1-0.dll
 0002:0000d2f0       __IMPORT_DESCRIPTOR_api-ms-win-crt-locale-l1-1-0 004832f0     ucrt:api-ms-win-crt-locale-l1-1-0.dll
 0002:0000d304       __NULL_IMPORT_DESCRIPTOR   00483304     opengl32:OPENGL32.dll
 0003:00000004       ?g_width@@3HA              00486004     main.obj
 0003:00000008       ?menuitems@TraceUI@@0PAUFl_Menu_Item@@A 00486008     TraceUI.obj
 0003:00000150       ?e_text@Fl@@2PADA          00486150     fltk:Fl.obj
 0003:00000154       ?e_clipboard_type@Fl@@2PBDB 00486154     fltk:Fl.obj
 0003:00000158       ?scrollbar_size_@Fl@@2HA   00486158     fltk:Fl.obj
 0003:0000015c       ?fl_lock_function@@3P6AXXZA 0048615c     fltk:Fl.obj
 0003:00000160       ?fl_unlock_function@@3P6AXXZA 00486160     fltk:Fl.obj
 0003:00000164       ?_display@Fl_Display_Device@@0PAV1@A 00486164     fltk:Fl.obj
 0003:00000168       ?enter@Fl_Tooltip@@2P6AXPAVFl_Widget@@@ZA 00486168     fltk:Fl.obj
 0003:0000016c       ?exit@Fl_Tooltip@@2P6AXPAVFl_Widget@@@ZA 0048616c     fltk:Fl.obj
 0003:00000178       ?fl_message_size_@@3HA     00486178     fltk:fl_ask.obj
 0003:0000017c       ?fl_no@@3PBDB              0048617c     fltk:fl_ask.obj
 0003:00000180       ?fl_yes@@3PBDB             00486180     fltk:fl_ask.obj
 0003:00000184       ?fl_ok@@3PBDB              00486184     fltk:fl_ask.obj
 0003:00000188       ?fl_cancel@@3PBDB          00486188     fltk:fl_ask.obj
 0003:0000018c       ?fl_close@@3PBDB           0048618c     fltk:fl_ask.obj
 0003:00000190       ?atclose@Fl@@2P6AXPAVFl_Window@@PAX@ZA 00486190     fltk:Fl_Window.obj
 0003:00000220       ?FL_NORMAL_SIZE@@3HA       00486220     fltk:Fl_Widget.obj
 0003:00000224       ?max_size_@Fl_RGB_Image@@0IA 00486224     fltk:Fl_Image.obj
 0003:00000228       ?delay_@Fl_Tooltip@@0MA    00486228     fltk:Fl_Tooltip.obj
 0003:0000022c       ?hoverdelay_@Fl_Tooltip@@0MA 0048622c     fltk:Fl_Tooltip.obj
 0003:00000230       ?textcolor_@Fl_Tooltip@@0IA 00486230     fltk:Fl_Tooltip.obj
 0003:00000234       ?size_@Fl_Tooltip@@0HA     00486234     fltk:Fl_Tooltip.obj
 0003:0000063c       ?lastEntrySet@Node@Fl_Preferences@@2HA 0048663c     fltk:Fl_Preferences.obj
 0003:00000654       ?class_id@Fl_Graphics_Driver@@2PBDB 00486654     fltk:Fl_Device.obj
 0003:00000658       ?class_id@Fl_GDI_Graphics_Driver@@2PBDB 00486658     fltk:Fl_Device.obj
 0003:0000065c       ?class_id@Fl_GDI_Printer_Graphics_Driver@@2PBDB 0048665c     fltk:Fl_Device.obj
 0003:00000660       ?class_id@Fl_Surface_Device@@2PBDB 00486660     fltk:Fl_Device.obj
 0003:00000664       ?class_id@Fl_Display_Device@@2PBDB 00486664     fltk:Fl_Device.obj
 0003:00000668       ?class_id@Fl_Device@@2PBDB 00486668     fltk:Fl_Device.obj
 0003:00000f10       ?fl_fonts@@3PAUFl_Fontdesc@@A 00486f10     fltk:fl_font.obj
 0003:000010ac       ?warning@Fl@@2P6AXPBDZZA   004870ac     fltk:Fl_abort.obj
 0003:000010b0       ?error@Fl@@2P6AXPBDZZA     004870b0     fltk:Fl_abort.obj
 0003:000010b4       ?fatal@Fl@@2P6AXPBDZZA     004870b4     fltk:Fl_abort.obj
 0003:000010b8       ?fullscreen_screen_top@Fl_Window@@0HA 004870b8     fltk:Fl_Window_fullscreen.obj
 0003:000010bc       ?fullscreen_screen_bottom@Fl_Window@@0HA 004870bc     fltk:Fl_Window_fullscreen.obj
 0003:000010c0       ?fullscreen_screen_left@Fl_Window@@0HA 004870c0     fltk:Fl_Window_fullscreen.obj
 0003:000010c4       ?fullscreen_screen_right@Fl_Window@@0HA 004870c4     fltk:Fl_Window_fullscreen.obj
 0003:000010c8       ?flIDropTarget@@3PAUIDropTarget@@A 004870c8     fltk:fl_dnd.obj
 0003:00001df8       ?add_favorites_label@Fl_File_Chooser@@2PBDB 00487df8     fltk:Fl_File_Chooser2.obj
 0003:00001dfc       ?all_files_label@Fl_File_Chooser@@2PBDB 00487dfc     fltk:Fl_File_Chooser2.obj
 0003:00001e00       ?custom_filter_label@Fl_File_Chooser@@2PBDB 00487e00     fltk:Fl_File_Chooser2.obj
 0003:00001e04       ?existing_file_label@Fl_File_Chooser@@2PBDB 00487e04     fltk:Fl_File_Chooser2.obj
 0003:00001e08       ?favorites_label@Fl_File_Chooser@@2PBDB 00487e08     fltk:Fl_File_Chooser2.obj
 0003:00001e0c       ?filename_label@Fl_File_Chooser@@2PBDB 00487e0c     fltk:Fl_File_Chooser2.obj
 0003:00001e10       ?filesystems_label@Fl_File_Chooser@@2PBDB 00487e10     fltk:Fl_File_Chooser2.obj
 0003:00001e14       ?manage_favorites_label@Fl_File_Chooser@@2PBDB 00487e14     fltk:Fl_File_Chooser2.obj
 0003:00001e18       ?new_directory_label@Fl_File_Chooser@@2PBDB 00487e18     fltk:Fl_File_Chooser2.obj
 0003:00001e1c       ?new_directory_tooltip@Fl_File_Chooser@@2PBDB 00487e1c     fltk:Fl_File_Chooser2.obj
 0003:00001e20       ?preview_label@Fl_File_Chooser@@2PBDB 00487e20     fltk:Fl_File_Chooser2.obj
 0003:00001e24       ?save_label@Fl_File_Chooser@@2PBDB 00487e24     fltk:Fl_File_Chooser2.obj
 0003:00001e28       ?show_label@Fl_File_Chooser@@2PBDB 00487e28     fltk:Fl_File_Chooser2.obj
 0003:00001e2c       ?hidden_label@Fl_File_Chooser@@2PBDB 00487e2c     fltk:Fl_File_Chooser2.obj
 0003:00001e30       ?sort@Fl_File_Chooser@@2P6AHPAPAUdirent@@0@ZA 00487e30     fltk:Fl_File_Chooser2.obj
 0003:00001e58       ___security_cookie_complement 00487e58     MSVCRT:gs_cookie.obj
 0003:00001e5c       ___security_cookie         00487e5c     MSVCRT:gs_cookie.obj
 0003:00001e60       __fltused                  00487e60     MSVCRT:fltused.obj
 0003:00001e64       ___scrt_native_dllmain_reason 00487e64     MSVCRT:utility.obj
 0003:00001e68       __Init_global_epoch        00487e68     MSVCRT:thread_safe_statics.obj
 0003:00001e70       ___scrt_default_matherr    00487e70     MSVCRT:matherr.obj
 0003:00001e80       ___isa_enabled             00487e80     MSVCRT:_cpu_disp_.obj
 0003:00001e84       ___scrt_ucrt_dll_is_in_use 00487e84     MSVCRT:ucrt_stubs.obj
 0003:00001e88       ??_R0?AVParseError@@@8     00487e88     RayTracer.obj
 0003:00001ea4       ??_R0?AVFl_Gl_Window@@@8   00487ea4     TraceGLWindow.obj
 0003:00001ec0       ??_R0?AVFl_Window@@@8      00487ec0     TraceGLWindow.obj
 0003:00001ed8       ??_R0?AVFl_Group@@@8       00487ed8     TraceGLWindow.obj
 0003:00001ef0       ??_R0?AVFl_Widget@@@8      00487ef0     TraceGLWindow.obj
 0003:00001f08       ??_R0?AVTraceGLWindow@@@8  00487f08     TraceGLWindow.obj
 0003:00001f24       ??_R0?AVObjTypeMismatch@@@8 00487f24     parse.obj
 0003:00001f44       ??_R0?AVException@@@8      00487f44     parse.obj
 0003:00001f5c       ??_R0?AVObj@@@8            00487f5c     parse.obj
 0003:00001f70       ??_R0?AVScalarObj@@@8      00487f70     parse.obj
 0003:00001f88       ??_R0?AVBooleanObj@@@8     00487f88     parse.obj
 0003:00001fa4       ??_R0?AVIdObj@@@8          00487fa4     parse.obj
 0003:00001fb8       ??_R0?AVStringObj@@@8      00487fb8     parse.obj
 0003:00001fd0       ??_R0?AVTupleObj@@@8       00487fd0     parse.obj
 0003:00001fe8       ??_R0?AVDictObj@@@8        00487fe8     parse.obj
 0003:00002000       ??_R0?AVNamedObj@@@8       00488000     parse.obj
 0003:00002018       ??_R0?AVexception@std@@@8  00488018     read.obj
 0003:00002034       ??_R0?AVbad_cast@std@@@8   00488034     read.obj
 0003:00002050       ??_R0?AV?$basic_filebuf@DU?$char_traits@D@std@@@std@@@8 00488050     read.obj
 0003:0000208c       ??_R0?AV?$basic_streambuf@DU?$char_traits@D@std@@@std@@@8 0048808c     read.obj
 0003:000020c8       ??_R0?AV?$basic_ifstream@DU?$char_traits@D@std@@@std@@@8 004880c8     read.obj
 0003:00002104       ??_R0?AV?$basic_istream@DU?$char_traits@D@std@@@std@@@8 00488104     read.obj
 0003:00002140       ??_R0?AV?$basic_ios@DU?$char_traits@D@std@@@std@@@8 00488140     read.obj
 0003:00002178       ??_R0?AVios_base@std@@@8   00488178     read.obj
 0003:00002194       ??_R0?AV?$_Iosb@H@std@@@8  00488194     read.obj
 0003:000021b0       ??_R0?AVstrstreambuf@std@@@8 004881b0     read.obj
 0003:000021d0       ??_R0?AVostrstream@std@@@8 004881d0     read.obj
 0003:000021f0       ??_R0?AV?$basic_ostream@DU?$char_traits@D@std@@@std@@@8 004881f0     read.obj
 0003:0000222c       ??_R0?AVScene@@@8          0048822c     read.obj
 0003:00002240       ??_R0?AVMaterial@@@8       00488240     read.obj
 0003:00002258       ??_R0?AVSceneObject@@@8    00488258     read.obj
 0003:00002274       ??_R0?AVGeometry@@@8       00488274     read.obj
 0003:0000228c       ??_R0?AVSceneElement@@@8   0048828c     read.obj
 0003:000022a8       ??_R0?AVLight@@@8          004882a8     read.obj
 0003:000022bc       ??_R0?AVMaterialSceneObject@@@8 004882bc     read.obj
 0003:000022e0       ??_R0?AVTrimesh@@@8        004882e0     read.obj
 0003:000022f8       ??_R0?AVBox@@@8            004882f8     read.obj
 0003:0000230c       ??_R0?AVCone@@@8           0048830c     read.obj
 0003:00002320       ??_R0?AVCylinder@@@8       00488320     read.obj
 0003:00002338       ??_R0?AVSphere@@@8         00488338     read.obj
 0003:00002350       ??_R0?AVSquare@@@8         00488350     read.obj
 0003:00002368       ??_R0?AVDirectionalLight@@@8 00488368     read.obj
 0003:00002388       ??_R0?AVPointLight@@@8     00488388     read.obj
 0003:000023a4       ??_R0?AVSingularMatrixException@@@8 004883a4     vecmath.obj
 0003:000023cc       ??_R0?AVTrimeshFace@@@8    004883cc     trimesh.obj
 0003:000023e8       ??_R0?AVFl_Image@@@8       004883e8     fltk:Fl.obj
 0003:00002400       ??_R0?AVFl_RGB_Image@@@8   00488400     fltk:Fl.obj
 0003:0000241c       ??_R0?AVFl_GDI_Graphics_Driver@@@8 0048841c     fltk:Fl.obj
 0003:00002444       ??_R0?AVFl_Graphics_Driver@@@8 00488444     fltk:Fl.obj
 0003:00002468       ??_R0?AVFl_Device@@@8      00488468     fltk:Fl.obj
 0003:00002480       ??_R0?AVFl_Surface_Device@@@8 00488480     fltk:Fl.obj
 0003:000024a0       ??_R0?AVFl_Input_Choice@@@8 004884a0     fltk:Fl_Group.obj
 0003:000024c0       ??_R0?AVInputMenuButton@Fl_Input_Choice@@@8 004884c0     fltk:Fl_Group.obj
 0003:000024f0       ??_R0?AVFl_Menu_Button@@@8 004884f0     fltk:Fl_Group.obj
 0003:00002510       ??_R0?AVFl_Menu_@@@8       00488510     fltk:Fl_Group.obj
 0003:00002528       ??_R0?AVFl_Spinner@@@8     00488528     fltk:Fl_Group.obj
 0003:00002544       ??_R0?AVFl_Menu_Bar@@@8    00488544     fltk:Fl_Menu_Bar.obj
 0003:00002560       ??_R0?AVFl_Valuator@@@8    00488560     fltk:Fl_Valuator.obj
 0003:0000257c       ??_R0?AVFl_Value_Slider@@@8 0048857c     fltk:Fl_Value_Slider.obj
 0003:0000259c       ??_R0?AVFl_Slider@@@8      0048859c     fltk:Fl_Value_Slider.obj
 0003:000025b4       ??_R0?AVFl_Hor_Value_Slider@@@8 004885b4     fltk:Fl_Value_Slider.obj
 0003:000025d8       ??_R0?AVFl_Button@@@8      004885d8     fltk:Fl_Button.obj
 0003:000025f0       ??_R0?AVFl_Radio_Button@@@8 004885f0     fltk:Fl_Button.obj
 0003:00002610       ??_R0?AVFl_Toggle_Button@@@8 00488610     fltk:Fl_Button.obj
 0003:00002630       ??_R0?AVFl_TooltipBox@@@8  00488630     fltk:Fl_Tooltip.obj
 0003:0000264c       ??_R0?AVFl_Menu_Window@@@8 0048864c     fltk:Fl_Tooltip.obj
 0003:0000266c       ??_R0?AVFl_Single_Window@@@8 0048866c     fltk:Fl_Tooltip.obj
 0003:0000268c       ??_R0?AVFl_Double_Window@@@8 0048868c     fltk:Fl_Double_Window.obj
 0003:000026ac       ??_R0?AVFl_Overlay_Window@@@8 004886ac     fltk:Fl_Double_Window.obj
 0003:000026cc       ??_R0?AVFl_Preferences@@@8 004886cc     fltk:Fl_Preferences.obj
 0003:000026ec       ??_R0?AVFl_Plugin@@@8      004886ec     fltk:Fl_Preferences.obj
 0003:00002704       ??_R0?AVFl_Plugin_Manager@@@8 00488704     fltk:Fl_Preferences.obj
 0003:00002724       ??_R0?AVFl_Display_Device@@@8 00488724     fltk:Fl_Device.obj
 0003:00002744       ??_R0?AVFl_Pixmap@@@8      00488744     fltk:Fl_Pixmap.obj
 0003:0000275c       ??_R0?AVFl_Bitmap@@@8      0048875c     fltk:Fl_Bitmap.obj
 0003:00002774       ??_R0?AUIUnknown@@@8       00488774     fltk:fl_dnd.obj
 0003:0000278c       ??_R0?AUIDataObject@@@8    0048878c     fltk:fl_dnd.obj
 0003:000027a8       ??_R0?AUIDropSource@@@8    004887a8     fltk:fl_dnd.obj
 0003:000027c4       ??_R0?AUIDropTarget@@@8    004887c4     fltk:fl_dnd.obj
 0003:000027e0       ??_R0?AVFLDropTarget@@@8   004887e0     fltk:fl_dnd.obj
 0003:000027fc       ??_R0?AVFLDropSource@@@8   004887fc     fltk:fl_dnd.obj
 0003:00002818       ??_R0?AVFLDataObject@@@8   00488818     fltk:fl_dnd.obj
 0003:00002834       ??_R0?AVFl_Box@@@8         00488834     fltk:Fl_Box.obj
 0003:0000284c       ??_R0?AVFl_Return_Button@@@8 0048884c     fltk:Fl_Return_Button.obj
 0003:0000286c       ??_R0?AVFl_Input_@@@8      0048886c     fltk:Fl_Input_.obj
 0003:00002884       ??_R0?AVFl_Input@@@8       00488884     fltk:Fl_Input.obj
 0003:0000289c       ??_R0?AVFl_Float_Input@@@8 0048889c     fltk:Fl_Input.obj
 0003:000028bc       ??_R0?AVFl_Int_Input@@@8   004888bc     fltk:Fl_Input.obj
 0003:000028d8       ??_R0?AVFl_Multiline_Input@@@8 004888d8     fltk:Fl_Input.obj
 0003:000028fc       ??_R0?AVFl_Output@@@8      004888fc     fltk:Fl_Input.obj
 0003:00002914       ??_R0?AVFl_Multiline_Output@@@8 00488914     fltk:Fl_Input.obj
 0003:00002938       ??_R0?AVFl_Secret_Input@@@8 00488938     fltk:Fl_Input.obj
 0003:00002958       ??_R0?AVFl_Repeat_Button@@@8 00488958     fltk:Fl_Repeat_Button.obj
 0003:00002978       ??_R0?AVmenutitle@@@8      00488978     fltk:Fl_Menu.obj
 0003:00002990       ??_R0?AVmenuwindow@@@8     00488990     fltk:Fl_Menu.obj
 0003:000029ac       ??_R0?AVFl_Fill_Slider@@@8 004889ac     fltk:Fl_Slider.obj
 0003:000029cc       ??_R0?AVFl_Hor_Slider@@@8  004889cc     fltk:Fl_Slider.obj
 0003:000029e8       ??_R0?AVFl_Hor_Fill_Slider@@@8 004889e8     fltk:Fl_Slider.obj
 0003:00002a0c       ??_R0?AVFl_Hor_Nice_Slider@@@8 00488a0c     fltk:Fl_Slider.obj
 0003:00002a30       ??_R0?AVFl_Nice_Slider@@@8 00488a30     fltk:Fl_Slider.obj
 0003:00002a50       ??_R0?AVFl_Tiled_Image@@@8 00488a50     fltk:Fl_Tiled_Image.obj
 0003:00002a70       ??_R0?AVFl_Choice@@@8      00488a70     fltk:Fl_Choice.obj
 0003:00002a88       ??_R0?AVFl_Tile@@@8        00488a88     fltk:Fl_Tile.obj
 0003:00002aa0       ??_R0?AVFl_Browser_@@@8    00488aa0     fltk:Fl_Browser_.obj
 0003:00002abc       ??_R0?AVFl_Browser@@@8     00488abc     fltk:Fl_File_Browser.obj
 0003:00002ad8       ??_R0?AVFl_File_Browser@@@8 00488ad8     fltk:Fl_File_Browser.obj
 0003:00002af8       ??_R0?AVFl_Check_Button@@@8 00488af8     fltk:Fl_Check_Button.obj
 0003:00002b18       ??_R0?AVFl_Light_Button@@@8 00488b18     fltk:Fl_Check_Button.obj
 0003:00002b38       ??_R0?AVFl_File_Input@@@8  00488b38     fltk:Fl_File_Input.obj
 0003:00002b54       ??_R0?AVFl_Hold_Browser@@@8 00488b54     fltk:Fl_Browser.obj
 0003:00002b74       ??_R0?AVFl_Multi_Browser@@@8 00488b74     fltk:Fl_Browser.obj
 0003:00002b94       ??_R0?AVFl_Select_Browser@@@8 00488b94     fltk:Fl_Browser.obj
 0003:00002bb4       ??_R0?AVFl_Shared_Image@@@8 00488bb4     fltk:Fl_Shared_Image.obj
 0003:00002bd4       ??_R0?AVFl_Scrollbar@@@8   00488bd4     fltk:Fl_Scrollbar.obj
 0003:00002bf0       ??_R0?AVFl_Radio_Light_Button@@@8 00488bf0     fltk:Fl_Light_Button.obj
 0003:00002c14       ??_R0?AVFl_XBM_Image@@@8   00488c14     fltk:Fl_XBM_Image.obj
 0003:00002c30       ??_R0?AVFl_XPM_Image@@@8   00488c30     fltk:Fl_XPM_Image.obj
 0003:00002c4c       ??_R0?AVFl_Device_Plugin@@@8 00488c4c     fltkgl:Fl_Gl_Device_Plugin.obj
 0003:00002c6c       ??_R0?AVFl_Gl_Device_Plugin@@@8 00488c6c     fltkgl:Fl_Gl_Device_Plugin.obj
 0003:00002c90       ??_R0?AVtype_info@@@8      00488c90     MSVCRT:std_type_info_static.obj
 0003:00002ca8       ??_R0?AVbad_alloc@std@@@8  00488ca8     MSVCRT:throw_bad_alloc.obj
 0003:00002cc4       ??_R0?AVbad_array_new_length@std@@@8 00488cc4     MSVCRT:throw_bad_alloc.obj
 0003:00002cf0       ?optarg@@3PADA             00488cf0     getopt.obj
 0003:00002cf4       ?optind@@3HA               00488cf4     getopt.obj
 0003:00002cf8       ?opterr@@3HA               00488cf8     getopt.obj
 0003:00002cfc       ?optopt@@3HA               00488cfc     getopt.obj
 0003:00002d00       ?theRayTracer@@3PAVRayTracer@@A 00488d00     main.obj
 0003:00002d04       ?traceUI@@3PAVTraceUI@@A   00488d04     main.obj
 0003:00002d08       ?recursion_depth@@3HA      00488d08     main.obj
 0003:00002d0c       ?g_height@@3HA             00488d0c     main.obj
 0003:00002d10       ?bReport@@3_NA             00488d10     main.obj
 0003:00002d14       ?progname@@3PADA           00488d14     main.obj
 0003:00002d18       ?rayName@@3PADA            00488d18     main.obj
 0003:00002d1c       ?imgName@@3PADA            00488d1c     main.obj
 0003:00002d20       ?_OptionsStorage@?1??__local_stdio_printf_options@@9@4_KA 00488d20     main.obj
 0003:00002d2c       ?bmfh@@3UBMP_BITMAPFILEHEADER@@A 00488d2c     bitmap.obj
 0003:00002d3c       ?bmih@@3UBMP_BITMAPINFOHEADER@@A 00488d3c     bitmap.obj
 0003:00002d64       ?_Stinit@?1??_Init@?$basic_filebuf@DU?$char_traits@D@std@@@std@@IAEXPAU_iobuf@@W4_Initfl@23@@Z@4U_Mbstatet@@A 00488d64     read.obj
 0003:00002d6c       ?_Psave@?$_Facetptr@V?$codecvt@DDU_Mbstatet@@@std@@@std@@2PBVfacet@locale@2@B 00488d6c     read.obj
 0003:00002d74       ?first@Fl_X@@2PAV1@A       00488d74     fltk:Fl.obj
 0003:00002d78       ?fl_wake_msg@@3IA          00488d78     fltk:Fl.obj
 0003:00002d94       ?fl_window@@3PAUHWND__@@A  00488d94     fltk:Fl.obj
 0003:00002d98       ?fl_gc@@3PAUHDC__@@A       00488d98     fltk:Fl.obj
 0003:00002d9c       ?fl_msg@@3UtagMSG@@A       00488d9c     fltk:Fl.obj
 0003:00002db8       ?fl_local_grab@@3P6AHH@ZA  00488db8     fltk:Fl.obj
 0003:00002dc4       ?fl_show_iconic@@3DA       00488dc4     fltk:Fl.obj
 0003:00002dc6       ?options_read_@Fl@@0EA     00488dc6     fltk:Fl.obj
 0003:00002dcc       ?fl_disable_transient_for@@3HA 00488dcc     fltk:Fl.obj
 0003:00002dec       ?e_number@Fl@@2HA          00488dec     fltk:Fl.obj
 0003:00002df0       ?e_x@Fl@@2HA               00488df0     fltk:Fl.obj
 0003:00002df4       ?e_y@Fl@@2HA               00488df4     fltk:Fl.obj
 0003:00002df8       ?e_x_root@Fl@@2HA          00488df8     fltk:Fl.obj
 0003:00002dfc       ?e_y_root@Fl@@2HA          00488dfc     fltk:Fl.obj
 0003:00002e00       ?e_dx@Fl@@2HA              00488e00     fltk:Fl.obj
 0003:00002e04       ?e_dy@Fl@@2HA              00488e04     fltk:Fl.obj
 0003:00002e08       ?e_state@Fl@@2HA           00488e08     fltk:Fl.obj
 0003:00002e0c       ?fl_oldfocus@@3PAVFl_Widget@@A 00488e0c     fltk:Fl.obj
 0003:00002e10       ?e_clicks@Fl@@2HA          00488e10     fltk:Fl.obj
 0003:00002e18       ?e_is_click@Fl@@2HA        00488e18     fltk:Fl.obj
 0003:00002e1c       ?e_keysym@Fl@@2HA          00488e1c     fltk:Fl.obj
 0003:00002e20       ?e_length@Fl@@2HA          00488e20     fltk:Fl.obj
 0003:00002e24       ?e_clipboard_data@Fl@@2PAXA 00488e24     fltk:Fl.obj
 0003:00002e28       ?e_dispatch@Fl@@2P6AHHPAVFl_Window@@@ZA 00488e28     fltk:Fl.obj
 0003:00002e2c       ?belowmouse_@Fl@@2PAVFl_Widget@@A 00488e2c     fltk:Fl.obj
 0003:00002e30       ?pushed_@Fl@@2PAVFl_Widget@@A 00488e30     fltk:Fl.obj
 0003:00002e34       ?focus_@Fl@@2PAVFl_Widget@@A 00488e34     fltk:Fl.obj
 0003:00002e38       ?damage_@Fl@@2HA           00488e38     fltk:Fl.obj
 0003:00002e3c       ?selection_owner_@Fl@@2PAVFl_Widget@@A 00488e3c     fltk:Fl.obj
 0003:00002e40       ?modal_@Fl@@2PAVFl_Window@@A 00488e40     fltk:Fl.obj
 0003:00002e44       ?grab_@Fl@@2PAVFl_Window@@A 00488e44     fltk:Fl.obj
 0003:00002e48       ?options_@Fl@@0PAEA        00488e48     fltk:Fl.obj
 0003:00002e50       ?idle@Fl@@2P6AXXZA         00488e50     fltk:Fl.obj
 0003:00002e54       ?e_original_keysym@Fl@@2HA 00488e54     fltk:Fl.obj
 0003:00002e58       ?fl_selection_buffer@@3PAPADA 00488e58     fltk:Fl.obj
 0003:00002e60       ?fl_selection_length@@3PAHA 00488e60     fltk:Fl.obj
 0003:00002e68       ?fl_selection_buffer_length@@3PAHA 00488e68     fltk:Fl.obj
 0003:00002e70       ?fl_i_own_selection@@3PADA 00488e70     fltk:Fl.obj
 0003:00002e80       ?fl_capture@@3PAUHWND__@@A 00488e80     fltk:Fl.obj
 0003:00002e84       ?current_@Fl_Window@@1PAV1@A 00488e84     fltk:Fl.obj
 0003:00002ea0       ?fl_xfocus@@3PAVFl_Window@@A 00488ea0     fltk:Fl.obj
 0003:00002ea4       ?fl_xmousewin@@3PAVFl_Window@@A 00488ea4     fltk:Fl.obj
 0003:00002eb4       ?fl_display@@3PAUHINSTANCE__@@A 00488eb4     fltk:Fl.obj
 0003:00004108       ?fl_message_font_@@3HA     0048a108     fltk:fl_ask.obj
 0003:00004130       ?default_xclass_@Fl_Window@@0PADA 0048a130     fltk:Fl_Window.obj
 0003:00004134       ?current_@Fl_Group@@0PAV1@A 0048a134     fltk:Fl_Group.obj
 0003:00004138       ?fl_menu_array_owner@@3PAVFl_Menu_@@A 0048a138     fltk:Fl_Menu_.obj
 0003:0000413c       ?key_release_tracker@Fl_Button@@1PAVFl_Widget_Tracker@@A 0048a13c     fltk:Fl_Button.obj
 0003:000053d8       ?awake_ring_@Fl@@2PAP6AXPAX@ZA 0048b3d8     fltk:Fl_lock.obj
 0003:000053dc       ?awake_data_@Fl@@2PAPAXA   0048b3dc     fltk:Fl_lock.obj
 0003:000053e0       ?awake_ring_size_@Fl@@2HA  0048b3e0     fltk:Fl_lock.obj
 0003:000053e4       ?awake_ring_head_@Fl@@2HA  0048b3e4     fltk:Fl_lock.obj
 0003:000053e8       ?awake_ring_tail_@Fl@@2HA  0048b3e8     fltk:Fl_lock.obj
 0003:000053ec       ?cs@@3U_RTL_CRITICAL_SECTION@@A 0048b3ec     fltk:Fl_lock.obj
 0003:00005404       ?cs_ring@@3PAU_RTL_CRITICAL_SECTION@@A 0048b404     fltk:Fl_lock.obj
 0003:0000540c       ?compose_state@Fl@@2HA     0048b40c     fltk:Fl_compose.obj
 0003:000054a8       ?RGB_scaling_@Fl_Image@@0W4Fl_RGB_Scaling@@A 0048b4a8     fltk:Fl_Image.obj
 0003:000054ac       ?font_@Fl_Tooltip@@0HA     0048b4ac     fltk:Fl_Tooltip.obj
 0003:000054b0       ?widget_@Fl_Tooltip@@0PAVFl_Widget@@A 0048b4b0     fltk:Fl_Tooltip.obj
 0003:000054b8       ?color_@Fl_Tooltip@@0IA    0048b4b8     fltk:Fl_Tooltip.obj
 0003:000054d0       ?fl_palette@@3PAUHPALETTE__@@A 0048b4d0     fltk:fl_color.obj
 0003:000054d4       ?fl_current_xmap@@3PAUFl_XMap@@A 0048b4d4     fltk:fl_color.obj
 0003:000054d8       ?fl_xmap@@3PAUFl_XMap@@A   0048b4d8     fltk:fl_color.obj
 0003:000061c0       ?nameBuffer@Fl_Preferences@@0PADA 0048c1c0     fltk:Fl_Preferences.obj
 0003:00006240       ?uuidBuffer@Fl_Preferences@@0PADA 0048c240     fltk:Fl_Preferences.obj
 0003:00006268       ?runtimePrefs@Fl_Preferences@@0PAV1@A 0048c268     fltk:Fl_Preferences.obj
 0003:00006270       ?_surface@Fl_Surface_Device@@0PAV1@A 0048c270     fltk:Fl_Device.obj
 0003:00006274       ?fl_graphics_driver@@3PAVFl_Graphics_Driver@@A 0048c274     fltk:Fl_Device.obj
 0003:00006278       ?fl_line_width_@@3HA       0048c278     fltk:fl_line_style.obj
 0003:0000629c       ?pixmap_bg_color@Fl_Pixmap@@0IA 0048c29c     fltk:Fl_Pixmap.obj
 0003:000062a0       ?_OptionsStorage@?1??__local_stdio_scanf_options@@9@4_KA 0048c2a0     fltk:Fl_Pixmap.obj
 0003:00006710       ?scheme_@Fl@@2PBDB         0048c710     fltk:Fl_get_system_colors.obj
 0003:00006714       ?scheme_bg_@Fl@@2PAVFl_Image@@A 0048c714     fltk:Fl_get_system_colors.obj
 0003:0000671c       ?fl_fg@@3PBDB              0048c71c     fltk:Fl_get_system_colors.obj
 0003:00006720       ?fl_bg@@3PBDB              0048c720     fltk:Fl_get_system_colors.obj
 0003:00006724       ?fl_bg2@@3PBDB             0048c724     fltk:Fl_get_system_colors.obj
 0003:00006b50       ?no_fullscreen_x@Fl_Window@@0HA 0048cb50     fltk:Fl_Window_fullscreen.obj
 0003:00006b54       ?no_fullscreen_y@Fl_Window@@0HA 0048cb54     fltk:Fl_Window_fullscreen.obj
 0003:00006b58       ?no_fullscreen_w@Fl_Window@@0HA 0048cb58     fltk:Fl_Window_fullscreen.obj
 0003:00006b5c       ?no_fullscreen_h@Fl_Window@@0HA 0048cb5c     fltk:Fl_Window_fullscreen.obj
 0003:00006b60       ?fl_dnd_target_window@@3PAVFl_Window@@A 0048cb60     fltk:fl_dnd.obj
 0003:00006b64       ?currDragRef@FLDropTarget@@0PAUIDataObject@@A 0048cb64     fltk:fl_dnd.obj
 0003:00006b68       ?currDragData@FLDropTarget@@0PADA 0048cb68     fltk:fl_dnd.obj
 0003:00006b6c       ?currDragSize@FLDropTarget@@0HA 0048cb6c     fltk:fl_dnd.obj
 0003:00006b70       ?currDragResult@FLDropTarget@@0DA 0048cb70     fltk:fl_dnd.obj
 0003:00006b74       ?flDropTarget@@3VFLDropTarget@@A 0048cb74     fltk:fl_dnd.obj
 0003:00006b8c       ?fl_codepage@@3IA          0048cb8c     fltk:fl_utf8.obj
 0003:00006be0       ?up_down_pos@Fl_Input_@@0NA 0048cbe0     fltk:Fl_Input_.obj
 0003:00006be8       ?was_up_down@Fl_Input_@@0HA 0048cbe8     fltk:Fl_Input_.obj
 0003:00006c20       ?fl_draw_shortcut@@3DA     0048cc20     fltk:fl_draw.obj
 0003:00006c30       ?shape_data_@Fl_Window@@1PAUshape_data_type@1@A 0048cc30     fltk:Fl_Window_shape.obj
 0003:00006c9c       ?prefs_@Fl_File_Chooser@@0VFl_Preferences@@A 0048cc9c     fltk:Fl_File_Chooser2.obj
 0003:000074a8       ?fl_mask_bitmap@@3PAPAEA   0048d4a8     fltk:fl_draw_pixmap.obj
 0003:000074ac       ?win_pixmap_bg_color@@3IA  0048d4ac     fltk:fl_draw_pixmap.obj
 0003:00007ed4       ?first_@Fl_File_Icon@@0PAV1@A 0048ded4     fltk:Fl_File_Icon.obj
 0003:00007ed8       ?images_@Fl_Shared_Image@@1PAPAV1@A 0048ded8     fltk:Fl_Shared_Image.obj
 0003:00007edc       ?num_images_@Fl_Shared_Image@@1HA 0048dedc     fltk:Fl_Shared_Image.obj
 0003:00007ee0       ?alloc_images_@Fl_Shared_Image@@1HA 0048dee0     fltk:Fl_Shared_Image.obj
 0003:00007ee4       ?handlers_@Fl_Shared_Image@@1PAP6APAVFl_Image@@PBDPAEH@ZA 0048dee4     fltk:Fl_Shared_Image.obj
 0003:00007ee8       ?num_handlers_@Fl_Shared_Image@@1HA 0048dee8     fltk:Fl_Shared_Image.obj
 0003:00007eec       ?alloc_handlers_@Fl_Shared_Image@@1HA 0048deec     fltk:Fl_Shared_Image.obj
 0003:00007ef1       ?fl_overlay@@3EA           0048def1     fltkgl:Fl_Gl_Window.obj
 0003:00007ef4       ?fl_overlay_depth@@3HA     0048def4     fltkgl:Fl_Gl_Window.obj
 0003:00007f18       ?fl_gl_load_plugin@@3HA    0048df18     fltkgl:Fl_Gl_Device_Plugin.obj
 0003:0000824c       ___scrt_current_native_startup_state 0048e24c     MSVCRT:utility.obj
 0003:00008250       ___scrt_native_startup_lock 0048e250     MSVCRT:utility.obj
 0003:00008298       __tls_index                0048e298     MSVCRT:tlssup.obj
 0003:000082a0       ?__type_info_root_node@@3U__type_info_node@@A 0048e2a0     MSVCRT:tncleanup.obj
 0003:000082a8       ___scrt_debugger_hook_flag 0048e2a8     MSVCRT:utility_desktop.obj
 0003:000082ac       ___isa_available           0048e2ac     MSVCRT:_cpu_disp_.obj
 0003:000082b0       ___favor                   0048e2b0     MSVCRT:_cpu_disp_.obj
 0003:000082c0       ?_OptionsStorage@?1??__local_stdio_printf_options@@9@9 0048e2c0     <common>
 0003:000082c8       ___dyn_tls_dtor_callback   0048e2c8     <common>
 0003:000082cc       ___dyn_tls_init_callback   0048e2cc     <common>
 0005:00000000       __tls_start                00490000     MSVCRT:tlssup.obj
 0005:00000004       __Init_thread_epoch        00490004     MSVCRT:thread_safe_statics.obj
 0005:00000008       __tls_end                  00490008     MSVCRT:tlssup.obj

 entry point at        0001:00070b52

 Static symbols

 0000:fff6e000       .debug$S                   00400000     ucrt:api-ms-win-crt-stdio-l1-1-0.dll
 0000:fff6e000       .debug$S                   00400000     ucrt:api-ms-win-crt-heap-l1-1-0.dll
 0000:fff6e000       .debug$S                   00400000     ucrt:api-ms-win-crt-heap-l1-1-0.dll
 0004:fff71000       __guard_fids__             00400000     MSVCRT:throw_bad_alloc.obj
 0000:fff6e000       .debug$S                   00400000     ucrt:api-ms-win-crt-heap-l1-1-0.dll
 0004:fff71000       __guard_fids__             00400000     MSVCRT:throw_bad_alloc.obj
 0000:fff6e000       .debug$S                   00400000     ucrt:api-ms-win-crt-heap-l1-1-0.dll
 0000:fff6e000       .debug$S                   00400000     vcruntime:VCRUNTIME140.dll
 0000:fff6e000       .debug$S                   00400000     opengl32:OPENGL32.dll
 0000:fff6e000       .debug$S                   00400000     vcruntime:VCRUNTIME140.dll
 0000:fff6e000       .debug$S                   00400000     vcruntime:VCRUNTIME140.dll
 0000:fff6e000       .debug$S                   00400000     ole32:ole32.dll
 0000:fff6e000       .debug$S                   00400000     ole32:ole32.dll
 0000:fff6e000       .debug$S                   00400000     ole32:ole32.dll
 0000:fff6e000       .debug$S                   00400000     ole32:ole32.dll
 0000:fff6e000       .debug$S                   00400000     ole32:ole32.dll
 0000:fff6e000       .debug$S                   00400000     shell32:SHELL32.dll
 0000:fff6e000       .debug$S                   00400000     vcruntime:VCRUNTIME140.dll
 0000:fff6e000       .debug$S                   00400000     vcruntime:VCRUNTIME140.dll
 0000:fff6e000       .debug$S                   00400000     advapi32:ADVAPI32.dll
 0000:fff6e000       .debug$S                   00400000     advapi32:ADVAPI32.dll
 0000:fff6e000       .debug$S                   00400000     vcruntime:VCRUNTIME140.dll
 0000:fff6e000       .debug$S                   00400000     ucrt:api-ms-win-crt-runtime-l1-1-0.dll
 0000:fff6e000       .debug$S                   00400000     advapi32:ADVAPI32.dll
 0000:fff6e000       .debug$S                   00400000     gdi32:GDI32.dll
 0000:fff6e000       .debug$S                   00400000     ucrt:api-ms-win-crt-runtime-l1-1-0.dll
 0000:fff6e000       .debug$S                   00400000     ucrt:api-ms-win-crt-runtime-l1-1-0.dll
 0000:fff6e000       .debug$S                   00400000     gdi32:GDI32.dll
 0000:fff6e000       .debug$S                   00400000     gdi32:GDI32.dll
 0000:fff6e000       .debug$S                   00400000     ucrt:api-ms-win-crt-runtime-l1-1-0.dll
 0000:fff6e000       .debug$S                   00400000     msvcprt:MSVCP140.dll
 0000:fff6e000       .debug$S                   00400000     msvcprt:MSVCP140.dll
 0000:fff6e000       .debug$S                   00400000     msvcprt:MSVCP140.dll
 0000:fff6e000       .debug$S                   00400000     msvcprt:MSVCP140.dll
 0000:fff6e000       .debug$S                   00400000     ucrt:api-ms-win-crt-heap-l1-1-0.dll
 0000:fff6e000       .debug$S                   00400000     ucrt:api-ms-win-crt-heap-l1-1-0.dll
 0000:fff6e000       .debug$S                   00400000     ucrt:api-ms-win-crt-filesystem-l1-1-0.dll
 0000:fff6e000       .debug$S                   00400000     ucrt:api-ms-win-crt-filesystem-l1-1-0.dll
 0000:fff6e000       .debug$S                   00400000     ucrt:api-ms-win-crt-filesystem-l1-1-0.dll
 0000:fff6e000       .debug$S                   00400000     ucrt:api-ms-win-crt-filesystem-l1-1-0.dll
 0000:fff6e000       .debug$S                   00400000     msvcprt:MSVCP140.dll
 0000:fff6e000       .debug$S                   00400000     msvcprt:MSVCP140.dll
 0000:fff6e000       .debug$S                   00400000     msvcprt:MSVCP140.dll
 0000:fff6e000       .debug$S                   00400000     msvcprt:MSVCP140.dll
 0000:fff6e000       .debug$S                   00400000     ucrt:api-ms-win-crt-runtime-l1-1-0.dll
 0001:fffff000       __ehhandler$?_Copy@?$basic_string@DU?$char_traits@D@std@@V?$allocator@D@2@@std@@QAEXII@Z 00400000 f   read.obj
 0000:fff6e000       .debug$S                   00400000     msvcprt:MSVCP140.dll
 0000:fff6e000       .debug$S                   00400000     msvcprt:MSVCP140.dll
 0000:fff6e000       .debug$S                   00400000     opengl32:OPENGL32.dll
 0000:fff6e000       .debug$S                   00400000     ucrt:api-ms-win-crt-filesystem-l1-1-0.dll
 0000:fff6e000       .debug$S                   00400000     ucrt:api-ms-win-crt-runtime-l1-1-0.dll
 0000:fff6e000       .debug$S                   00400000     ucrt:api-ms-win-crt-runtime-l1-1-0.dll
 0000:fff6e000       .debug$S                   00400000     vcruntime:VCRUNTIME140.dll
 0000:fff6e000       .debug$S                   00400000     vcruntime:VCRUNTIME140.dll
 0000:fff6e000       .debug$S                   00400000     vcruntime:VCRUNTIME140.dll
 0000:fff6e000       .debug$S                   00400000     vcruntime:VCRUNTIME140.dll
 0000:fff6e000       .debug$S                   00400000     vcruntime:VCRUNTIME140.dll
 0000:fff6e000       .debug$S                   00400000     comctl32:COMCTL32.dll
 0000:fff6e000       .debug$S                   00400000     ucrt:api-ms-win-crt-filesystem-l1-1-0.dll
 0000:fff6e000       .debug$S                   00400000     ucrt:api-ms-win-crt-filesystem-l1-1-0.dll
 0001:fffff000       __unwindfunclet$??$?6U?$char_traits@D@std@@@std@@YAAAV?$basic_ostream@DU?$char_traits@D@std@@@0@AAV10@PBD@Z$3 00400000 f   read.obj
 0000:fff6e000       .debug$S                   00400000     ucrt:api-ms-win-crt-filesystem-l1-1-0.dll
 0000:fff6e000       .debug$S                   00400000     ucrt:api-ms-win-crt-filesystem-l1-1-0.dll
 0000:fff6e000       .debug$S                   00400000     ucrt:api-ms-win-crt-filesystem-l1-1-0.dll
 0000:fff6e000       .debug$S                   00400000     msvcprt:MSVCP140.dll
 0000:fff6e000       .debug$S                   00400000     msvcprt:MSVCP140.dll
 0000:fff6e000       .debug$S                   00400000     ucrt:api-ms-win-crt-runtime-l1-1-0.dll
 0000:fff6e000       .debug$S                   00400000     ucrt:api-ms-win-crt-runtime-l1-1-0.dll
 0000:fff6e000       .debug$S                   00400000     ucrt:api-ms-win-crt-runtime-l1-1-0.dll
 0000:fff6e000       .debug$S                   00400000     ucrt:api-ms-win-crt-runtime-l1-1-0.dll
 0000:fff6e000       .debug$S                   00400000     ucrt:api-ms-win-crt-runtime-l1-1-0.dll
 0000:fff6e000       .debug$S                   00400000     opengl32:OPENGL32.dll
 0000:fff6e000       .debug$S                   00400000     opengl32:OPENGL32.dll
 0000:fff6e000       .debug$S                   00400000     ucrt:api-ms-win-crt-stdio-l1-1-0.dll
 0001:fffff000       __ehhandler$??1Fl_Browser@@UAE@XZ 00400000 f   fltk:Fl_Browser.obj
 0000:fff6e000       .debug$S                   00400000     msvcprt:MSVCP140.dll
 0000:fff6e000       .debug$S                   00400000     msvcprt:MSVCP140.dll
 0000:fff6e000       .debug$S                   00400000     ucrt:api-ms-win-crt-filesystem-l1-1-0.dll
 0000:fff6e000       .debug$S                   00400000     ucrt:api-ms-win-crt-environment-l1-1-0.dll
 0000:fff6e000       .debug$S                   00400000     ucrt:api-ms-win-crt-environment-l1-1-0.dll
 0000:fff6e000       .debug$S                   00400000     ucrt:api-ms-win-crt-environment-l1-1-0.dll
 0000:fff6e000       .debug$S                   00400000     ucrt:api-ms-win-crt-environment-l1-1-0.dll
 0002:fff8a000       __ehfuncinfo$??1Fl_Browser@@UAE@XZ 00400000     fltk:Fl_Browser.obj
 0000:fff6e000       .debug$S                   00400000     ucrt:api-ms-win-crt-convert-l1-1-0.dll
 0000:fff6e000       .debug$S                   00400000     ucrt:api-ms-win-crt-runtime-l1-1-0.dll
 0000:fff6e000       .debug$S                   00400000     ucrt:api-ms-win-crt-runtime-l1-1-0.dll
 0000:fff6e000       .debug$S                   00400000     ucrt:api-ms-win-crt-convert-l1-1-0.dll
 0000:fff6e000       .debug$S                   00400000     ucrt:api-ms-win-crt-convert-l1-1-0.dll
 0001:fffff000       __unwindfunclet$??$?6DU?$char_traits@D@std@@V?$allocator@D@1@@std@@YAAAV?$basic_ostream@DU?$char_traits@D@std@@@0@AAV10@ABV?$basic_string@DU?$char_traits@D@std@@V?$allocator@D@2@@0@@Z$7 00400000 f   read.obj
 0000:fff6e000       .debug$S                   00400000     msvcprt:MSVCP140.dll
 0000:fff6e000       .debug$S                   00400000     ucrt:api-ms-win-crt-locale-l1-1-0.dll
 0000:fff6e000       .debug$S                   00400000     ucrt:api-ms-win-crt-locale-l1-1-0.dll
 0000:fff6e000       .debug$S                   00400000     ucrt:api-ms-win-crt-stdio-l1-1-0.dll
 0000:fff6e000       .debug$S                   00400000     ucrt:api-ms-win-crt-runtime-l1-1-0.dll
 0000:fff6e000       .debug$S                   00400000     ucrt:api-ms-win-crt-math-l1-1-0.dll
 0000:fff6e000       .debug$S                   00400000     opengl32:OPENGL32.dll
 0000:fff6e000       .debug$S                   00400000     opengl32:OPENGL32.dll
 0000:fff6e000       .debug$S                   00400000     opengl32:OPENGL32.dll
 0000:fff6e000       .debug$S                   00400000     opengl32:OPENGL32.dll
 0000:fff6e000       .debug$S                   00400000     msvcprt:MSVCP140.dll
 0000:fff6e000       .debug$S                   00400000     msvcprt:MSVCP140.dll
 0000:fff6e000       .debug$S                   00400000     msvcprt:MSVCP140.dll
 0000:fff6e000       .debug$S                   00400000     opengl32:OPENGL32.dll
 0000:fff6e000       .debug$S                   00400000     ucrt:api-ms-win-crt-stdio-l1-1-0.dll
 0000:fff6e000       .debug$S                   00400000     ucrt:api-ms-win-crt-stdio-l1-1-0.dll
 0000:fff6e000       .debug$S                   00400000     msvcprt:MSVCP140.dll
 0000:fff6e000       .debug$S                   00400000     msvcprt:MSVCP140.dll
 0000:fff6e000       .debug$S                   00400000     opengl32:OPENGL32.dll
 0000:fff6e000       .debug$S                   00400000     ucrt:api-ms-win-crt-convert-l1-1-0.dll
 0000:fff6e000       .debug$S                   00400000     opengl32:OPENGL32.dll
 0000:fff6e000       .debug$S                   00400000     opengl32:OPENGL32.dll
 0000:fff6e000       .debug$S                   00400000     opengl32:OPENGL32.dll
 0000:fff6e000       .debug$S                   00400000     opengl32:OPENGL32.dll
 0000:fff6e000       .debug$S                   00400000     opengl32:OPENGL32.dll
 0000:fff6e000       .debug$S                   00400000     opengl32:OPENGL32.dll
 0000:fff6e000       .debug$S                   00400000     opengl32:OPENGL32.dll
 0000:fff6e000       .debug$S                   00400000     opengl32:OPENGL32.dll
 0000:fff6e000       .debug$S                   00400000     ucrt:api-ms-win-crt-convert-l1-1-0.dll
 0000:fff6e000       .debug$S                   00400000     opengl32:OPENGL32.dll
 0000:fff6e000       .debug$S                   00400000     vcruntime:VCRUNTIME140.dll
 0000:fff6e000       .debug$S                   00400000     vcruntime:VCRUNTIME140.dll
 0000:fff6e000       .debug$S                   00400000     vcruntime:VCRUNTIME140.dll
 0002:fff8a000       __unwindtable$??0Fl_Pixmap@@QAE@PBQBD@Z 00400000     fltk:Fl_get_system_colors.obj
 0000:fff6e000       .debug$S                   00400000     opengl32:OPENGL32.dll
 0000:fff6e000       .debug$S                   00400000     msvcprt:MSVCP140.dll
 0000:fff6e000       .debug$S                   00400000     msvcprt:MSVCP140.dll
 0001:fffff000       __unwindfunclet$??0Fl_Pixmap@@QAE@PBQBD@Z$0 00400000 f   fltk:Fl_get_system_colors.obj
 0000:fff6e000       .debug$S                   00400000     msvcprt:MSVCP140.dll
 0000:fff6e000       .debug$S                   00400000     msvcprt:MSVCP140.dll
 0000:fff6e000       .debug$S                   00400000     msvcprt:MSVCP140.dll
 0000:fff6e000       .debug$S                   00400000     msvcprt:MSVCP140.dll
 0000:fff6e000       .debug$S                   00400000     opengl32:OPENGL32.dll
 0000:fff6e000       .debug$S                   00400000     msvcprt:MSVCP140.dll
 0000:fff6e000       .debug$S                   00400000     opengl32:OPENGL32.dll
 0000:fff6e000       .debug$S                   00400000     ucrt:api-ms-win-crt-runtime-l1-1-0.dll
 0000:fff6e000       .debug$S                   00400000     ucrt:api-ms-win-crt-runtime-l1-1-0.dll
 0000:fff6e000       .debug$S                   00400000     ucrt:api-ms-win-crt-runtime-l1-1-0.dll
 0000:fff6e000       .debug$S                   00400000     ucrt:api-ms-win-crt-runtime-l1-1-0.dll
 0000:fff6e000       .debug$S                   00400000     vcruntime:VCRUNTIME140.dll
 0000:fff6e000       .debug$S                   00400000     vcruntime:VCRUNTIME140.dll
 0000:fff6e000       .debug$S                   00400000     ucrt:api-ms-win-crt-runtime-l1-1-0.dll
 0000:fff6e000       .debug$S                   00400000     ucrt:api-ms-win-crt-runtime-l1-1-0.dll
 0000:fff6e000       .debug$S                   00400000     ucrt:api-ms-win-crt-runtime-l1-1-0.dll
 0000:fff6e000       .debug$S                   00400000     ucrt:api-ms-win-crt-runtime-l1-1-0.dll
 0000:fff6e000       .debug$S                   00400000     msvcprt:MSVCP140.dll
 0000:fff6e000       .debug$S                   00400000     msvcprt:MSVCP140.dll
 0000:fff6e000       .debug$S                   00400000     msvcprt:MSVCP140.dll
 0000:fff6e000       .debug$S                   00400000     msvcprt:MSVCP140.dll
 0000:fff6e000       .debug$S                   00400000     ucrt:api-ms-win-crt-runtime-l1-1-0.dll
 0000:fff6e000       .debug$S                   00400000     ucrt:api-ms-win-crt-runtime-l1-1-0.dll
 0000:fff6e000       .debug$S                   00400000     opengl32:OPENGL32.dll
 0000:fff6e000       .debug$S                   00400000     opengl32:OPENGL32.dll
 0000:fff6e000       .debug$S                   00400000     msvcprt:MSVCP140.dll
 0000:fff6e000       .debug$S                   00400000     ucrt:api-ms-win-crt-runtime-l1-1-0.dll
 0000:fff6e000       .debug$S                   00400000     ucrt:api-ms-win-crt-runtime-l1-1-0.dll
 0000:fff6e000       .debug$S                   00400000     opengl32:OPENGL32.dll
 0000:fff6e000       .debug$S                   00400000     ucrt:api-ms-win-crt-utility-l1-1-0.dll
 0000:fff6e000       .debug$S                   00400000     ucrt:api-ms-win-crt-utility-l1-1-0.dll
 0000:fff6e000       .debug$S                   00400000     ucrt:api-ms-win-crt-utility-l1-1-0.dll
 0000:fff6e000       .debug$S                   00400000     ucrt:api-ms-win-crt-utility-l1-1-0.dll
 0000:fff6e000       .debug$S                   00400000     opengl32:OPENGL32.dll
 0000:fff6e000       .debug$S                   00400000     opengl32:OPENGL32.dll
 0000:fff6e000       .debug$S                   00400000     opengl32:OPENGL32.dll
 0000:fff6e000       .debug$S                   00400000     kernel32:KERNEL32.dll
 0000:fff6e000       .debug$S                   00400000     kernel32:KERNEL32.dll
 0000:fff6e000       .debug$S                   00400000     kernel32:KERNEL32.dll
 0000:fff6e000       .debug$S                   00400000     ucrt:api-ms-win-crt-time-l1-1-0.dll
 0000:fff6e000       .debug$S                   00400000     ucrt:api-ms-win-crt-time-l1-1-0.dll
 0000:fff6e000       .debug$S                   00400000     ucrt:api-ms-win-crt-string-l1-1-0.dll
 0000:fff6e000       .debug$S                   00400000     ucrt:api-ms-win-crt-string-l1-1-0.dll
 0000:fff6e000       .debug$S                   00400000     ucrt:api-ms-win-crt-string-l1-1-0.dll
 0000:fff6e000       .debug$S                   00400000     ucrt:api-ms-win-crt-string-l1-1-0.dll
 0000:fff6e000       .debug$S                   00400000     ucrt:api-ms-win-crt-string-l1-1-0.dll
 0000:fff6e000       .debug$S                   00400000     ucrt:api-ms-win-crt-runtime-l1-1-0.dll
 0000:fff6e000       .debug$S                   00400000     ucrt:api-ms-win-crt-runtime-l1-1-0.dll
 0000:fff6e000       .debug$S                   00400000     opengl32:OPENGL32.dll
 0000:fff6e000       .debug$S                   00400000     ucrt:api-ms-win-crt-process-l1-1-0.dll
 0000:fff6e000       .debug$S                   00400000     ucrt:api-ms-win-crt-math-l1-1-0.dll
 0000:fff6e000       .debug$S                   00400000     ucrt:api-ms-win-crt-string-l1-1-0.dll
 0000:fff6e000       .debug$S                   00400000     ucrt:api-ms-win-crt-string-l1-1-0.dll
 0000:fff6e000       .debug$S                   00400000     ucrt:api-ms-win-crt-string-l1-1-0.dll
 0000:fff6e000       .debug$S                   00400000     msvcprt:MSVCP140.dll
 0000:fff6e000       .debug$S                   00400000     msvcprt:MSVCP140.dll
 0000:fff6e000       .debug$S                   00400000     ucrt:api-ms-win-crt-math-l1-1-0.dll
 0000:fff6e000       .debug$S                   00400000     ucrt:api-ms-win-crt-math-l1-1-0.dll
 0000:fff6e000       .debug$S                   00400000     msvcprt:MSVCP140.dll
 0000:fff6e000       .debug$S                   00400000     msvcprt:MSVCP140.dll
 0000:fff6e000       .debug$S                   00400000     ucrt:api-ms-win-crt-string-l1-1-0.dll
 0000:fff6e000       .debug$S                   00400000     ucrt:api-ms-win-crt-string-l1-1-0.dll
 0000:fff6e000       .debug$S                   00400000     ucrt:api-ms-win-crt-string-l1-1-0.dll
 0000:fff6e000       .debug$S                   00400000     ucrt:api-ms-win-crt-math-l1-1-0.dll
 0000:fff6e000       .debug$S                   00400000     ucrt:api-ms-win-crt-math-l1-1-0.dll
 0000:fff6e000       .debug$S                   00400000     ucrt:api-ms-win-crt-math-l1-1-0.dll
 0000:fff6e000       .debug$S                   00400000     msvcprt:MSVCP140.dll
 0000:fff6e000       .debug$S                   00400000     ucrt:api-ms-win-crt-math-l1-1-0.dll
 0000:fff6e000       .debug$S                   00400000     ucrt:api-ms-win-crt-math-l1-1-0.dll
 0000:fff6e000       .debug$S                   00400000     ucrt:api-ms-win-crt-math-l1-1-0.dll
 0000:fff6e000       .debug$S                   00400000     ucrt:api-ms-win-crt-math-l1-1-0.dll
 0000:fff6e000       .debug$S                   00400000     ucrt:api-ms-win-crt-math-l1-1-0.dll
 0000:fff6e000       .debug$S                   00400000     opengl32:OPENGL32.dll
 0000:fff6e000       .debug$S                   00400000     opengl32:OPENGL32.dll
 0000:fff6e000       .debug$S                   00400000     opengl32:OPENGL32.dll
 0000:fff6e000       .debug$S                   00400000     opengl32:OPENGL32.dll
 0000:fff6e000       .debug$S                   00400000     opengl32:OPENGL32.dll
 0000:fff6e000       .debug$S                   00400000     ucrt:api-ms-win-crt-string-l1-1-0.dll
 0000:fff6e000       .debug$S                   00400000     kernel32:KERNEL32.dll
 0000:fff6e000       .debug$S                   00400000     kernel32:KERNEL32.dll
 0001:fffff000       __ehhandler$??1_Sentry_base@?$basic_ostream@DU?$char_traits@D@std@@@std@@QAE@XZ 00400000 f   read.obj
 0000:fff6e000       .debug$S                   00400000     msvcprt:MSVCP140.dll
 0001:fffff000       __unwindfunclet$??1sentry@?$basic_ostream@DU?$char_traits@D@std@@@std@@QAE@XZ$0 00400000 f   read.obj
 0000:fff6e000       .debug$S                   00400000     msvcprt:MSVCP140.dll
 0000:fff6e000       .debug$S                   00400000     ucrt:api-ms-win-crt-convert-l1-1-0.dll
 0000:fff6e000       .debug$S                   00400000     kernel32:KERNEL32.dll
 0000:fff6e000       .debug$S                   00400000     kernel32:KERNEL32.dll
 0000:fff6e000       .debug$S                   00400000     msvcprt:MSVCP140.dll
 0000:fff6e000       .debug$S                   00400000     msvcprt:MSVCP140.dll
 0000:fff6e000       .debug$S                   00400000     msvcprt:MSVCP140.dll
 0000:fff6e000       .debug$S                   00400000     gdi32:GDI32.dll
 0000:fff6e000       .debug$S                   00400000     ucrt:api-ms-win-crt-math-l1-1-0.dll
 0000:fff6e000       .debug$S                   00400000     ucrt:api-ms-win-crt-math-l1-1-0.dll
 0000:fff6e000       .debug$S                   00400000     ucrt:api-ms-win-crt-math-l1-1-0.dll
 0000:fff6e000       .debug$S                   00400000     msvcprt:MSVCP140.dll
 0002:fff8a000       __catchsym$?_Copy@?$basic_string@DU?$char_traits@D@std@@V?$allocator@D@2@@std@@QAEXII@Z$111 00400000     read.obj
 0000:fff6e000       .debug$S                   00400000     gdi32:GDI32.dll
 0000:fff6e000       .debug$S                   00400000     gdi32:GDI32.dll
 0000:fff6e000       .debug$S                   00400000     gdi32:GDI32.dll
 0000:fff6e000       .debug$S                   00400000     gdi32:GDI32.dll
 0000:fff6e000       .debug$S                   00400000     gdi32:GDI32.dll
 0000:fff6e000       .debug$S                   00400000     gdi32:GDI32.dll
 0000:fff6e000       .debug$S                   00400000     gdi32:GDI32.dll
 0000:fff6e000       .debug$S                   00400000     gdi32:GDI32.dll
 0000:fff6e000       .debug$S                   00400000     msvcprt:MSVCP140.dll
 0000:fff6e000       .debug$S                   00400000     kernel32:KERNEL32.dll
 0000:fff6e000       .debug$S                   00400000     kernel32:KERNEL32.dll
 0002:fff8a000       __catchsym$??$?6U?$char_traits@D@std@@@std@@YAAAV?$basic_ostream@DU?$char_traits@D@std@@@0@AAV10@PBD@Z$10 00400000     read.obj
 0000:fff6e000       .debug$S                   00400000     gdi32:GDI32.dll
 0000:fff6e000       .debug$S                   00400000     gdi32:GDI32.dll
 0000:fff6e000       .debug$S                   00400000     gdi32:GDI32.dll
 0000:fff6e000       .debug$S                   00400000     gdi32:GDI32.dll
 0000:fff6e000       .debug$S                   00400000     gdi32:GDI32.dll
 0000:fff6e000       .debug$S                   00400000     gdi32:GDI32.dll
 0000:fff6e000       .debug$S                   00400000     gdi32:GDI32.dll
 0000:fff6e000       .debug$S                   00400000     gdi32:GDI32.dll
 0000:fff6e000       .debug$S                   00400000     gdi32:GDI32.dll
 0000:fff6e000       .debug$S                   00400000     gdi32:GDI32.dll
 0000:fff6e000       .debug$S                   00400000     gdi32:GDI32.dll
 0000:fff6e000       .debug$S                   00400000     gdi32:GDI32.dll
 0000:fff6e000       .debug$S                   00400000     gdi32:GDI32.dll
 0000:fff6e000       .debug$S                   00400000     gdi32:GDI32.dll
 0000:fff6e000       .debug$S                   00400000     kernel32:KERNEL32.dll
 0000:fff6e000       .debug$S                   00400000     kernel32:KERNEL32.dll
 0000:fff6e000       .debug$S                   00400000     kernel32:KERNEL32.dll
 0002:fff8a000       __catchsym$??$?6DU?$char_traits@D@std@@V?$allocator@D@1@@std@@YAAAV?$basic_ostream@DU?$char_traits@D@std@@@0@AAV10@ABV?$basic_string@DU?$char_traits@D@std@@V?$allocator@D@2@@0@@Z$17 00400000     read.obj
 0000:fff6e000       .debug$S                   00400000     gdi32:GDI32.dll
 0000:fff6e000       .debug$S                   00400000     gdi32:GDI32.dll
 0000:fff6e000       .debug$S                   00400000     gdi32:GDI32.dll
 0000:fff6e000       .debug$S                   00400000     gdi32:GDI32.dll
 0000:fff6e000       .debug$S                   00400000     gdi32:GDI32.dll
 0000:fff6e000       .debug$S                   00400000     gdi32:GDI32.dll
 0000:fff6e000       .debug$S                   00400000     gdi32:GDI32.dll
 0000:fff6e000       .debug$S                   00400000     gdi32:GDI32.dll
 0000:fff6e000       .debug$S                   00400000     gdi32:GDI32.dll
 0000:fff6e000       .debug$S                   00400000     gdi32:GDI32.dll
 0000:fff6e000       .debug$S                   00400000     gdi32:GDI32.dll
 0000:fff6e000       .debug$S                   00400000     gdi32:GDI32.dll
 0000:fff6e000       .debug$S                   00400000     gdi32:GDI32.dll
 0000:fff6e000       .debug$S                   00400000     gdi32:GDI32.dll
 0000:fff6e000       .debug$S                   00400000     gdi32:GDI32.dll
 0000:fff6e000       .debug$S                   00400000     gdi32:GDI32.dll
 0000:fff6e000       .debug$S                   00400000     gdi32:GDI32.dll
 0000:fff6e000       .debug$S                   00400000     gdi32:GDI32.dll
 0000:fff6e000       .debug$S                   00400000     gdi32:GDI32.dll
 0000:fff6e000       .debug$S                   00400000     gdi32:GDI32.dll
 0000:fff6e000       .debug$S                   00400000     gdi32:GDI32.dll
 0000:fff6e000       .debug$S                   00400000     gdi32:GDI32.dll
 0000:fff6e000       .debug$S                   00400000     gdi32:GDI32.dll
 0000:fff6e000       .debug$S                   00400000     gdi32:GDI32.dll
 0000:fff6e000       .debug$S                   00400000     gdi32:GDI32.dll
 0000:fff6e000       .debug$S                   00400000     gdi32:GDI32.dll
 0000:fff6e000       .debug$S                   00400000     gdi32:GDI32.dll
 0000:fff6e000       .debug$S                   00400000     gdi32:GDI32.dll
 0000:fff6e000       .debug$S                   00400000     gdi32:GDI32.dll
 0000:fff6e000       .debug$S                   00400000     user32:USER32.dll
 0000:fff6e000       .debug$S                   00400000     user32:USER32.dll
 0000:fff6e000       .debug$S                   00400000     user32:USER32.dll
 0000:fff6e000       .debug$S                   00400000     user32:USER32.dll
 0000:fff6e000       .debug$S                   00400000     user32:USER32.dll
 0000:fff6e000       .debug$S                   00400000     user32:USER32.dll
 0000:fff6e000       .debug$S                   00400000     user32:USER32.dll
 0000:fff6e000       .debug$S                   00400000     user32:USER32.dll
 0000:fff6e000       .debug$S                   00400000     user32:USER32.dll
 0000:fff6e000       .debug$S                   00400000     user32:USER32.dll
 0000:fff6e000       .debug$S                   00400000     user32:USER32.dll
 0000:fff6e000       .debug$S                   00400000     user32:USER32.dll
 0002:fff8a000       __ehfuncinfo$??1_Sentry_base@?$basic_ostream@DU?$char_traits@D@std@@@std@@QAE@XZ 00400000     read.obj
 0000:fff6e000       .debug$S                   00400000     kernel32:KERNEL32.dll
 0002:fff8a000       __unwindtable$??1sentry@?$basic_ostream@DU?$char_traits@D@std@@@std@@QAE@XZ 00400000     read.obj
 0000:fff6e000       .debug$S                   00400000     user32:USER32.dll
 0000:fff6e000       .debug$S                   00400000     user32:USER32.dll
 0000:fff6e000       .debug$S                   00400000     user32:USER32.dll
 0000:fff6e000       .debug$S                   00400000     user32:USER32.dll
 0000:fff6e000       .debug$S                   00400000     user32:USER32.dll
 0000:fff6e000       .debug$S                   00400000     user32:USER32.dll
 0000:fff6e000       .debug$S                   00400000     user32:USER32.dll
 0000:fff6e000       .debug$S                   00400000     user32:USER32.dll
 0000:fff6e000       .debug$S                   00400000     user32:USER32.dll
 0000:fff6e000       .debug$S                   00400000     user32:USER32.dll
 0000:fff6e000       .debug$S                   00400000     user32:USER32.dll
 0000:fff6e000       .debug$S                   00400000     user32:USER32.dll
 0000:fff6e000       .debug$S                   00400000     kernel32:KERNEL32.dll
 0000:fff6e000       .debug$S                   00400000     kernel32:KERNEL32.dll
 0000:fff6e000       .debug$S                   00400000     kernel32:KERNEL32.dll
 0000:fff6e000       .debug$S                   00400000     kernel32:KERNEL32.dll
 0000:fff6e000       .debug$S                   00400000     kernel32:KERNEL32.dll
 0000:fff6e000       .debug$S                   00400000     kernel32:KERNEL32.dll
 0000:fff6e000       .debug$S                   00400000     kernel32:KERNEL32.dll
 0000:fff6e000       .debug$S                   00400000     kernel32:KERNEL32.dll
 0000:fff6e000       .debug$S                   00400000     kernel32:KERNEL32.dll
 0001:fffff000       __ehhandler$?_Copy@?$basic_string@DU?$char_traits@D@std@@V?$allocator@D@2@@std@@QAEXII@Z 00400000 f   parse.obj
 0000:fff6e000       .debug$S                   00400000     kernel32:KERNEL32.dll
 0000:fff6e000       .debug$S                   00400000     kernel32:KERNEL32.dll
 0000:fff6e000       .debug$S                   00400000     ucrt:api-ms-win-crt-string-l1-1-0.dll
 0000:fff6e000       .debug$S                   00400000     kernel32:KERNEL32.dll
 0000:fff6e000       .debug$S                   00400000     ucrt:api-ms-win-crt-string-l1-1-0.dll
 0000:fff6e000       .debug$S                   00400000     ucrt:api-ms-win-crt-string-l1-1-0.dll
 0000:fff6e000       .debug$S                   00400000     ucrt:api-ms-win-crt-string-l1-1-0.dll
 0000:fff6e000       .debug$S                   00400000     opengl32:OPENGL32.dll
 0000:fff6e000       .debug$S                   00400000     ucrt:api-ms-win-crt-string-l1-1-0.dll
 0000:fff6e000       .debug$S                   00400000     kernel32:KERNEL32.dll
 0000:fff6e000       .debug$S                   00400000     ucrt:api-ms-win-crt-string-l1-1-0.dll
 0000:fff6e000       .debug$S                   00400000     ucrt:api-ms-win-crt-string-l1-1-0.dll
 0000:fff6e000       .debug$S                   00400000     ucrt:api-ms-win-crt-string-l1-1-0.dll
 0000:fff6e000       .debug$S                   00400000     ucrt:api-ms-win-crt-string-l1-1-0.dll
 0000:fff6e000       .debug$S                   00400000     ucrt:api-ms-win-crt-string-l1-1-0.dll
 0000:fff6e000       .debug$S                   00400000     kernel32:KERNEL32.dll
 0000:fff6e000       .debug$S                   00400000     ucrt:api-ms-win-crt-string-l1-1-0.dll
 0000:fff6e000       .debug$S                   00400000     ucrt:api-ms-win-crt-stdio-l1-1-0.dll
 0000:fff6e000       .debug$S                   00400000     ucrt:api-ms-win-crt-stdio-l1-1-0.dll
 0000:fff6e000       .debug$S                   00400000     ucrt:api-ms-win-crt-stdio-l1-1-0.dll
 0000:fff6e000       .debug$S                   00400000     kernel32:KERNEL32.dll
 0000:fff6e000       .debug$S                   00400000     kernel32:KERNEL32.dll
 0000:fff6e000       .debug$S                   00400000     kernel32:KERNEL32.dll
 0000:fff6e000       .debug$S                   00400000     kernel32:KERNEL32.dll
 0000:fff6e000       .debug$S                   00400000     kernel32:KERNEL32.dll
 0000:fff6e000       .debug$S                   00400000     ucrt:api-ms-win-crt-stdio-l1-1-0.dll
 0000:fff6e000       .debug$S                   00400000     ucrt:api-ms-win-crt-stdio-l1-1-0.dll
 0000:fff6e000       .debug$S                   00400000     ucrt:api-ms-win-crt-stdio-l1-1-0.dll
 0000:fff6e000       .debug$S                   00400000     ucrt:api-ms-win-crt-stdio-l1-1-0.dll
 0000:fff6e000       .debug$S                   00400000     kernel32:KERNEL32.dll
 0000:fff6e000       .debug$S                   00400000     msvcprt:MSVCP140.dll
 0000:fff6e000       .debug$S                   00400000     ucrt:api-ms-win-crt-stdio-l1-1-0.dll
 0000:fff6e000       .debug$S                   00400000     ucrt:api-ms-win-crt-stdio-l1-1-0.dll
 0000:fff6e000       .debug$S                   00400000     msvcprt:MSVCP140.dll
 0000:fff6e000       .debug$S                   00400000     ucrt:api-ms-win-crt-stdio-l1-1-0.dll
 0000:fff6e000       .debug$S                   00400000     ucrt:api-ms-win-crt-stdio-l1-1-0.dll
 0000:fff6e000       .debug$S                   00400000     kernel32:KERNEL32.dll
 0000:fff6e000       .debug$S                   00400000     kernel32:KERNEL32.dll
 0002:fff8a000       __unwindtable$??0Fl_Pixmap@@QAE@PBQBD@Z 00400000     fltk:fl_cursor.obj
 0000:fff6e000       .debug$S                   00400000     kernel32:KERNEL32.dll
 0000:fff6e000       .debug$S                   00400000     kernel32:KERNEL32.dll
 0000:fff6e000       .debug$S                   00400000     kernel32:KERNEL32.dll
 0001:fffff000       __unwindfunclet$??0Fl_Pixmap@@QAE@PBQBD@Z$0 00400000 f   fltk:fl_cursor.obj
 0000:fff6e000       .debug$S                   00400000     kernel32:KERNEL32.dll
 0000:fff6e000       .debug$S                   00400000     user32:USER32.dll
 0000:fff6e000       .debug$S                   00400000     user32:USER32.dll
 0000:fff6e000       .debug$S                   00400000     user32:USER32.dll
 0000:fff6e000       .debug$S                   00400000     user32:USER32.dll
 0000:fff6e000       .debug$S                   00400000     user32:USER32.dll
 0000:fff6e000       .debug$S                   00400000     user32:USER32.dll
 0000:fff6e000       .debug$S                   00400000     user32:USER32.dll
 0000:fff6e000       .debug$S                   00400000     msvcprt:MSVCP140.dll
 0000:fff6e000       .debug$S                   00400000     msvcprt:MSVCP140.dll
 0000:fff6e000       .debug$S                   00400000     user32:USER32.dll
 0000:fff6e000       .debug$S                   00400000     ucrt:api-ms-win-crt-stdio-l1-1-0.dll
 0000:fff6e000       .debug$S                   00400000     msvcprt:MSVCP140.dll
 0000:fff6e000       .debug$S                   00400000     msvcprt:MSVCP140.dll
 0000:fff6e000       .debug$S                   00400000     user32:USER32.dll
 0000:fff6e000       .debug$S                   00400000     ucrt:api-ms-win-crt-stdio-l1-1-0.dll
 0000:fff6e000       .debug$S                   00400000     ucrt:api-ms-win-crt-stdio-l1-1-0.dll
 0000:fff6e000       .debug$S                   00400000     ucrt:api-ms-win-crt-stdio-l1-1-0.dll
 0000:fff6e000       .debug$S                   00400000     user32:USER32.dll
 0000:fff6e000       .debug$S                   00400000     user32:USER32.dll
 0000:fff6e000       .debug$S                   00400000     user32:USER32.dll
 0000:fff6e000       .debug$S                   00400000     user32:USER32.dll
 0000:fff6e000       .debug$S                   00400000     user32:USER32.dll
 0000:fff6e000       .debug$S                   00400000     user32:USER32.dll
 0000:fff6e000       .debug$S                   00400000     ucrt:api-ms-win-crt-stdio-l1-1-0.dll
 0000:fff6e000       .debug$S                   00400000     user32:USER32.dll
 0000:fff6e000       .debug$S                   00400000     user32:USER32.dll
 0000:fff6e000       .debug$S                   00400000     user32:USER32.dll
 0000:fff6e000       .debug$S                   00400000     user32:USER32.dll
 0000:fff6e000       .debug$S                   00400000     user32:USER32.dll
 0000:fff6e000       .debug$S                   00400000     user32:USER32.dll
 0000:fff6e000       .debug$S                   00400000     ucrt:api-ms-win-crt-stdio-l1-1-0.dll
 0000:fff6e000       .debug$S                   00400000     user32:USER32.dll
 0000:fff6e000       .debug$S                   00400000     user32:USER32.dll
 0000:fff6e000       .debug$S                   00400000     user32:USER32.dll
 0000:fff6e000       .debug$S                   00400000     ucrt:api-ms-win-crt-stdio-l1-1-0.dll
 0000:fff6e000       .debug$S                   00400000     user32:USER32.dll
 0000:fff6e000       .debug$S                   00400000     user32:USER32.dll
 0000:fff6e000       .debug$S                   00400000     user32:USER32.dll
 0000:fff6e000       .debug$S                   00400000     user32:USER32.dll
 0000:fff6e000       .debug$S                   00400000     user32:USER32.dll
 0000:fff6e000       .debug$S                   00400000     user32:USER32.dll
 0000:fff6e000       .debug$S                   00400000     user32:USER32.dll
 0000:fff6e000       .debug$S                   00400000     user32:USER32.dll
 0000:fff6e000       .debug$S                   00400000     user32:USER32.dll
 0000:fff6e000       .debug$S                   00400000     user32:USER32.dll
 0000:fff6e000       .debug$S                   00400000     user32:USER32.dll
 0000:fff6e000       .debug$S                   00400000     user32:USER32.dll
 0000:fff6e000       .debug$S                   00400000     user32:USER32.dll
 0000:fff6e000       .debug$S                   00400000     user32:USER32.dll
 0000:fff6e000       .debug$S                   00400000     user32:USER32.dll
 0002:fff8a000       __unwindtable$??0Fl_Pixmap@@QAE@PBQAD@Z 00400000     fltk:Fl_XPM_Image.obj
 0000:fff6e000       .debug$S                   00400000     user32:USER32.dll
 0000:fff6e000       .debug$S                   00400000     user32:USER32.dll
 0001:fffff000       __unwindfunclet$??0Fl_Pixmap@@QAE@PBQAD@Z$0 00400000 f   fltk:Fl_XPM_Image.obj
 0000:fff6e000       .debug$S                   00400000     user32:USER32.dll
 0000:fff6e000       .debug$S                   00400000     user32:USER32.dll
 0000:fff6e000       .debug$S                   00400000     user32:USER32.dll
 0000:fff6e000       .debug$S                   00400000     msvcprt:MSVCP140.dll
 0000:fff6e000       .debug$S                   00400000     user32:USER32.dll
 0000:fff6e000       .debug$S                   00400000     msvcprt:MSVCP140.dll
 0000:fff6e000       .debug$S                   00400000     user32:USER32.dll
 0000:fff6e000       .debug$S                   00400000     user32:USER32.dll
 0000:fff6e000       .debug$S                   00400000     user32:USER32.dll
 0000:fff6e000       .debug$S                   00400000     user32:USER32.dll
 0002:fff8a000       __catchsym$?_Copy@?$basic_string@DU?$char_traits@D@std@@V?$allocator@D@2@@std@@QAEXII@Z$111 00400000     parse.obj
 0000:fff6e000       .debug$S                   00400000     msvcprt:MSVCP140.dll
 0001:fffff006       __ehhandler$??1sentry@?$basic_ostream@DU?$char_traits@D@std@@@std@@QAE@XZ 00400006 f   read.obj
 0001:fffff008       __unwindfunclet$??$?6DU?$char_traits@D@std@@V?$allocator@D@1@@std@@YAAAV?$basic_ostream@DU?$char_traits@D@std@@@0@AAV10@ABV?$basic_string@DU?$char_traits@D@std@@V?$allocator@D@2@@0@@Z$2 00400008 f   read.obj
 0002:fff8a008       __ehfuncinfo$??1sentry@?$basic_ostream@DU?$char_traits@D@std@@@std@@QAE@XZ 00400008     read.obj
 0001:fffff008       __unwindfunclet$??$?6U?$char_traits@D@std@@@std@@YAAAV?$basic_ostream@DU?$char_traits@D@std@@@0@AAV10@PBD@Z$2 00400008 f   read.obj
 0001:fffff008       __ehhandler$??0Fl_Pixmap@@QAE@PBQAD@Z 00400008 f   fltk:Fl_XPM_Image.obj
 0001:fffff008       __ehhandler$??0Fl_Pixmap@@QAE@PBQBD@Z 00400008 f   fltk:Fl_get_system_colors.obj
 0002:fff8a008       __ehfuncinfo$??0Fl_Pixmap@@QAE@PBQAD@Z 00400008     fltk:Fl_XPM_Image.obj
 0002:fff8a008       __ehfuncinfo$??0Fl_Pixmap@@QAE@PBQBD@Z 00400008     fltk:Fl_get_system_colors.obj
 0002:fff8a008       __ehfuncinfo$??0Fl_Pixmap@@QAE@PBQBD@Z 00400008     fltk:fl_cursor.obj
 0001:fffff008       __ehhandler$??0Fl_Pixmap@@QAE@PBQBD@Z 00400008 f   fltk:fl_cursor.obj
 0002:fff8a010       __tryblocktable$??$?6U?$char_traits@D@std@@@std@@YAAAV?$basic_ostream@DU?$char_traits@D@std@@@0@AAV10@PBD@Z 00400010     read.obj
 0002:fff8a010       __tryblocktable$??$?6DU?$char_traits@D@std@@V?$allocator@D@1@@std@@YAAAV?$basic_ostream@DU?$char_traits@D@std@@@0@AAV10@ABV?$basic_string@DU?$char_traits@D@std@@V?$allocator@D@2@@0@@Z 00400010     read.obj
 0001:fffff010       __unwindfunclet$??$?6DU?$char_traits@D@std@@V?$allocator@D@1@@std@@YAAAV?$basic_ostream@DU?$char_traits@D@std@@@0@AAV10@ABV?$basic_string@DU?$char_traits@D@std@@V?$allocator@D@2@@0@@Z$15 00400010 f   read.obj
 0001:fffff010       __unwindfunclet$??$?6U?$char_traits@D@std@@@std@@YAAAV?$basic_ostream@DU?$char_traits@D@std@@@0@AAV10@PBD@Z$8 00400010 f   read.obj
 0002:fff8a010       __catchsym$?_Copy@?$basic_string@DU?$char_traits@D@std@@V?$allocator@D@2@@std@@QAEXII@Z$110 00400010     read.obj
 0002:fff8a010       __catchsym$?_Copy@?$basic_string@DU?$char_traits@D@std@@V?$allocator@D@2@@std@@QAEXII@Z$110 00400010     parse.obj
 0001:fffff016       __unwindfunclet$??$?6U?$char_traits@D@std@@@std@@YAAAV?$basic_ostream@DU?$char_traits@D@std@@@0@AAV10@PBD@Z$9 00400016 f   read.obj
 0001:fffff016       __unwindfunclet$??$?6DU?$char_traits@D@std@@V?$allocator@D@1@@std@@YAAAV?$basic_ostream@DU?$char_traits@D@std@@@0@AAV10@ABV?$basic_string@DU?$char_traits@D@std@@V?$allocator@D@2@@0@@Z$16 00400016 f   read.obj
 0001:fffff01c       __ehhandler$??$?6DU?$char_traits@D@std@@V?$allocator@D@1@@std@@YAAAV?$basic_ostream@DU?$char_traits@D@std@@@0@AAV10@ABV?$basic_string@DU?$char_traits@D@std@@V?$allocator@D@2@@0@@Z 0040001c f   read.obj
 0001:fffff01c       __ehhandler$??$?6U?$char_traits@D@std@@@std@@YAAAV?$basic_ostream@DU?$char_traits@D@std@@@0@AAV10@PBD@Z 0040001c f   read.obj
 0002:fff8a020       __unwindtable$?_Copy@?$basic_string@DU?$char_traits@D@std@@V?$allocator@D@2@@std@@QAEXII@Z 00400020     read.obj
 0002:fff8a020       __unwindtable$?_Copy@?$basic_string@DU?$char_traits@D@std@@V?$allocator@D@2@@std@@QAEXII@Z 00400020     parse.obj
 0002:fff8a024       __ehfuncinfo$??$?6U?$char_traits@D@std@@@std@@YAAAV?$basic_ostream@DU?$char_traits@D@std@@@0@AAV10@PBD@Z 00400024     read.obj
 0002:fff8a024       __ehfuncinfo$??$?6DU?$char_traits@D@std@@V?$allocator@D@1@@std@@YAAAV?$basic_ostream@DU?$char_traits@D@std@@@0@AAV10@ABV?$basic_string@DU?$char_traits@D@std@@V?$allocator@D@2@@0@@Z 00400024     read.obj
 0002:fff8a040       __ehfuncinfo$?_Copy@?$basic_string@DU?$char_traits@D@std@@V?$allocator@D@2@@std@@QAEXII@Z 00400040     parse.obj
 0002:fff8a040       __ehfuncinfo$?_Copy@?$basic_string@DU?$char_traits@D@std@@V?$allocator@D@2@@std@@QAEXII@Z 00400040     read.obj
 0002:fff8a048       __unwindtable$??$?6DU?$char_traits@D@std@@V?$allocator@D@1@@std@@YAAAV?$basic_ostream@DU?$char_traits@D@std@@@0@AAV10@ABV?$basic_string@DU?$char_traits@D@std@@V?$allocator@D@2@@0@@Z 00400048     read.obj
 0002:fff8a048       __unwindtable$??$?6U?$char_traits@D@std@@@std@@YAAAV?$basic_ostream@DU?$char_traits@D@std@@@0@AAV10@PBD@Z 00400048     read.obj
 0002:fff8a064       __tryblocktable$?_Copy@?$basic_string@DU?$char_traits@D@std@@V?$allocator@D@2@@std@@QAEXII@Z 00400064     read.obj
 0002:fff8a064       __tryblocktable$?_Copy@?$basic_string@DU?$char_traits@D@std@@V?$allocator@D@2@@std@@QAEXII@Z 00400064     parse.obj
 0001:fffff0c1       __catch$?_Copy@?$basic_string@DU?$char_traits@D@std@@V?$allocator@D@2@@std@@QAEXII@Z$0 004000c1 f   read.obj
 0001:fffff0c1       __catch$?_Copy@?$basic_string@DU?$char_traits@D@std@@V?$allocator@D@2@@std@@QAEXII@Z$0 004000c1 f   parse.obj
 0001:fffff16a       __catch$?_Copy@?$basic_string@DU?$char_traits@D@std@@V?$allocator@D@2@@std@@QAEXII@Z$1 0040016a f   read.obj
 0001:fffff16a       __catch$?_Copy@?$basic_string@DU?$char_traits@D@std@@V?$allocator@D@2@@std@@QAEXII@Z$1 0040016a f   parse.obj
 0001:fffff17c       __catch$??$?6DU?$char_traits@D@std@@V?$allocator@D@1@@std@@YAAAV?$basic_ostream@DU?$char_traits@D@std@@@0@AAV10@ABV?$basic_string@DU?$char_traits@D@std@@V?$allocator@D@2@@0@@Z$0 0040017c f   read.obj
 0001:fffff1bc       __catch$??$?6U?$char_traits@D@std@@@std@@YAAAV?$basic_ostream@DU?$char_traits@D@std@@@0@AAV10@PBD@Z$0 004001bc f   read.obj
 0001:00000000       ??__Efl_display@@YAXXZ     00401000 f   fltk:Fl.obj
 0001:00000020       ??__Efl_gdi_display@@YAXXZ 00401020 f   fltk:Fl.obj
 0001:00000050       ??__Efl_gdi_driver@@YAXXZ  00401050 f   fltk:Fl.obj
 0001:00000080       ??__Ewin32_at_exit@@YAXXZ  00401080 f   fltk:Fl.obj
 0001:000000a0       ??__Ecurrent_label@@YAXXZ  004010a0 f   fltk:fl_file_dir.obj
 0001:000000b0       ??__E?color_@Fl_Tooltip@@0IA@@YAXXZ 004010b0 f   fltk:Fl_Tooltip.obj
 0001:000000d0       ??__Etile@@YAXXZ           004010d0 f   fltk:Fl_get_system_colors.obj
 0001:00000100       ??__EflDropTarget@@YAXXZ   00401100 f   fltk:fl_dnd.obj
 0001:00000130       ??__Eimage_new@@YAXXZ      00401130 f   fltk:Fl_File_Chooser.obj
 0001:00000160       ??__E?prefs_@Fl_File_Chooser@@0VFl_Preferences@@A@@YAXXZ 00401160 f   fltk:Fl_File_Chooser2.obj
 0001:00000190       ??__EGl_Device_Plugin@@YAXXZ 00401190 f   fltkgl:Fl_Gl_Device_Plugin.obj
 0001:000001ca       ??__E_Fac_tidy_reg@std@@YAXXZ 004011ca f   msvcprt:locale0_implib.obj
 0001:0000040c       $LN19                      0040140c     main.obj
 0001:00000420       $LN16                      00401420     main.obj
 0001:00000881       __catch$?_Copy@?$basic_string@DU?$char_traits@D@std@@V?$allocator@D@2@@std@@QAEXII@Z$0 00401881 f i RayTracer.obj
 0001:0000092a       __catch$?_Copy@?$basic_string@DU?$char_traits@D@std@@V?$allocator@D@2@@std@@QAEXII@Z$1 0040192a f i RayTracer.obj
 0001:00000e55       __catch$?loadScene@RayTracer@@QAE_NPAD@Z$0 00401e55 f   RayTracer.obj
 0001:00002112       __catch$??$?0U?$_Wrap_alloc@V?$allocator@U?$_Tree_node@U?$pair@$$CBV?$basic_string@DU?$char_traits@D@std@@V?$allocator@D@2@@std@@PAVObj@@@std@@PAX@std@@@std@@@std@@@?$_Tree@V?$_Tmap_traits@V?$basic_string@DU?$char_traits@D@std@@V?$allocator@D@2@@std@@PAVObj@@U?$less@V?$basic_string@DU?$char_traits@D@std@@V?$allocator@D@2@@std@@@2@V?$allocator@U?$pair@$$CBV?$basic_string@DU?$char_traits@D@std@@V?$allocator@D@2@@std@@PAVObj@@@std@@@2@$0A@@std@@@std@@QAE@ABV01@$$QAU?$_Wrap_alloc@V?$allocator@U?$_Tree_node@U?$pair@$$CBV?$basic_string@DU?$char_traits@D@std@@V?$allocator@D@2@@std@@PAVObj@@@std@@PAX@std@@@std@@@1@@Z$0 00403112 f i parse.obj
 0001:000022ac       __catch$??$?6DU?$char_traits@D@std@@V?$allocator@D@1@@std@@YAAAV?$basic_ostream@DU?$char_traits@D@std@@@0@AAV10@ABV?$basic_string@DU?$char_traits@D@std@@V?$allocator@D@2@@0@@Z$0 004032ac f i parse.obj
 0001:000024a6       __catch$??$?6U?$char_traits@D@std@@@std@@YAAAV?$basic_ostream@DU?$char_traits@D@std@@@0@AAV10@D@Z$0 004034a6 f i parse.obj
 0001:000026fc       __catch$??$?6U?$char_traits@D@std@@@std@@YAAAV?$basic_ostream@DU?$char_traits@D@std@@@0@AAV10@PBD@Z$0 004036fc f i parse.obj
 0001:0000293b       __catch$??$_Buynode@AAU?$pair@$$CBV?$basic_string@DU?$char_traits@D@std@@V?$allocator@D@2@@std@@PAVObj@@@std@@@?$_Tree_comp_alloc@V?$_Tmap_traits@V?$basic_string@DU?$char_traits@D@std@@V?$allocator@D@2@@std@@PAVObj@@U?$less@V?$basic_string@DU?$char_traits@D@std@@V?$allocator@D@2@@std@@@2@V?$allocator@U?$pair@$$CBV?$basic_string@DU?$char_traits@D@std@@V?$allocator@D@2@@std@@PAVObj@@@std@@@2@$0A@@std@@@std@@QAEPAU?$_Tree_node@U?$pair@$$CBV?$basic_string@DU?$char_traits@D@std@@V?$allocator@D@2@@std@@PAVObj@@@std@@PAX@1@AAU?$pair@$$CBV?$basic_string@DU?$char_traits@D@std@@V?$allocator@D@2@@std@@PAVObj@@@1@@Z$0 0040393b f i parse.obj
 0001:000029fe       __catch$??$_Buynode@ABUpiecewise_construct_t@std@@V?$tuple@ABV?$basic_string@DU?$char_traits@D@std@@V?$allocator@D@2@@std@@@2@V?$tuple@$$V@2@@?$_Tree_comp_alloc@V?$_Tmap_traits@V?$basic_string@DU?$char_traits@D@std@@V?$allocator@D@2@@std@@PAVObj@@U?$less@V?$basic_string@DU?$char_traits@D@std@@V?$allocator@D@2@@std@@@2@V?$allocator@U?$pair@$$CBV?$basic_string@DU?$char_traits@D@std@@V?$allocator@D@2@@std@@PAVObj@@@std@@@2@$0A@@std@@@std@@QAEPAU?$_Tree_node@U?$pair@$$CBV?$basic_string@DU?$char_traits@D@std@@V?$allocator@D@2@@std@@PAVObj@@@std@@PAX@1@ABUpiecewise_construct_t@1@$$QAV?$tuple@ABV?$basic_string@DU?$char_traits@D@std@@V?$allocator@D@2@@std@@@1@$$QAV?$tuple@$$V@1@@Z$0 004039fe f i parse.obj
 0001:00002b3f       __catch$??$_Copy_nodes@U_Copy_tag@?$_Tree@V?$_Tmap_traits@V?$basic_string@DU?$char_traits@D@std@@V?$allocator@D@2@@std@@PAVObj@@U?$less@V?$basic_string@DU?$char_traits@D@std@@V?$allocator@D@2@@std@@@2@V?$allocator@U?$pair@$$CBV?$basic_string@DU?$char_traits@D@std@@V?$allocator@D@2@@std@@PAVObj@@@std@@@2@$0A@@std@@@std@@@?$_Tree@V?$_Tmap_traits@V?$basic_string@DU?$char_traits@D@std@@V?$allocator@D@2@@std@@PAVObj@@U?$less@V?$basic_string@DU?$char_traits@D@std@@V?$allocator@D@2@@std@@@2@V?$allocator@U?$pair@$$CBV?$basic_string@DU?$char_traits@D@std@@V?$allocator@D@2@@std@@PAVObj@@@std@@@2@$0A@@std@@@std@@IAEPAU?$_Tree_node@U?$pair@$$CBV?$basic_string@DU?$char_traits@D@std@@V?$allocator@D@2@@std@@PAVObj@@@std@@PAX@1@PAU21@0U_Copy_tag@01@@Z$0 00403b3f f i parse.obj
 0001:00002f3c       __catch$??$_Insert_hint@AAU?$pair@$$CBV?$basic_string@DU?$char_traits@D@std@@V?$allocator@D@2@@std@@PAVObj@@@std@@PAU?$_Tree_node@U?$pair@$$CBV?$basic_string@DU?$char_traits@D@std@@V?$allocator@D@2@@std@@PAVObj@@@std@@PAX@2@@?$_Tree@V?$_Tmap_traits@V?$basic_string@DU?$char_traits@D@std@@V?$allocator@D@2@@std@@PAVObj@@U?$less@V?$basic_string@DU?$char_traits@D@std@@V?$allocator@D@2@@std@@@2@V?$allocator@U?$pair@$$CBV?$basic_string@DU?$char_traits@D@std@@V?$allocator@D@2@@std@@PAVObj@@@std@@@2@$0A@@std@@@std@@IAE?AV?$_Tree_iterator@V?$_Tree_val@U?$_Tree_simple_types@U?$pair@$$CBV?$basic_string@DU?$char_traits@D@std@@V?$allocator@D@2@@std@@PAVObj@@@std@@@std@@@std@@@1@V?$_Tree_const_iterator@V?$_Tree_val@U?$_Tree_simple_types@U?$pair@$$CBV?$basic_string@DU?$char_traits@D@std@@V?$allocator@D@2@@std@@PAVObj@@@std@@@std@@@std@@@1@AAU?$pair@$$CBV?$basic_string@DU?$char_traits@D@std@@V?$allocator@D@2@@std@@PAVObj@@@1@PAU?$_Tree_node@U?$pair@$$CBV?$basic_string@DU?$char_traits@D@std@@V?$allocator@D@2@@std@@PAVObj@@@std@@PAX@1@@Z$0 00403f3c f i parse.obj
 0001:000031ca       __catch$??$_Insert_nohint@AAU?$pair@$$CBV?$basic_string@DU?$char_traits@D@std@@V?$allocator@D@2@@std@@PAVObj@@@std@@PAU?$_Tree_node@U?$pair@$$CBV?$basic_string@DU?$char_traits@D@std@@V?$allocator@D@2@@std@@PAVObj@@@std@@PAX@2@@?$_Tree@V?$_Tmap_traits@V?$basic_string@DU?$char_traits@D@std@@V?$allocator@D@2@@std@@PAVObj@@U?$less@V?$basic_string@DU?$char_traits@D@std@@V?$allocator@D@2@@std@@@2@V?$allocator@U?$pair@$$CBV?$basic_string@DU?$char_traits@D@std@@V?$allocator@D@2@@std@@PAVObj@@@std@@@2@$0A@@std@@@std@@IAE?AU?$pair@V?$_Tree_iterator@V?$_Tree_val@U?$_Tree_simple_types@U?$pair@$$CBV?$basic_string@DU?$char_traits@D@std@@V?$allocator@D@2@@std@@PAVObj@@@std@@@std@@@std@@@std@@_N@1@_NAAU?$pair@$$CBV?$basic_string@DU?$char_traits@D@std@@V?$allocator@D@2@@std@@PAVObj@@@1@PAU?$_Tree_node@U?$pair@$$CBV?$basic_string@DU?$char_traits@D@std@@V?$allocator@D@2@@std@@PAVObj@@@std@@PAX@1@@Z$0 004041ca f i parse.obj
 0001:00004640       ?eat@@YA_NAAV?$basic_istream@DU?$char_traits@D@std@@@std@@@Z 00405640 f   parse.obj
 0001:000057b0       ?readDict@@YAPAVObj@@AAV?$basic_istream@DU?$char_traits@D@std@@@std@@@Z 004067b0 f   parse.obj
 0001:00005b00       ?readID@@YA?AV?$basic_string@DU?$char_traits@D@std@@V?$allocator@D@2@@std@@AAV?$basic_istream@DU?$char_traits@D@std@@@2@@Z 00406b00 f   parse.obj
 0001:00005c80       ?readName@@YAPAVObj@@AAV?$basic_istream@DU?$char_traits@D@std@@@std@@@Z 00406c80 f   parse.obj
 0001:00005e20       ?readObject@@YAPAVObj@@AAV?$basic_istream@DU?$char_traits@D@std@@@std@@@Z 00406e20 f   parse.obj
 0001:00005ea0       ?readScalar@@YAPAVObj@@AAV?$basic_istream@DU?$char_traits@D@std@@@std@@@Z 00406ea0 f   parse.obj
 0001:00006030       ?readString@@YAPAVObj@@AAV?$basic_istream@DU?$char_traits@D@std@@@std@@@Z 00407030 f   parse.obj
 0001:000061c0       ?readTuple@@YAPAVObj@@AAV?$basic_istream@DU?$char_traits@D@std@@@std@@@Z 004071c0 f   parse.obj
 0001:000064ce       __catch$??$_Buynode@ABUpiecewise_construct_t@std@@V?$tuple@ABV?$basic_string@DU?$char_traits@D@std@@V?$allocator@D@2@@std@@@2@V?$tuple@$$V@2@@?$_Tree_comp_alloc@V?$_Tmap_traits@V?$basic_string@DU?$char_traits@D@std@@V?$allocator@D@2@@std@@PAVMaterial@@U?$less@V?$basic_string@DU?$char_traits@D@std@@V?$allocator@D@2@@std@@@2@V?$allocator@U?$pair@$$CBV?$basic_string@DU?$char_traits@D@std@@V?$allocator@D@2@@std@@PAVMaterial@@@std@@@2@$0A@@std@@@std@@QAEPAU?$_Tree_node@U?$pair@$$CBV?$basic_string@DU?$char_traits@D@std@@V?$allocator@D@2@@std@@PAVMaterial@@@std@@PAX@1@ABUpiecewise_construct_t@1@$$QAV?$tuple@ABV?$basic_string@DU?$char_traits@D@std@@V?$allocator@D@2@@std@@@1@$$QAV?$tuple@$$V@1@@Z$0 004074ce f i read.obj
 0001:000068cc       __catch$??$_Insert_hint@AAU?$pair@$$CBV?$basic_string@DU?$char_traits@D@std@@V?$allocator@D@2@@std@@PAVMaterial@@@std@@PAU?$_Tree_node@U?$pair@$$CBV?$basic_string@DU?$char_traits@D@std@@V?$allocator@D@2@@std@@PAVMaterial@@@std@@PAX@2@@?$_Tree@V?$_Tmap_traits@V?$basic_string@DU?$char_traits@D@std@@V?$allocator@D@2@@std@@PAVMaterial@@U?$less@V?$basic_string@DU?$char_traits@D@std@@V?$allocator@D@2@@std@@@2@V?$allocator@U?$pair@$$CBV?$basic_string@DU?$char_traits@D@std@@V?$allocator@D@2@@std@@PAVMaterial@@@std@@@2@$0A@@std@@@std@@IAE?AV?$_Tree_iterator@V?$_Tree_val@U?$_Tree_simple_types@U?$pair@$$CBV?$basic_string@DU?$char_traits@D@std@@V?$allocator@D@2@@std@@PAVMaterial@@@std@@@std@@@std@@@1@V?$_Tree_const_iterator@V?$_Tree_val@U?$_Tree_simple_types@U?$pair@$$CBV?$basic_string@DU?$char_traits@D@std@@V?$allocator@D@2@@std@@PAVMaterial@@@std@@@std@@@std@@@1@AAU?$pair@$$CBV?$basic_string@DU?$char_traits@D@std@@V?$allocator@D@2@@std@@PAVMaterial@@@1@PAU?$_Tree_node@U?$pair@$$CBV?$basic_string@DU?$char_traits@D@std@@V?$allocator@D@2@@std@@PAVMaterial@@@std@@PAX@1@@Z$0 004078cc f i read.obj
 0001:00006b5a       __catch$??$_Insert_nohint@AAU?$pair@$$CBV?$basic_string@DU?$char_traits@D@std@@V?$allocator@D@2@@std@@PAVMaterial@@@std@@PAU?$_Tree_node@U?$pair@$$CBV?$basic_string@DU?$char_traits@D@std@@V?$allocator@D@2@@std@@PAVMaterial@@@std@@PAX@2@@?$_Tree@V?$_Tmap_traits@V?$basic_string@DU?$char_traits@D@std@@V?$allocator@D@2@@std@@PAVMaterial@@U?$less@V?$basic_string@DU?$char_traits@D@std@@V?$allocator@D@2@@std@@@2@V?$allocator@U?$pair@$$CBV?$basic_string@DU?$char_traits@D@std@@V?$allocator@D@2@@std@@PAVMaterial@@@std@@@2@$0A@@std@@@std@@IAE?AU?$pair@V?$_Tree_iterator@V?$_Tree_val@U?$_Tree_simple_types@U?$pair@$$CBV?$basic_string@DU?$char_traits@D@std@@V?$allocator@D@2@@std@@PAVMaterial@@@std@@@std@@@std@@@std@@_N@1@_NAAU?$pair@$$CBV?$basic_string@DU?$char_traits@D@std@@V?$allocator@D@2@@std@@PAVMaterial@@@1@PAU?$_Tree_node@U?$pair@$$CBV?$basic_string@DU?$char_traits@D@std@@V?$allocator@D@2@@std@@PAVMaterial@@@std@@PAX@1@@Z$0 00407b5a f i read.obj
 0001:00009e10       ?getColorField@@YAPAVObj@@PAV1@@Z 0040ae10 f   read.obj
 0001:00009fb0       ?getField@@YAPAVObj@@PAV1@ABV?$basic_string@DU?$char_traits@D@std@@V?$allocator@D@2@@std@@@Z 0040afb0 f   read.obj
 0001:0000a110       ?getMaterial@@YAPAVMaterial@@PAVObj@@ABV?$map@V?$basic_string@DU?$char_traits@D@std@@V?$allocator@D@2@@std@@PAVMaterial@@U?$less@V?$basic_string@DU?$char_traits@D@std@@V?$allocator@D@2@@std@@@2@V?$allocator@U?$pair@$$CBV?$basic_string@DU?$char_traits@D@std@@V?$allocator@D@2@@std@@PAVMaterial@@@std@@@2@@std@@@Z 0040b110 f   read.obj
 0001:0000a330       ?maybeExtractField@@YA_NPAVObj@@ABV?$basic_string@DU?$char_traits@D@std@@V?$allocator@D@2@@std@@AAN@Z 0040b330 f   read.obj
 0001:0000a390       ?maybeExtractField@@YA_NPAVObj@@ABV?$basic_string@DU?$char_traits@D@std@@V?$allocator@D@2@@std@@AA_N@Z 0040b390 f   read.obj
 0001:0000a980       ?processCamera@@YAXPAVObj@@PAVScene@@@Z 0040b980 f   read.obj
 0001:0000b0e0       ?processGeometry@@YAXPAVObj@@PAVScene@@ABV?$map@V?$basic_string@DU?$char_traits@D@std@@V?$allocator@D@2@@std@@PAVMaterial@@U?$less@V?$basic_string@DU?$char_traits@D@std@@V?$allocator@D@2@@std@@@2@V?$allocator@U?$pair@$$CBV?$basic_string@DU?$char_traits@D@std@@V?$allocator@D@2@@std@@PAVMaterial@@@std@@@2@@std@@PAVTransformNode@@@Z 0040c0e0 f   read.obj
 0001:0000b390       ?processGeometry@@YAXV?$basic_string@DU?$char_traits@D@std@@V?$allocator@D@2@@std@@PAVObj@@PAVScene@@ABV?$map@V?$basic_string@DU?$char_traits@D@std@@V?$allocator@D@2@@std@@PAVMaterial@@U?$less@V?$basic_string@DU?$char_traits@D@std@@V?$allocator@D@2@@std@@@2@V?$allocator@U?$pair@$$CBV?$basic_string@DU?$char_traits@D@std@@V?$allocator@D@2@@std@@PAVMaterial@@@std@@@2@@2@PAVTransformNode@@@Z 0040c390 f   read.obj
 0001:0000bfa0       ?processMaterial@@YAPAVMaterial@@PAVObj@@PAV?$map@V?$basic_string@DU?$char_traits@D@std@@V?$allocator@D@2@@std@@PAVMaterial@@U?$less@V?$basic_string@DU?$char_traits@D@std@@V?$allocator@D@2@@std@@@2@V?$allocator@U?$pair@$$CBV?$basic_string@DU?$char_traits@D@std@@V?$allocator@D@2@@std@@PAVMaterial@@@std@@@2@@std@@@Z 0040cfa0 f   read.obj
 0001:0000c960       ?processObject@@YAXPAVObj@@PAVScene@@AAV?$map@V?$basic_string@DU?$char_traits@D@std@@V?$allocator@D@2@@std@@PAVMaterial@@U?$less@V?$basic_string@DU?$char_traits@D@std@@V?$allocator@D@2@@std@@@2@V?$allocator@U?$pair@$$CBV?$basic_string@DU?$char_traits@D@std@@V?$allocator@D@2@@std@@PAVMaterial@@@std@@@2@@std@@@Z 0040d960 f   read.obj
 0001:0000d090       ?processTrimesh@@YAXV?$basic_string@DU?$char_traits@D@std@@V?$allocator@D@2@@std@@PAVObj@@PAVScene@@ABV?$map@V?$basic_string@DU?$char_traits@D@std@@V?$allocator@D@2@@std@@PAVMaterial@@U?$less@V?$basic_string@DU?$char_traits@D@std@@V?$allocator@D@2@@std@@@2@V?$allocator@U?$pair@$$CBV?$basic_string@DU?$char_traits@D@std@@V?$allocator@D@2@@std@@PAVMaterial@@@std@@@2@@2@PAVTransformNode@@@Z 0040e090 f   read.obj
 0001:0000dc12       __catch$?readScene@@YAPAVScene@@ABV?$basic_string@DU?$char_traits@D@std@@V?$allocator@D@2@@std@@@Z$0 0040ec12 f   read.obj
 0001:0000e350       ?tupleToVec@@YA?AVvec3f@@PAVObj@@@Z 0040f350 f   read.obj
 0001:0000e660       ?verifyTuple@@YAXABV?$vector@PAVObj@@V?$allocator@PAVObj@@@std@@@std@@I@Z 0040f660 f   read.obj
 0001:0000e7e0       _memcpy_s                  0040f7e0 f   read.obj
 0001:00012456       __catch$?_Reallocate@?$vector@Vvec3f@@V?$allocator@Vvec3f@@@std@@@std@@IAEXI@Z$0 00413456 f i trimesh.obj
 0001:000135e2       __catch$?resize@?$vector@Vvec3f@@V?$allocator@Vvec3f@@@std@@@std@@QAEXI@Z$0 004145e2 f i trimesh.obj
 0001:00014e70       $LN180                     00415e70     fltk:Fl.obj
 0001:00016cec       $LN126                     00417cec     fltk:Fl.obj
 0001:00018db0       $LN22                      00419db0     fltk:Fl.obj
 0001:00018de0       $LN21                      00419de0     fltk:Fl.obj
 0001:00019ee0       ?run_checks@@YAXXZ         0041aee0 f   fltk:Fl.obj
 0001:0001a4e0       ?send_handlers@@YAHH@Z     0041b4e0 f   fltk:Fl.obj
 0001:0001a570       ?nothing@@YAXPAVFl_Widget@@@Z 0041b570 f   fltk:Fl.obj
 0001:0001a830       ?send@@YAHHPAVFl_Widget@@PAVFl_Window@@@Z 0041b830 f   fltk:Fl.obj
 0001:0001b030       ?fl_clipboard_notify_target@@YAXPAUHWND__@@@Z 0041c030 f   fltk:Fl.obj
 0001:0001b060       ?fl_clipboard_notify_untarget@@YAXPAUHWND__@@@Z 0041c060 f   fltk:Fl.obj
 0001:0001b140       ?get_wsock_mod@@YAPAUHINSTANCE__@@XZ 0041c140 f   fltk:Fl.obj
 0001:0001b1b0       ?get_imm_module@@YAXXZ     0041c1b0 f   fltk:Fl.obj
 0001:0001b240       ?nothing@@YAXXZ            0041c240 f   fltk:Fl.obj
 0001:0001b310       ?mouse_event@@YAHPAVFl_Window@@HHIJ@Z 0041c310 f   fltk:Fl.obj
 0001:0001b5c0       ?ms2fltk@@YAHIH@Z          0041c5c0 f   fltk:Fl.obj
 0001:0001b740       ?realloc_timers@@YAXXZ     0041c740 f   fltk:Fl.obj
 0001:0001b7f0       ?delete_timer@@YAXAAUWin32Timer@@@Z 0041c7f0 f   fltk:Fl.obj
 0001:0001b820       ?WndProc@@YGJPAUHWND__@@IIJ@Z 0041c820 f   fltk:Fl.obj
 0001:0001c5ac       $LN178                     0041d5ac     fltk:Fl.obj
 0001:0001c5ec       $LN175                     0041d5ec     fltk:Fl.obj
 0001:0001c674       $LN179                     0041d674     fltk:Fl.obj
 0001:0001c68c       $LN180                     0041d68c     fltk:Fl.obj
 0001:0001c6c4       $LN176                     0041d6c4     fltk:Fl.obj
 0001:0001c768       $LN181                     0041d768     fltk:Fl.obj
 0001:0001c77c       $LN177                     0041d77c     fltk:Fl.obj
 0001:0001c788       $LN182                     0041d788     fltk:Fl.obj
 0001:0001c7d0       ?s_TimerProc@@YGJPAUHWND__@@IIJ@Z 0041d7d0 f   fltk:Fl.obj
 0001:0001c900       ?image_to_icon@@YAPAUHICON__@@PBVFl_RGB_Image@@_NHH@Z 0041d900 f   fltk:Fl.obj
 0001:0001cd88       $LN47                      0041dd88     fltk:Fl.obj
 0001:0001cda0       ?find_best_icon@@YAPBVFl_RGB_Image@@HQAPBV1@H@Z 0041dda0 f   fltk:Fl.obj
 0001:0001d568       $LN10                      0041e568     fltk:fl_ask.obj
 0001:0001d830       ?button_cb@@YAXPAVFl_Widget@@J@Z 0041e830 f   fltk:fl_ask.obj
 0001:0001d850       ?makeform@@YAPAVFl_Window@@XZ 0041e850 f   fltk:fl_ask.obj
 0001:0001dcb0       ?resizeform@@YAXXZ         0041ecb0 f   fltk:fl_ask.obj
 0001:0001e0b0       ?innards@@YAHPBDPAD000@Z   0041f0b0 f   fltk:fl_ask.obj
 0001:0001e570       ?input_innards@@YAPBDPBDPAD0E@Z 0041f570 f   fltk:fl_ask.obj
 0001:0001f1f0       $LN49                      004201f0     fltk:Fl_Group.obj
 0001:000204c8       $LN202                     004214c8     fltk:Fl_Group.obj
 0001:000204f8       $LN200                     004214f8     fltk:Fl_Group.obj
 0001:00020510       $LN203                     00421510     fltk:Fl_Group.obj
 0001:000214b0       ?send@@YAHPAVFl_Widget@@H@Z 004224b0 f   fltk:Fl_Group.obj
 0001:000215d0       ?navkey@@YAHXZ             004225d0 f   fltk:Fl_Group.obj
 0001:00021650       $LN20                      00422650     fltk:Fl_Group.obj
 0001:00021668       $LN19                      00422668     fltk:Fl_Group.obj
 0001:000231a8       $LN36                      004241a8     fltk:Fl_Menu_Bar.obj
 0001:000231b8       $LN35                      004241b8     fltk:Fl_Menu_Bar.obj
 0001:00024860       $LN148                     00425860     fltk:Fl_Button.obj
 0001:00025040       ?callback@@YAXPAVFl_File_Chooser@@PAX@Z 00426040 f   fltk:fl_file_dir.obj
 0001:00026330       _mk_wcwidth                00427330 f   fltk:fl_utf.obj
 0001:00026480       _bisearch                  00427480 f   fltk:fl_utf.obj
 0001:000268f0       ?screen_cb@@YGHPAUHMONITOR__@@PAUHDC__@@PAUtagRECT@@J@Z 004278f0 f   fltk:screen_xywh.obj
 0001:00026a20       ?screen_init@@YAXXZ        00427a20 f   fltk:screen_xywh.obj
 0001:00026b20       ?fl_intersection@@YAMHHHHHHHH@Z 00427b20 f   fltk:screen_xywh.obj
 0001:00026e30       ?lock_ring@@YAXXZ          00427e30 f   fltk:Fl_lock.obj
 0001:00026e70       ?unlock_ring@@YAXXZ        00427e70 f   fltk:Fl_lock.obj
 0001:00026e90       ?unlock_function@@YAXXZ    00427e90 f   fltk:Fl_lock.obj
 0001:00026ea0       ?lock_function@@YAXXZ      00427ea0 f   fltk:Fl_lock.obj
 0001:000276b4       $LN39                      004286b4     fltk:Fl_Widget.obj
 0001:000276bc       $LN38                      004286bc     fltk:Fl_Widget.obj
 0001:00027e80       ?cleanup_readqueue@@YAXPAVFl_Widget@@@Z 00428e80 f   fltk:Fl_Widget.obj
 0001:00029f00       ?start@@YAHPAVFl_RGB_Image@@HHHHHHAAH11111@Z 0042af00 f   fltk:Fl_Image.obj
 0001:0002a780       ?recent_timeout@@YAXPAX@Z  0042b780 f   fltk:Fl_Tooltip.obj
 0001:0002a790       ?tooltip_timeout@@YAXPAX@Z 0042b790 f   fltk:Fl_Tooltip.obj
 0001:0002b230       ?clear_xmap@@YAXAAUFl_XMap@@@Z 0042c230 f   fltk:fl_color.obj
 0001:0002b2a0       ?set_xmap@@YAXAAUFl_XMap@@K@Z 0042c2a0 f   fltk:fl_color.obj
 0001:0002f6b0       ?decodeText@@YAPADPBD@Z    004306b0 f   fltk:Fl_Preferences.obj
 0001:0002f8a0       ?decodeHex@@YAPAXPBDAAH@Z  004308a0 f   fltk:Fl_Preferences.obj
 0001:0002f9b0       ?x2i@@YAEDD@Z              004309b0 f   fltk:Fl_Preferences.obj
 0001:0002f9d0       ?i2x@@YAXEPAD@Z            004309d0 f   fltk:Fl_Preferences.obj
 0001:0002fa10       ?a2p@@YAPAXPBD@Z           00430a10 f   fltk:Fl_Preferences.obj
 0001:0002fa80       ?p2a@@YAXPAXPAD@Z          00430a80 f   fltk:Fl_Preferences.obj
 0001:000323a0       ?_fl_hypot@@YANNN@Z        004333a0 f   fltk:fl_arc.obj
 0001:0003374c       $LN15                      0043474c     fltk:fl_font.obj
 0001:00033760       $LN14                      00434760     fltk:fl_font.obj
 0001:00033820       ?find@@YAPAVFl_Font_Descriptor@@HHH@Z 00434820 f   fltk:fl_font.obj
 0001:00033920       ?fl_font@@YAXPAVFl_Graphics_Driver@@HHH@Z 00434920 f   fltk:fl_font.obj
 0001:000339c0       ?GetGlyphIndices_init@@YAXXZ 004349c0 f   fltk:fl_font.obj
 0001:00033a00       ?on_printer_extents_update@@YAXAAH000@Z 00434a00 f   fltk:fl_font.obj
 0001:00035770       ?start@@YAHPAVFl_Pixmap@@HHHHHHAAH11111@Z 00436770 f   fltk:Fl_Pixmap.obj
 0001:00036a50       ?fl_create_bitmap@@YAPAUHBITMAP__@@HHPBE@Z 00437a50 f   fltk:Fl_Bitmap.obj
 0001:00036ed0       ?dither@@YAXPAEPBEHH@Z     00437ed0 f   fltk:fl_draw_image.obj
 0001:000370c0       ?monodither@@YAXPAEPBEHH@Z 004380c0 f   fltk:fl_draw_image.obj
 0001:000371c0       ?innards@@YAXPBEHHHHHHHP6AXPAXHHHPAE@Z1@Z 004381c0 f   fltk:fl_draw_image.obj
 0001:00037994       $LN77                      00438994     fltk:fl_draw_image.obj
 0001:000379b0       ?fl_abs@@YAHH@Z            004389b0 f   fltk:fl_draw_image.obj
 0001:0003899c       $LN17                      0043999c     fltk:Fl_get_system_colors.obj
 0001:000389b0       ?set_selection_color@@YAXEEE@Z 004399b0 f   fltk:Fl_get_system_colors.obj
 0001:000389d0       ?getsyscolor@@YAXHPBDP6AXEEE@Z@Z 004399d0 f   fltk:Fl_get_system_colors.obj
 0001:00038a60       ?warning@@YAXPBDZZ         00439a60 f   fltk:Fl_abort.obj
 0001:00038a70       ?error@@YAXPBDZZ           00439a70 f   fltk:Fl_abort.obj
 0001:00038af0       ?fatal@@YAXPBDZZ           00439af0 f   fltk:Fl_abort.obj
 0001:0003b1d0       ?Toupper@@YAHH@Z           0043c1d0 f   fltk:fl_utf8.obj
 0001:0003bd1c       $LN70                      0043cd1c     fltk:vsnprintf.obj
 0001:0003bd38       $LN69                      0043cd38     fltk:vsnprintf.obj
 0001:0003f9c4       $LN135                     004409c4     fltk:Fl_Input_.obj
 0001:00040b90       ?isword@@YAHD@Z            00441b90 f   fltk:Fl_Input_.obj
 0001:00040be0       ?strict_word_start@@YAHPBDHH@Z 00441be0 f   fltk:Fl_Input_.obj
 0001:00040c20       ?strict_word_end@@YAHPBDHHH@Z 00441c20 f   fltk:Fl_Input_.obj
 0001:00040c60       ?undobuffersize@@YAXH@Z    00441c60 f   fltk:Fl_Input_.obj
 0001:000416a4       $LN199                     004426a4     fltk:Fl_Input.obj
 0001:000416bc       $LN197                     004426bc     fltk:Fl_Input.obj
 0001:000416d8       $LN200                     004426d8     fltk:Fl_Input.obj
 0001:0004170c       $LN198                     0044270c     fltk:Fl_Input.obj
 0001:00041804       $LN201                     00442804     fltk:Fl_Input.obj
 0001:00042d7c       $LN201                     00443d7c     fltk:Fl_Input.obj
 0001:00042da4       $LN199                     00443da4     fltk:Fl_Input.obj
 0001:00042dbc       $LN202                     00443dbc     fltk:Fl_Input.obj
 0001:00042dd4       $LN200                     00443dd4     fltk:Fl_Input.obj
 0001:00044750       ?expand_text_@@YAPBDPBDAAPADHNAAHAANHH@Z 00445750 f   fltk:fl_draw.obj
 0001:00044fd0       ?bitmap2region@@YAPAUHRGN__@@PAVFl_Bitmap@@@Z 00445fd0 f   fltk:Fl_Window_shape.obj
 0001:00046450       $LN63                      00447450     fltk:Fl_Menu_Button.obj
 0001:00046468       $LN62                      00447468     fltk:Fl_Menu_Button.obj
 0001:000467b8       $LN23                      004477b8     fltk:Fl_Repeat_Button.obj
 0001:000467c4       $LN22                      004477c4     fltk:Fl_Repeat_Button.obj
 0001:000472f0       $LN128                     004482f0     fltk:Fl_Menu.obj
 0001:00048020       ?next_visible_or_not@@YAPBUFl_Menu_Item@@PBU1@@Z 00449020 f   fltk:Fl_Menu.obj
 0001:00048d94       $LN99                      00449d94     fltk:Fl_Menu.obj
 0001:00048da8       $LN97                      00449da8     fltk:Fl_Menu.obj
 0001:00048db4       $LN100                     00449db4     fltk:Fl_Menu.obj
 0001:00048dc8       $LN98                      00449dc8     fltk:Fl_Menu.obj
 0001:00049b80       ?setitem@@YAXHH@Z          0044ab80 f   fltk:Fl_Menu.obj
 0001:00049be0       ?forward@@YAHH@Z           0044abe0 f   fltk:Fl_Menu.obj
 0001:00049cb0       ?backward@@YAHH@Z          0044acb0 f   fltk:Fl_Menu.obj
 0001:0004a760       ?array_insert@@YAPAUFl_Menu_Item@@PAU1@HHPBDH@Z 0044b760 f   fltk:Fl_Menu_add.obj
 0001:0004a8a0       ?compare@@YAHPBD0@Z        0044b8a0 f   fltk:Fl_Menu_add.obj
 0001:0004bfdc       $LN191                     0044cfdc     fltk:Fl_Slider.obj
 0001:0004bffc       $LN192                     0044cffc     fltk:Fl_Slider.obj
 0001:00052a70       ?compare_dirnames@@YAHPBD0@Z 00453a70 f   fltk:Fl_File_Chooser2.obj
 0001:00052b10       ?quote_pathname@@YAXPADPBDH@Z 00453b10 f   fltk:Fl_File_Chooser2.obj
 0001:00052ba0       ?unquote_pathname@@YAXPADPBDH@Z 00453ba0 f   fltk:Fl_File_Chooser2.obj
 0001:00052e80       ?make_unused_color@@YAXAAE00@Z 00453e80 f   fltk:fl_draw_pixmap.obj
 0001:00053c98       $LN63                      00454c98     fltk:filename_match.obj
 0001:00053cbc       $LN61                      00454cbc     fltk:filename_match.obj
 0001:00053d3c       $LN64                      00454d3c     fltk:filename_match.obj
 0001:00053d54       $LN62                      00454d54     fltk:filename_match.obj
 0001:00053e20       _numericsort               00454e20 f   fltk:numericsort.obj
 0001:000541c0       ?frame_rect@@YAXHHHHPBDI@Z 004551c0 f   fltk:fl_plastic.obj
 0001:00054480       ?frame_round@@YAXHHHHPBDI@Z 00455480 f   fltk:fl_plastic.obj
 0001:00054eb0       ?shade_rect@@YAXHHHHPBDI@Z 00455eb0 f   fltk:fl_plastic.obj
 0001:00055620       ?shade_round@@YAXHHHHPBDI@Z 00456620 f   fltk:fl_plastic.obj
 0001:00056060       ?up_frame@@YAXHHHHI@Z      00457060 f   fltk:fl_plastic.obj
 0001:00056090       ?narrow_thin_box@@YAXHHHHI@Z 00457090 f   fltk:fl_plastic.obj
 0001:00056240       ?thin_up_box@@YAXHHHHI@Z   00457240 f   fltk:fl_plastic.obj
 0001:000562c0       ?up_box@@YAXHHHHI@Z        004572c0 f   fltk:fl_plastic.obj
 0001:00056340       ?up_round@@YAXHHHHI@Z      00457340 f   fltk:fl_plastic.obj
 0001:00056390       ?down_frame@@YAXHHHHI@Z    00457390 f   fltk:fl_plastic.obj
 0001:000563c0       ?down_box@@YAXHHHHI@Z      004573c0 f   fltk:fl_plastic.obj
 0001:00056440       ?down_round@@YAXHHHHI@Z    00457440 f   fltk:fl_plastic.obj
 0001:00056530       ?gtk_color@@YAXI@Z         00457530 f   fltk:fl_gtk.obj
 0001:00056580       ?gtk_up_frame@@YAXHHHHI@Z  00457580 f   fltk:fl_gtk.obj
 0001:00056820       ?gtk_up_box@@YAXHHHHI@Z    00457820 f   fltk:fl_gtk.obj
 0001:00056ab0       ?gtk_down_frame@@YAXHHHHI@Z 00457ab0 f   fltk:fl_gtk.obj
 0001:00056da0       ?gtk_down_box@@YAXHHHHI@Z  00457da0 f   fltk:fl_gtk.obj
 0001:00056e30       ?gtk_thin_up_frame@@YAXHHHHI@Z 00457e30 f   fltk:fl_gtk.obj
 0001:00056f40       ?gtk_thin_up_box@@YAXHHHHI@Z 00457f40 f   fltk:fl_gtk.obj
 0001:000571a0       ?gtk_thin_down_frame@@YAXHHHHI@Z 004581a0 f   fltk:fl_gtk.obj
 0001:000572b0       ?gtk_thin_down_box@@YAXHHHHI@Z 004582b0 f   fltk:fl_gtk.obj
 0001:00057310       ?fl_arc_i@@YAXHHHHNN@Z     00458310 f   fltk:fl_gtk.obj
 0001:00057360       ?draw@@YAXHHHHHH@Z         00458360 f   fltk:fl_gtk.obj
 0001:000577f0       ?gtk_round_up_box@@YAXHHHHI@Z 004587f0 f   fltk:fl_gtk.obj
 0001:00057b30       ?gtk_round_down_box@@YAXHHHHI@Z 00458b30 f   fltk:fl_gtk.obj
 0001:00057d50       ?gleam_color@@YAXI@Z       00458d50 f   fltk:fl_gleam.obj
 0001:00057da0       ?shade_rect_top_bottom@@YAXHHHHIIM@Z 00458da0 f   fltk:fl_gleam.obj
 0001:00058010       ?shade_rect_top_bottom_up@@YAXHHHHIM@Z 00459010 f   fltk:fl_gleam.obj
 0001:00058050       ?shade_rect_top_bottom_down@@YAXHHHHIM@Z 00459050 f   fltk:fl_gleam.obj
 0001:00058080       ?frame_rect@@YAXHHHHIII@Z  00459080 f   fltk:fl_gleam.obj
 0001:00058250       ?frame_rect_up@@YAXHHHHIIMM@Z 00459250 f   fltk:fl_gleam.obj
 0001:000582d0       ?frame_rect_down@@YAXHHHHIIMM@Z 004592d0 f   fltk:fl_gleam.obj
 0001:00058330       ?up_frame@@YAXHHHHI@Z      00459330 f   fltk:fl_gleam.obj
 0001:000583a0       ?up_box@@YAXHHHHI@Z        004593a0 f   fltk:fl_gleam.obj
 0001:00058440       ?thin_up_box@@YAXHHHHI@Z   00459440 f   fltk:fl_gleam.obj
 0001:000584e0       ?down_frame@@YAXHHHHI@Z    004594e0 f   fltk:fl_gleam.obj
 0001:00058570       ?down_box@@YAXHHHHI@Z      00459570 f   fltk:fl_gleam.obj
 0001:00058610       ?thin_down_box@@YAXHHHHI@Z 00459610 f   fltk:fl_gleam.obj
 0001:00058b20       ?fl_arc_i@@YAXHHHHNN@Z     00459b20 f   fltk:fl_round_box.obj
 0001:00058b70       ?draw@@YAXHHHHHHI@Z        00459b70 f   fltk:fl_round_box.obj
 0001:000599b0       ?fallback_cursor@@YAXPAVFl_Window@@W4Fl_Cursor@@@Z 0045a9b0 f   fltk:fl_cursor.obj
 0001:00059af0       $LN21                      0045aaf0     fltk:fl_cursor.obj
 0001:00059b08       $LN19                      0045ab08     fltk:fl_cursor.obj
 0001:0005a164       $LN54                      0045b164     fltk:fl_symbols.obj
 0001:0005a200       ?find@@YAHPBD@Z            0045b200 f   fltk:fl_symbols.obj
 0001:0005a3d0       ?fl_init_symbols@@YAXXZ    0045b3d0 f   fltk:fl_symbols.obj
 0001:0005a6f0       ?set_outline_color@@YAXI@Z 0045b6f0 f   fltk:fl_symbols.obj
 0001:0005a730       ?rectangle@@YAXNNNNI@Z     0045b730 f   fltk:fl_symbols.obj
 0001:0005a920       ?draw_fltk@@YAXI@Z         0045b920 f   fltk:fl_symbols.obj
 0001:0005b890       ?draw_search@@YAXI@Z       0045c890 f   fltk:fl_symbols.obj
 0001:0005bb50       ?draw_arrow1@@YAXI@Z       0045cb50 f   fltk:fl_symbols.obj
 0001:0005bf30       ?draw_arrow1bar@@YAXI@Z    0045cf30 f   fltk:fl_symbols.obj
 0001:0005bf90       ?draw_arrow2@@YAXI@Z       0045cf90 f   fltk:fl_symbols.obj
 0001:0005c140       ?draw_arrow3@@YAXI@Z       0045d140 f   fltk:fl_symbols.obj
 0001:0005c470       ?draw_arrowbar@@YAXI@Z     0045d470 f   fltk:fl_symbols.obj
 0001:0005c810       ?draw_arrowbox@@YAXI@Z     0045d810 f   fltk:fl_symbols.obj
 0001:0005cbb0       ?draw_bararrow@@YAXI@Z     0045dbb0 f   fltk:fl_symbols.obj
 0001:0005cf50       ?draw_doublebar@@YAXI@Z    0045df50 f   fltk:fl_symbols.obj
 0001:0005cff0       ?draw_arrow01@@YAXI@Z      0045dff0 f   fltk:fl_symbols.obj
 0001:0005d020       ?draw_arrow02@@YAXI@Z      0045e020 f   fltk:fl_symbols.obj
 0001:0005d050       ?draw_arrow03@@YAXI@Z      0045e050 f   fltk:fl_symbols.obj
 0001:0005d080       ?draw_0arrowbar@@YAXI@Z    0045e080 f   fltk:fl_symbols.obj
 0001:0005d0b0       ?draw_0arrowbox@@YAXI@Z    0045e0b0 f   fltk:fl_symbols.obj
 0001:0005d0e0       ?draw_0bararrow@@YAXI@Z    0045e0e0 f   fltk:fl_symbols.obj
 0001:0005d110       ?draw_doublearrow@@YAXI@Z  0045e110 f   fltk:fl_symbols.obj
 0001:0005d5e0       ?draw_arrow@@YAXI@Z        0045e5e0 f   fltk:fl_symbols.obj
 0001:0005d8b0       ?draw_square@@YAXI@Z       0045e8b0 f   fltk:fl_symbols.obj
 0001:0005d910       ?draw_circle@@YAXI@Z       0045e910 f   fltk:fl_symbols.obj
 0001:0005da20       ?draw_line@@YAXI@Z         0045ea20 f   fltk:fl_symbols.obj
 0001:0005dad0       ?draw_plus@@YAXI@Z         0045ead0 f   fltk:fl_symbols.obj
 0001:0005df70       ?draw_uparrow@@YAXI@Z      0045ef70 f   fltk:fl_symbols.obj
 0001:0005e0f0       ?draw_downarrow@@YAXI@Z    0045f0f0 f   fltk:fl_symbols.obj
 0001:0005e270       ?draw_menu@@YAXI@Z         0045f270 f   fltk:fl_symbols.obj
 0001:0005e310       ?draw_filenew@@YAXI@Z      0045f310 f   fltk:fl_symbols.obj
 0001:0005e7b0       ?draw_fileopen@@YAXI@Z     0045f7b0 f   fltk:fl_symbols.obj
 0001:0005ed80       ?draw_filesave@@YAXI@Z     0045fd80 f   fltk:fl_symbols.obj
 0001:0005f490       ?draw_filesaveas@@YAXI@Z   00460490 f   fltk:fl_symbols.obj
 0001:0005f830       ?draw_fileprint@@YAXI@Z    00460830 f   fltk:fl_symbols.obj
 0001:0005ff60       ?draw_round_arrow@@YAXIM@Z 00460f60 f   fltk:fl_symbols.obj
 0001:000602b0       ?draw_refresh@@YAXI@Z      004612b0 f   fltk:fl_symbols.obj
 0001:00060320       ?draw_reload@@YAXI@Z       00461320 f   fltk:fl_symbols.obj
 0001:00060370       ?draw_undo@@YAXI@Z         00461370 f   fltk:fl_symbols.obj
 0001:00060560       ?draw_redo@@YAXI@Z         00461560 f   fltk:fl_symbols.obj
 0001:00061078       $LN84                      00462078     fltk:Fl_Choice.obj
 0001:00061090       $LN83                      00462090     fltk:Fl_Choice.obj
 0001:00061688       $LN100                     00462688     fltk:Fl_Tile.obj
 0001:00061698       $LN99                      00462698     fltk:Fl_Tile.obj
 0001:00061b50       ?set_cursor@@YAXPAVFl_Tile@@W4Fl_Cursor@@@Z 00462b50 f   fltk:Fl_Tile.obj
 0001:00064928       $LN332                     00465928     fltk:Fl_Browser_.obj
 0001:000652c0       ?scrollbar_callback@@YAXPAVFl_Widget@@PAX@Z 004662c0 f   fltk:Fl_Browser_.obj
 0001:000652f0       ?hscrollbar_callback@@YAXPAVFl_Widget@@PAX@Z 004662f0 f   fltk:Fl_Browser_.obj
 0001:00066fac       $LN33                      00467fac     fltk:Fl_File_Input.obj
 0001:00066fbc       $LN31                      00467fbc     fltk:Fl_File_Input.obj
 0001:000675c0       $LN66                      004685c0     fltk:Fl_Browser.obj
 0001:000675f0       $LN65                      004685f0     fltk:Fl_Browser.obj
 0001:000678f8       $LN41                      004688f8     fltk:Fl_Browser.obj
 0001:00067928       $LN40                      00468928     fltk:Fl_Browser.obj
 0001:00067e98       $LN90                      00468e98     fltk:Fl_Browser.obj
 0001:00067ee0       $LN89                      00468ee0     fltk:Fl_Browser.obj
 0001:00069b9c       $LN129                     0046ab9c     fltk:Fl_File_Icon.obj
 0001:00069bb8       $LN130                     0046abb8     fltk:Fl_File_Icon.obj
 0001:00069bc8       $LN131                     0046abc8     fltk:Fl_File_Icon.obj
 0001:0006cc0c       $LN189                     0046dc0c     fltk:Fl_Scrollbar.obj
 0001:0006cc28       $LN188                     0046dc28     fltk:Fl_Scrollbar.obj
 0001:0006cc3c       $LN190                     0046dc3c     fltk:Fl_Scrollbar.obj
 0001:0006d784       $LN235                     0046e784     fltk:Fl_Light_Button.obj
 0001:0006d790       $LN234                     0046e790     fltk:Fl_Light_Button.obj
 0001:0006d7b0       $LN236                     0046e7b0     fltk:Fl_Light_Button.obj
 0001:0006e3dc       $LN59                      0046f3dc     fltk:Fl_XPM_Image.obj
 0001:0006e3ec       $LN57                      0046f3ec     fltk:Fl_XPM_Image.obj
 0001:0006e470       ?hexdigit@@YAHH@Z          0046f470 f   fltk:Fl_XPM_Image.obj
 0001:0006f680       ?add_context@@YAXPAUHGLRC__@@@Z 00470680 f   fltkgl:Fl_Gl_Choice.obj
 0001:0006f700       ?del_context@@YAXPAUHGLRC__@@@Z 00470700 f   fltkgl:Fl_Gl_Choice.obj
 0001:0006f7a0       ?print_gl_window@@YAXPAVFl_Gl_Window@@HHH@Z 004707a0 f   fltkgl:Fl_Gl_Device_Plugin.obj
 0001:00070020       ?get_list@@YAXH@Z          00471020 f   fltkgl:gl_draw.obj
 0001:000700a0       ?gl_draw_invert@@YAXPBDHHH@Z 004710a0 f   fltkgl:gl_draw.obj
 0001:000708f0       ?pre_c_initialization@@YAHXZ 004718f0 f   MSVCRT:exe_winmain.obj
 0001:00070994       ?post_pgo_initialization@@YAHXZ 00471994 f   MSVCRT:exe_winmain.obj
 0001:0007099c       ?pre_cpp_initialization@@YAXXZ 0047199c f   MSVCRT:exe_winmain.obj
 0001:000709ae       ?__scrt_common_main@@YAHXZ 004719ae f   MSVCRT:exe_winmain.obj
 0001:000709b8       ?__scrt_common_main_seh@@YAHXZ 004719b8 f   MSVCRT:exe_winmain.obj
 0001:00070b31       ?initialize_environment@@YAXXZ 00471b31 f   MSVCRT:exe_winmain.obj
 0001:00070b36       ?invoke_main@@YAHXZ        00471b36 f   MSVCRT:exe_winmain.obj
 0001:00070b9a       ?find_pe_section@@YAPAU_IMAGE_SECTION_HEADER@@QAEI@Z 00471b9a f   MSVCRT:utility.obj
 0001:00070bde       ?is_potentially_valid_image_base@@YA_NQAX@Z 00471bde f   MSVCRT:utility.obj
 0001:00070f35       ?__scrt_initialize_thread_safe_statics@@YAHXZ 00471f35 f   MSVCRT:thread_safe_statics.obj
 0001:00071057       ?__scrt_uninitialize_thread_safe_statics@@YAXXZ 00472057 f   MSVCRT:thread_safe_statics.obj
 0001:000711d0       $$000000                   004721d0     MSVCRT:_ftol3_.obj
 0001:00071550       $$000000                   00472550     MSVCRT:llshr.obj
 0001:00071580       $$000000                   00472580     MSVCRT:_ftol2_.obj
 0001:00071640       $$000000                   00472640     MSVCRT:chkstk.obj
 0001:00071b30       $$000000                   00472b30     MSVCRT:_sehprolg4_.obj
 0001:00072480       _mbcs2utf                  00473480 f   fltk:fl_call_main.obj
 0001:000725b0       __unwindfunclet$_main$0    004735b0 f   main.obj
 0001:000725bf       __unwindfunclet$_main$1    004735bf f   main.obj
 0001:000725ce       __unwindfunclet$_main$2    004735ce f   main.obj
 0001:000725dd       __ehhandler$_main          004735dd f   main.obj
 0001:00072600       __ehhandler$?_Copy@?$basic_string@DU?$char_traits@D@std@@V?$allocator@D@2@@std@@QAEXII@Z 00473600 f   RayTracer.obj
 0001:00072620       __unwindfunclet$?loadScene@RayTracer@@QAE_NPAD@Z$2 00473620 f   RayTracer.obj
 0001:00072628       __unwindfunclet$?loadScene@RayTracer@@QAE_NPAD@Z$3 00473628 f   RayTracer.obj
 0001:00072630       __ehhandler$?loadScene@RayTracer@@QAE_NPAD@Z 00473630 f   RayTracer.obj
 0001:00072660       __unwindfunclet$?traceRay@RayTracer@@QAE?AVvec3f@@PAVScene@@ABVray@@ABV2@H@Z$0 00473660 f   RayTracer.obj
 0001:00072668       __ehhandler$?traceRay@RayTracer@@QAE?AVvec3f@@PAVScene@@ABVray@@ABV2@H@Z 00473668 f   RayTracer.obj
 0001:00072690       __unwindfunclet$??0TraceGLWindow@@QAE@HHHHPBD@Z$1 00473690 f   TraceGLWindow.obj
 0001:00072698       __ehhandler$??0TraceGLWindow@@QAE@HHHHPBD@Z 00473698 f   TraceGLWindow.obj
 0001:000726c0       __unwindfunclet$??0TraceUI@@QAE@XZ$0 004736c0 f   TraceUI.obj
 0001:000726d2       __unwindfunclet$??0TraceUI@@QAE@XZ$1 004736d2 f   TraceUI.obj
 0001:000726e1       __unwindfunclet$??0TraceUI@@QAE@XZ$2 004736e1 f   TraceUI.obj
 0001:000726f3       __unwindfunclet$??0TraceUI@@QAE@XZ$3 004736f3 f   TraceUI.obj
 0001:00072705       __unwindfunclet$??0TraceUI@@QAE@XZ$4 00473705 f   TraceUI.obj
 0001:00072714       __unwindfunclet$??0TraceUI@@QAE@XZ$5 00473714 f   TraceUI.obj
 0001:00072723       __unwindfunclet$??0TraceUI@@QAE@XZ$6 00473723 f   TraceUI.obj
 0001:00072735       __ehhandler$??0TraceUI@@QAE@XZ 00473735 f   TraceUI.obj
 0001:00072750       __unwindfunclet$??$?0U?$_Wrap_alloc@V?$allocator@U?$_Tree_node@U?$pair@$$CBV?$basic_string@DU?$char_traits@D@std@@V?$allocator@D@2@@std@@PAVObj@@@std@@PAX@std@@@std@@@std@@@?$_Tree@V?$_Tmap_traits@V?$basic_string@DU?$char_traits@D@std@@V?$allocator@D@2@@std@@PAVObj@@U?$less@V?$basic_string@DU?$char_traits@D@std@@V?$allocator@D@2@@std@@@2@V?$allocator@U?$pair@$$CBV?$basic_string@DU?$char_traits@D@std@@V?$allocator@D@2@@std@@PAVObj@@@std@@@2@$0A@@std@@@std@@QAE@ABV01@$$QAU?$_Wrap_alloc@V?$allocator@U?$_Tree_node@U?$pair@$$CBV?$basic_string@DU?$char_traits@D@std@@V?$allocator@D@2@@std@@PAVObj@@@std@@PAX@std@@@std@@@1@@Z$2 00473750 f   parse.obj
 0001:00072758       __ehhandler$??$?0U?$_Wrap_alloc@V?$allocator@U?$_Tree_node@U?$pair@$$CBV?$basic_string@DU?$char_traits@D@std@@V?$allocator@D@2@@std@@PAVObj@@@std@@PAX@std@@@std@@@std@@@?$_Tree@V?$_Tmap_traits@V?$basic_string@DU?$char_traits@D@std@@V?$allocator@D@2@@std@@PAVObj@@U?$less@V?$basic_string@DU?$char_traits@D@std@@V?$allocator@D@2@@std@@@2@V?$allocator@U?$pair@$$CBV?$basic_string@DU?$char_traits@D@std@@V?$allocator@D@2@@std@@PAVObj@@@std@@@2@$0A@@std@@@std@@QAE@ABV01@$$QAU?$_Wrap_alloc@V?$allocator@U?$_Tree_node@U?$pair@$$CBV?$basic_string@DU?$char_traits@D@std@@V?$allocator@D@2@@std@@PAVObj@@@std@@PAX@std@@@std@@@1@@Z 00473758 f   parse.obj
 0001:00072780       __unwindfunclet$??$?6DU?$char_traits@D@std@@V?$allocator@D@1@@std@@YAAAV?$basic_ostream@DU?$char_traits@D@std@@@0@AAV10@ABV?$basic_string@DU?$char_traits@D@std@@V?$allocator@D@2@@0@@Z$7 00473780 f   parse.obj
 0001:00072788       __unwindfunclet$??$?6DU?$char_traits@D@std@@V?$allocator@D@1@@std@@YAAAV?$basic_ostream@DU?$char_traits@D@std@@@0@AAV10@ABV?$basic_string@DU?$char_traits@D@std@@V?$allocator@D@2@@0@@Z$2 00473788 f   parse.obj
 0001:00072790       __unwindfunclet$??$?6DU?$char_traits@D@std@@V?$allocator@D@1@@std@@YAAAV?$basic_ostream@DU?$char_traits@D@std@@@0@AAV10@ABV?$basic_string@DU?$char_traits@D@std@@V?$allocator@D@2@@0@@Z$15 00473790 f   parse.obj
 0001:00072796       __unwindfunclet$??$?6DU?$char_traits@D@std@@V?$allocator@D@1@@std@@YAAAV?$basic_ostream@DU?$char_traits@D@std@@@0@AAV10@ABV?$basic_string@DU?$char_traits@D@std@@V?$allocator@D@2@@0@@Z$16 00473796 f   parse.obj
 0001:0007279c       __ehhandler$??$?6DU?$char_traits@D@std@@V?$allocator@D@1@@std@@YAAAV?$basic_ostream@DU?$char_traits@D@std@@@0@AAV10@ABV?$basic_string@DU?$char_traits@D@std@@V?$allocator@D@2@@0@@Z 0047379c f   parse.obj
 0001:000727c0       __unwindfunclet$??$?6U?$char_traits@D@std@@@std@@YAAAV?$basic_ostream@DU?$char_traits@D@std@@@0@AAV10@D@Z$3 004737c0 f   parse.obj
 0001:000727c8       __unwindfunclet$??$?6U?$char_traits@D@std@@@std@@YAAAV?$basic_ostream@DU?$char_traits@D@std@@@0@AAV10@D@Z$2 004737c8 f   parse.obj
 0001:000727d0       __unwindfunclet$??$?6U?$char_traits@D@std@@@std@@YAAAV?$basic_ostream@DU?$char_traits@D@std@@@0@AAV10@D@Z$10 004737d0 f   parse.obj
 0001:000727d6       __unwindfunclet$??$?6U?$char_traits@D@std@@@std@@YAAAV?$basic_ostream@DU?$char_traits@D@std@@@0@AAV10@D@Z$11 004737d6 f   parse.obj
 0001:000727dc       __ehhandler$??$?6U?$char_traits@D@std@@@std@@YAAAV?$basic_ostream@DU?$char_traits@D@std@@@0@AAV10@D@Z 004737dc f   parse.obj
 0001:00072800       __unwindfunclet$??$?6U?$char_traits@D@std@@@std@@YAAAV?$basic_ostream@DU?$char_traits@D@std@@@0@AAV10@PBD@Z$3 00473800 f   parse.obj
 0001:00072808       __unwindfunclet$??$?6U?$char_traits@D@std@@@std@@YAAAV?$basic_ostream@DU?$char_traits@D@std@@@0@AAV10@PBD@Z$2 00473808 f   parse.obj
 0001:00072810       __unwindfunclet$??$?6U?$char_traits@D@std@@@std@@YAAAV?$basic_ostream@DU?$char_traits@D@std@@@0@AAV10@PBD@Z$8 00473810 f   parse.obj
 0001:00072816       __unwindfunclet$??$?6U?$char_traits@D@std@@@std@@YAAAV?$basic_ostream@DU?$char_traits@D@std@@@0@AAV10@PBD@Z$9 00473816 f   parse.obj
 0001:0007281c       __ehhandler$??$?6U?$char_traits@D@std@@@std@@YAAAV?$basic_ostream@DU?$char_traits@D@std@@@0@AAV10@PBD@Z 0047381c f   parse.obj
 0001:00072840       __unwindfunclet$??$_Buynode@AAU?$pair@$$CBV?$basic_string@DU?$char_traits@D@std@@V?$allocator@D@2@@std@@PAVObj@@@std@@@?$_Tree_comp_alloc@V?$_Tmap_traits@V?$basic_string@DU?$char_traits@D@std@@V?$allocator@D@2@@std@@PAVObj@@U?$less@V?$basic_string@DU?$char_traits@D@std@@V?$allocator@D@2@@std@@@2@V?$allocator@U?$pair@$$CBV?$basic_string@DU?$char_traits@D@std@@V?$allocator@D@2@@std@@PAVObj@@@std@@@2@$0A@@std@@@std@@QAEPAU?$_Tree_node@U?$pair@$$CBV?$basic_string@DU?$char_traits@D@std@@V?$allocator@D@2@@std@@PAVObj@@@std@@PAX@1@AAU?$pair@$$CBV?$basic_string@DU?$char_traits@D@std@@V?$allocator@D@2@@std@@PAVObj@@@1@@Z$9 00473840 f   parse.obj
 0001:00072851       __ehhandler$??$_Buynode@AAU?$pair@$$CBV?$basic_string@DU?$char_traits@D@std@@V?$allocator@D@2@@std@@PAVObj@@@std@@@?$_Tree_comp_alloc@V?$_Tmap_traits@V?$basic_string@DU?$char_traits@D@std@@V?$allocator@D@2@@std@@PAVObj@@U?$less@V?$basic_string@DU?$char_traits@D@std@@V?$allocator@D@2@@std@@@2@V?$allocator@U?$pair@$$CBV?$basic_string@DU?$char_traits@D@std@@V?$allocator@D@2@@std@@PAVObj@@@std@@@2@$0A@@std@@@std@@QAEPAU?$_Tree_node@U?$pair@$$CBV?$basic_string@DU?$char_traits@D@std@@V?$allocator@D@2@@std@@PAVObj@@@std@@PAX@1@AAU?$pair@$$CBV?$basic_string@DU?$char_traits@D@std@@V?$allocator@D@2@@std@@PAVObj@@@1@@Z 00473851 f   parse.obj
 0001:00072870       __unwindfunclet$??$_Buynode@ABUpiecewise_construct_t@std@@V?$tuple@ABV?$basic_string@DU?$char_traits@D@std@@V?$allocator@D@2@@std@@@2@V?$tuple@$$V@2@@?$_Tree_comp_alloc@V?$_Tmap_traits@V?$basic_string@DU?$char_traits@D@std@@V?$allocator@D@2@@std@@PAVObj@@U?$less@V?$basic_string@DU?$char_traits@D@std@@V?$allocator@D@2@@std@@@2@V?$allocator@U?$pair@$$CBV?$basic_string@DU?$char_traits@D@std@@V?$allocator@D@2@@std@@PAVObj@@@std@@@2@$0A@@std@@@std@@QAEPAU?$_Tree_node@U?$pair@$$CBV?$basic_string@DU?$char_traits@D@std@@V?$allocator@D@2@@std@@PAVObj@@@std@@PAX@1@ABUpiecewise_construct_t@1@$$QAV?$tuple@ABV?$basic_string@DU?$char_traits@D@std@@V?$allocator@D@2@@std@@@1@$$QAV?$tuple@$$V@1@@Z$15 00473870 f   parse.obj
 0001:00072881       __ehhandler$??$_Buynode@ABUpiecewise_construct_t@std@@V?$tuple@ABV?$basic_string@DU?$char_traits@D@std@@V?$allocator@D@2@@std@@@2@V?$tuple@$$V@2@@?$_Tree_comp_alloc@V?$_Tmap_traits@V?$basic_string@DU?$char_traits@D@std@@V?$allocator@D@2@@std@@PAVObj@@U?$less@V?$basic_string@DU?$char_traits@D@std@@V?$allocator@D@2@@std@@@2@V?$allocator@U?$pair@$$CBV?$basic_string@DU?$char_traits@D@std@@V?$allocator@D@2@@std@@PAVObj@@@std@@@2@$0A@@std@@@std@@QAEPAU?$_Tree_node@U?$pair@$$CBV?$basic_string@DU?$char_traits@D@std@@V?$allocator@D@2@@std@@PAVObj@@@std@@PAX@1@ABUpiecewise_construct_t@1@$$QAV?$tuple@ABV?$basic_string@DU?$char_traits@D@std@@V?$allocator@D@2@@std@@@1@$$QAV?$tuple@$$V@1@@Z 00473881 f   parse.obj
 0001:000728a0       __ehhandler$??$_Copy_nodes@U_Copy_tag@?$_Tree@V?$_Tmap_traits@V?$basic_string@DU?$char_traits@D@std@@V?$allocator@D@2@@std@@PAVObj@@U?$less@V?$basic_string@DU?$char_traits@D@std@@V?$allocator@D@2@@std@@@2@V?$allocator@U?$pair@$$CBV?$basic_string@DU?$char_traits@D@std@@V?$allocator@D@2@@std@@PAVObj@@@std@@@2@$0A@@std@@@std@@@?$_Tree@V?$_Tmap_traits@V?$basic_string@DU?$char_traits@D@std@@V?$allocator@D@2@@std@@PAVObj@@U?$less@V?$basic_string@DU?$char_traits@D@std@@V?$allocator@D@2@@std@@@2@V?$allocator@U?$pair@$$CBV?$basic_string@DU?$char_traits@D@std@@V?$allocator@D@2@@std@@PAVObj@@@std@@@2@$0A@@std@@@std@@IAEPAU?$_Tree_node@U?$pair@$$CBV?$basic_string@DU?$char_traits@D@std@@V?$allocator@D@2@@std@@PAVObj@@@std@@PAX@1@PAU21@0U_Copy_tag@01@@Z 004738a0 f   parse.obj
 0001:000728c0       __ehhandler$??$_Insert_hint@AAU?$pair@$$CBV?$basic_string@DU?$char_traits@D@std@@V?$allocator@D@2@@std@@PAVObj@@@std@@PAU?$_Tree_node@U?$pair@$$CBV?$basic_string@DU?$char_traits@D@std@@V?$allocator@D@2@@std@@PAVObj@@@std@@PAX@2@@?$_Tree@V?$_Tmap_traits@V?$basic_string@DU?$char_traits@D@std@@V?$allocator@D@2@@std@@PAVObj@@U?$less@V?$basic_string@DU?$char_traits@D@std@@V?$allocator@D@2@@std@@@2@V?$allocator@U?$pair@$$CBV?$basic_string@DU?$char_traits@D@std@@V?$allocator@D@2@@std@@PAVObj@@@std@@@2@$0A@@std@@@std@@IAE?AV?$_Tree_iterator@V?$_Tree_val@U?$_Tree_simple_types@U?$pair@$$CBV?$basic_string@DU?$char_traits@D@std@@V?$allocator@D@2@@std@@PAVObj@@@std@@@std@@@std@@@1@V?$_Tree_const_iterator@V?$_Tree_val@U?$_Tree_simple_types@U?$pair@$$CBV?$basic_string@DU?$char_traits@D@std@@V?$allocator@D@2@@std@@PAVObj@@@std@@@std@@@std@@@1@AAU?$pair@$$CBV?$basic_string@DU?$char_traits@D@std@@V?$allocator@D@2@@std@@PAVObj@@@1@PAU?$_Tree_node@U?$pair@$$CBV?$basic_string@DU?$char_traits@D@std@@V?$allocator@D@2@@std@@PAVObj@@@std@@PAX@1@@Z 004738c0 f   parse.obj
 0001:000728e0       __ehhandler$??$_Insert_nohint@AAU?$pair@$$CBV?$basic_string@DU?$char_traits@D@std@@V?$allocator@D@2@@std@@PAVObj@@@std@@PAU?$_Tree_node@U?$pair@$$CBV?$basic_string@DU?$char_traits@D@std@@V?$allocator@D@2@@std@@PAVObj@@@std@@PAX@2@@?$_Tree@V?$_Tmap_traits@V?$basic_string@DU?$char_traits@D@std@@V?$allocator@D@2@@std@@PAVObj@@U?$less@V?$basic_string@DU?$char_traits@D@std@@V?$allocator@D@2@@std@@@2@V?$allocator@U?$pair@$$CBV?$basic_string@DU?$char_traits@D@std@@V?$allocator@D@2@@std@@PAVObj@@@std@@@2@$0A@@std@@@std@@IAE?AU?$pair@V?$_Tree_iterator@V?$_Tree_val@U?$_Tree_simple_types@U?$pair@$$CBV?$basic_string@DU?$char_traits@D@std@@V?$allocator@D@2@@std@@PAVObj@@@std@@@std@@@std@@@std@@_N@1@_NAAU?$pair@$$CBV?$basic_string@DU?$char_traits@D@std@@V?$allocator@D@2@@std@@PAVObj@@@1@PAU?$_Tree_node@U?$pair@$$CBV?$basic_string@DU?$char_traits@D@std@@V?$allocator@D@2@@std@@PAVObj@@@std@@PAX@1@@Z 004738e0 f   parse.obj
 0001:00072900       __unwindfunclet$??0IdObj@@QAE@ABV?$basic_string@DU?$char_traits@D@std@@V?$allocator@D@2@@std@@@Z$0 00473900 f   parse.obj
 0001:00072908       __ehhandler$??0IdObj@@QAE@ABV?$basic_string@DU?$char_traits@D@std@@V?$allocator@D@2@@std@@@Z 00473908 f   parse.obj
 0001:00072930       __unwindfunclet$??0NamedObj@@QAE@ABV?$basic_string@DU?$char_traits@D@std@@V?$allocator@D@2@@std@@PAVObj@@@Z$0 00473930 f   parse.obj
 0001:00072938       __ehhandler$??0NamedObj@@QAE@ABV?$basic_string@DU?$char_traits@D@std@@V?$allocator@D@2@@std@@PAVObj@@@Z 00473938 f   parse.obj
 0001:00072960       __unwindfunclet$??0ObjTypeMismatch@@QAE@V?$basic_string@DU?$char_traits@D@std@@V?$allocator@D@2@@std@@0@Z$0 00473960 f   parse.obj
 0001:00072968       __unwindfunclet$??0ObjTypeMismatch@@QAE@V?$basic_string@DU?$char_traits@D@std@@V?$allocator@D@2@@std@@0@Z$1 00473968 f   parse.obj
 0001:00072970       __unwindfunclet$??0ObjTypeMismatch@@QAE@V?$basic_string@DU?$char_traits@D@std@@V?$allocator@D@2@@std@@0@Z$2 00473970 f   parse.obj
 0001:00072978       __unwindfunclet$??0ObjTypeMismatch@@QAE@V?$basic_string@DU?$char_traits@D@std@@V?$allocator@D@2@@std@@0@Z$3 00473978 f   parse.obj
 0001:00072980       __unwindfunclet$??0ObjTypeMismatch@@QAE@V?$basic_string@DU?$char_traits@D@std@@V?$allocator@D@2@@std@@0@Z$4 00473980 f   parse.obj
 0001:00072988       __unwindfunclet$??0ObjTypeMismatch@@QAE@V?$basic_string@DU?$char_traits@D@std@@V?$allocator@D@2@@std@@0@Z$5 00473988 f   parse.obj
 0001:00072993       __unwindfunclet$??0ObjTypeMismatch@@QAE@V?$basic_string@DU?$char_traits@D@std@@V?$allocator@D@2@@std@@0@Z$6 00473993 f   parse.obj
 0001:0007299e       __unwindfunclet$??0ObjTypeMismatch@@QAE@V?$basic_string@DU?$char_traits@D@std@@V?$allocator@D@2@@std@@0@Z$7 0047399e f   parse.obj
 0001:000729a9       __unwindfunclet$??0ObjTypeMismatch@@QAE@V?$basic_string@DU?$char_traits@D@std@@V?$allocator@D@2@@std@@0@Z$8 004739a9 f   parse.obj
 0001:000729b1       __ehhandler$??0ObjTypeMismatch@@QAE@V?$basic_string@DU?$char_traits@D@std@@V?$allocator@D@2@@std@@0@Z 004739b1 f   parse.obj
 0001:000729e0       __unwindfunclet$??1?$map@V?$basic_string@DU?$char_traits@D@std@@V?$allocator@D@2@@std@@PAVObj@@U?$less@V?$basic_string@DU?$char_traits@D@std@@V?$allocator@D@2@@std@@@2@V?$allocator@U?$pair@$$CBV?$basic_string@DU?$char_traits@D@std@@V?$allocator@D@2@@std@@PAVObj@@@std@@@2@@std@@QAE@XZ$0 004739e0 f   parse.obj
 0001:000729e6       __ehhandler$??1?$map@V?$basic_string@DU?$char_traits@D@std@@V?$allocator@D@2@@std@@PAVObj@@U?$less@V?$basic_string@DU?$char_traits@D@std@@V?$allocator@D@2@@std@@@2@V?$allocator@U?$pair@$$CBV?$basic_string@DU?$char_traits@D@std@@V?$allocator@D@2@@std@@PAVObj@@@std@@@2@@std@@QAE@XZ 004739e6 f   parse.obj
 0001:00072a10       __unwindfunclet$??1DictObj@@UAE@XZ$17 00473a10 f   parse.obj
 0001:00072a16       __ehhandler$??1DictObj@@UAE@XZ 00473a16 f   parse.obj
 0001:00072a40       __ehhandler$??1_Sentry_base@?$basic_ostream@DU?$char_traits@D@std@@@std@@QAE@XZ 00473a40 f   parse.obj
 0001:00072a60       __unwindfunclet$??1sentry@?$basic_ostream@DU?$char_traits@D@std@@@std@@QAE@XZ$0 00473a60 f   parse.obj
 0001:00072a66       __ehhandler$??1sentry@?$basic_ostream@DU?$char_traits@D@std@@@std@@QAE@XZ 00473a66 f   parse.obj
 0001:00072a90       __unwindfunclet$?eat@@YA_NAAV?$basic_istream@DU?$char_traits@D@std@@@std@@@Z$0 00473a90 f   parse.obj
 0001:00072a98       __unwindfunclet$?eat@@YA_NAAV?$basic_istream@DU?$char_traits@D@std@@@std@@@Z$1 00473a98 f   parse.obj
 0001:00072aa0       __ehhandler$?eat@@YA_NAAV?$basic_istream@DU?$char_traits@D@std@@@std@@@Z 00473aa0 f   parse.obj
 0001:00072ad0       __unwindfunclet$?erase@?$_Tree@V?$_Tmap_traits@V?$basic_string@DU?$char_traits@D@std@@V?$allocator@D@2@@std@@PAVObj@@U?$less@V?$basic_string@DU?$char_traits@D@std@@V?$allocator@D@2@@std@@@2@V?$allocator@U?$pair@$$CBV?$basic_string@DU?$char_traits@D@std@@V?$allocator@D@2@@std@@PAVObj@@@std@@@2@$0A@@std@@@std@@QAE?AV?$_Tree_iterator@V?$_Tree_val@U?$_Tree_simple_types@U?$pair@$$CBV?$basic_string@DU?$char_traits@D@std@@V?$allocator@D@2@@std@@PAVObj@@@std@@@std@@@std@@@2@V?$_Tree_const_iterator@V?$_Tree_val@U?$_Tree_simple_types@U?$pair@$$CBV?$basic_string@DU?$char_traits@D@std@@V?$allocator@D@2@@std@@PAVObj@@@std@@@std@@@std@@@2@0@Z$16 00473ad0 f   parse.obj
 0001:00072ad6       __ehhandler$?erase@?$_Tree@V?$_Tmap_traits@V?$basic_string@DU?$char_traits@D@std@@V?$allocator@D@2@@std@@PAVObj@@U?$less@V?$basic_string@DU?$char_traits@D@std@@V?$allocator@D@2@@std@@@2@V?$allocator@U?$pair@$$CBV?$basic_string@DU?$char_traits@D@std@@V?$allocator@D@2@@std@@PAVObj@@@std@@@2@$0A@@std@@@std@@QAE?AV?$_Tree_iterator@V?$_Tree_val@U?$_Tree_simple_types@U?$pair@$$CBV?$basic_string@DU?$char_traits@D@std@@V?$allocator@D@2@@std@@PAVObj@@@std@@@std@@@std@@@2@V?$_Tree_const_iterator@V?$_Tree_val@U?$_Tree_simple_types@U?$pair@$$CBV?$basic_string@DU?$char_traits@D@std@@V?$allocator@D@2@@std@@PAVObj@@@std@@@std@@@std@@@2@0@Z 00473ad6 f   parse.obj
 0001:00072b00       __unwindfunclet$?getBoolean@Obj@@UBE_NXZ$0 00473b00 f   parse.obj
 0001:00072b08       __ehhandler$?getBoolean@Obj@@UBE_NXZ 00473b08 f   parse.obj
 0001:00072b30       __unwindfunclet$?getChild@Obj@@UBEPAV1@XZ$0 00473b30 f   parse.obj
 0001:00072b38       __ehhandler$?getChild@Obj@@UBEPAV1@XZ 00473b38 f   parse.obj
 0001:00072b60       __unwindfunclet$?getDict@Obj@@UBEABV?$map@V?$basic_string@DU?$char_traits@D@std@@V?$allocator@D@2@@std@@PAVObj@@U?$less@V?$basic_string@DU?$char_traits@D@std@@V?$allocator@D@2@@std@@@2@V?$allocator@U?$pair@$$CBV?$basic_string@DU?$char_traits@D@std@@V?$allocator@D@2@@std@@PAVObj@@@std@@@2@@std@@XZ$0 00473b60 f   parse.obj
 0001:00072b68       __ehhandler$?getDict@Obj@@UBEABV?$map@V?$basic_string@DU?$char_traits@D@std@@V?$allocator@D@2@@std@@PAVObj@@U?$less@V?$basic_string@DU?$char_traits@D@std@@V?$allocator@D@2@@std@@@2@V?$allocator@U?$pair@$$CBV?$basic_string@DU?$char_traits@D@std@@V?$allocator@D@2@@std@@PAVObj@@@std@@@2@@std@@XZ 00473b68 f   parse.obj
 0001:00072b90       __unwindfunclet$?getID@Obj@@UBE?AV?$basic_string@DU?$char_traits@D@std@@V?$allocator@D@2@@std@@XZ$0 00473b90 f   parse.obj
 0001:00072b98       __ehhandler$?getID@Obj@@UBE?AV?$basic_string@DU?$char_traits@D@std@@V?$allocator@D@2@@std@@XZ 00473b98 f   parse.obj
 0001:00072bc0       __unwindfunclet$?getName@Obj@@UBE?AV?$basic_string@DU?$char_traits@D@std@@V?$allocator@D@2@@std@@XZ$0 00473bc0 f   parse.obj
 0001:00072bc8       __ehhandler$?getName@Obj@@UBE?AV?$basic_string@DU?$char_traits@D@std@@V?$allocator@D@2@@std@@XZ 00473bc8 f   parse.obj
 0001:00072bf0       __unwindfunclet$?getScalar@Obj@@UBENXZ$0 00473bf0 f   parse.obj
 0001:00072bf8       __ehhandler$?getScalar@Obj@@UBENXZ 00473bf8 f   parse.obj
 0001:00072c20       __unwindfunclet$?getString@Obj@@UBE?AV?$basic_string@DU?$char_traits@D@std@@V?$allocator@D@2@@std@@XZ$0 00473c20 f   parse.obj
 0001:00072c28       __ehhandler$?getString@Obj@@UBE?AV?$basic_string@DU?$char_traits@D@std@@V?$allocator@D@2@@std@@XZ 00473c28 f   parse.obj
 0001:00072c50       __unwindfunclet$?getTuple@Obj@@UBEABV?$vector@PAVObj@@V?$allocator@PAVObj@@@std@@@std@@XZ$0 00473c50 f   parse.obj
 0001:00072c58       __ehhandler$?getTuple@Obj@@UBEABV?$vector@PAVObj@@V?$allocator@PAVObj@@@std@@@std@@XZ 00473c58 f   parse.obj
 0001:00072c80       __unwindfunclet$?readDict@@YAPAVObj@@AAV?$basic_istream@DU?$char_traits@D@std@@@std@@@Z$0 00473c80 f   parse.obj
 0001:00072c88       __unwindfunclet$?readDict@@YAPAVObj@@AAV?$basic_istream@DU?$char_traits@D@std@@@std@@@Z$1 00473c88 f   parse.obj
 0001:00072c90       __unwindfunclet$?readDict@@YAPAVObj@@AAV?$basic_istream@DU?$char_traits@D@std@@@std@@@Z$113 00473c90 f   parse.obj
 0001:00072c96       __unwindfunclet$?readDict@@YAPAVObj@@AAV?$basic_istream@DU?$char_traits@D@std@@@std@@@Z$2 00473c96 f   parse.obj
 0001:00072ca5       __unwindfunclet$?readDict@@YAPAVObj@@AAV?$basic_istream@DU?$char_traits@D@std@@@std@@@Z$41 00473ca5 f   parse.obj
 0001:00072cad       __unwindfunclet$?readDict@@YAPAVObj@@AAV?$basic_istream@DU?$char_traits@D@std@@@std@@@Z$5 00473cad f   parse.obj
 0001:00072cb5       __unwindfunclet$?readDict@@YAPAVObj@@AAV?$basic_istream@DU?$char_traits@D@std@@@std@@@Z$4 00473cb5 f   parse.obj
 0001:00072cbd       __unwindfunclet$?readDict@@YAPAVObj@@AAV?$basic_istream@DU?$char_traits@D@std@@@std@@@Z$49 00473cbd f   parse.obj
 0001:00072cc3       __ehhandler$?readDict@@YAPAVObj@@AAV?$basic_istream@DU?$char_traits@D@std@@@std@@@Z 00473cc3 f   parse.obj
 0001:00072cf0       __unwindfunclet$?readID@@YA?AV?$basic_string@DU?$char_traits@D@std@@V?$allocator@D@2@@std@@AAV?$basic_istream@DU?$char_traits@D@std@@@2@@Z$0 00473cf0 f   parse.obj
 0001:00072d09       __ehhandler$?readID@@YA?AV?$basic_string@DU?$char_traits@D@std@@V?$allocator@D@2@@std@@AAV?$basic_istream@DU?$char_traits@D@std@@@2@@Z 00473d09 f   parse.obj
 0001:00072d30       __unwindfunclet$?readName@@YAPAVObj@@AAV?$basic_istream@DU?$char_traits@D@std@@@std@@@Z$0 00473d30 f   parse.obj
 0001:00072d38       __unwindfunclet$?readName@@YAPAVObj@@AAV?$basic_istream@DU?$char_traits@D@std@@@std@@@Z$3 00473d38 f   parse.obj
 0001:00072d47       __unwindfunclet$?readName@@YAPAVObj@@AAV?$basic_istream@DU?$char_traits@D@std@@@std@@@Z$4 00473d47 f   parse.obj
 0001:00072d56       __unwindfunclet$?readName@@YAPAVObj@@AAV?$basic_istream@DU?$char_traits@D@std@@@std@@@Z$5 00473d56 f   parse.obj
 0001:00072d65       __ehhandler$?readName@@YAPAVObj@@AAV?$basic_istream@DU?$char_traits@D@std@@@std@@@Z 00473d65 f   parse.obj
 0001:00072d90       __unwindfunclet$?readScalar@@YAPAVObj@@AAV?$basic_istream@DU?$char_traits@D@std@@@std@@@Z$0 00473d90 f   parse.obj
 0001:00072d98       __ehhandler$?readScalar@@YAPAVObj@@AAV?$basic_istream@DU?$char_traits@D@std@@@std@@@Z 00473d98 f   parse.obj
 0001:00072dc0       __unwindfunclet$?readString@@YAPAVObj@@AAV?$basic_istream@DU?$char_traits@D@std@@@std@@@Z$0 00473dc0 f   parse.obj
 0001:00072dc8       __unwindfunclet$?readString@@YAPAVObj@@AAV?$basic_istream@DU?$char_traits@D@std@@@std@@@Z$1 00473dc8 f   parse.obj
 0001:00072dd7       __unwindfunclet$?readString@@YAPAVObj@@AAV?$basic_istream@DU?$char_traits@D@std@@@std@@@Z$28 00473dd7 f   parse.obj
 0001:00072ddf       __ehhandler$?readString@@YAPAVObj@@AAV?$basic_istream@DU?$char_traits@D@std@@@std@@@Z 00473ddf f   parse.obj
 0001:00072e10       __unwindfunclet$?readTuple@@YAPAVObj@@AAV?$basic_istream@DU?$char_traits@D@std@@@std@@@Z$0 00473e10 f   parse.obj
 0001:00072e18       __unwindfunclet$?readTuple@@YAPAVObj@@AAV?$basic_istream@DU?$char_traits@D@std@@@std@@@Z$2 00473e18 f   parse.obj
 0001:00072e20       __unwindfunclet$?readTuple@@YAPAVObj@@AAV?$basic_istream@DU?$char_traits@D@std@@@std@@@Z$1 00473e20 f   parse.obj
 0001:00072e2f       __unwindfunclet$?readTuple@@YAPAVObj@@AAV?$basic_istream@DU?$char_traits@D@std@@@std@@@Z$67 00473e2f f   parse.obj
 0001:00072e37       __ehhandler$?readTuple@@YAPAVObj@@AAV?$basic_istream@DU?$char_traits@D@std@@@std@@@Z 00473e37 f   parse.obj
 0001:00072e60       __unwindfunclet$??$_Buynode@ABUpiecewise_construct_t@std@@V?$tuple@ABV?$basic_string@DU?$char_traits@D@std@@V?$allocator@D@2@@std@@@2@V?$tuple@$$V@2@@?$_Tree_comp_alloc@V?$_Tmap_traits@V?$basic_string@DU?$char_traits@D@std@@V?$allocator@D@2@@std@@PAVMaterial@@U?$less@V?$basic_string@DU?$char_traits@D@std@@V?$allocator@D@2@@std@@@2@V?$allocator@U?$pair@$$CBV?$basic_string@DU?$char_traits@D@std@@V?$allocator@D@2@@std@@PAVMaterial@@@std@@@2@$0A@@std@@@std@@QAEPAU?$_Tree_node@U?$pair@$$CBV?$basic_string@DU?$char_traits@D@std@@V?$allocator@D@2@@std@@PAVMaterial@@@std@@PAX@1@ABUpiecewise_construct_t@1@$$QAV?$tuple@ABV?$basic_string@DU?$char_traits@D@std@@V?$allocator@D@2@@std@@@1@$$QAV?$tuple@$$V@1@@Z$15 00473e60 f   read.obj
 0001:00072e71       __ehhandler$??$_Buynode@ABUpiecewise_construct_t@std@@V?$tuple@ABV?$basic_string@DU?$char_traits@D@std@@V?$allocator@D@2@@std@@@2@V?$tuple@$$V@2@@?$_Tree_comp_alloc@V?$_Tmap_traits@V?$basic_string@DU?$char_traits@D@std@@V?$allocator@D@2@@std@@PAVMaterial@@U?$less@V?$basic_string@DU?$char_traits@D@std@@V?$allocator@D@2@@std@@@2@V?$allocator@U?$pair@$$CBV?$basic_string@DU?$char_traits@D@std@@V?$allocator@D@2@@std@@PAVMaterial@@@std@@@2@$0A@@std@@@std@@QAEPAU?$_Tree_node@U?$pair@$$CBV?$basic_string@DU?$char_traits@D@std@@V?$allocator@D@2@@std@@PAVMaterial@@@std@@PAX@1@ABUpiecewise_construct_t@1@$$QAV?$tuple@ABV?$basic_string@DU?$char_traits@D@std@@V?$allocator@D@2@@std@@@1@$$QAV?$tuple@$$V@1@@Z 00473e71 f   read.obj
 0001:00072e90       __ehhandler$??$_Insert_hint@AAU?$pair@$$CBV?$basic_string@DU?$char_traits@D@std@@V?$allocator@D@2@@std@@PAVMaterial@@@std@@PAU?$_Tree_node@U?$pair@$$CBV?$basic_string@DU?$char_traits@D@std@@V?$allocator@D@2@@std@@PAVMaterial@@@std@@PAX@2@@?$_Tree@V?$_Tmap_traits@V?$basic_string@DU?$char_traits@D@std@@V?$allocator@D@2@@std@@PAVMaterial@@U?$less@V?$basic_string@DU?$char_traits@D@std@@V?$allocator@D@2@@std@@@2@V?$allocator@U?$pair@$$CBV?$basic_string@DU?$char_traits@D@std@@V?$allocator@D@2@@std@@PAVMaterial@@@std@@@2@$0A@@std@@@std@@IAE?AV?$_Tree_iterator@V?$_Tree_val@U?$_Tree_simple_types@U?$pair@$$CBV?$basic_string@DU?$char_traits@D@std@@V?$allocator@D@2@@std@@PAVMaterial@@@std@@@std@@@std@@@1@V?$_Tree_const_iterator@V?$_Tree_val@U?$_Tree_simple_types@U?$pair@$$CBV?$basic_string@DU?$char_traits@D@std@@V?$allocator@D@2@@std@@PAVMaterial@@@std@@@std@@@std@@@1@AAU?$pair@$$CBV?$basic_string@DU?$char_traits@D@std@@V?$allocator@D@2@@std@@PAVMaterial@@@1@PAU?$_Tree_node@U?$pair@$$CBV?$basic_string@DU?$char_traits@D@std@@V?$allocator@D@2@@std@@PAVMaterial@@@std@@PAX@1@@Z 00473e90 f   read.obj
 0001:00072eb0       __ehhandler$??$_Insert_nohint@AAU?$pair@$$CBV?$basic_string@DU?$char_traits@D@std@@V?$allocator@D@2@@std@@PAVMaterial@@@std@@PAU?$_Tree_node@U?$pair@$$CBV?$basic_string@DU?$char_traits@D@std@@V?$allocator@D@2@@std@@PAVMaterial@@@std@@PAX@2@@?$_Tree@V?$_Tmap_traits@V?$basic_string@DU?$char_traits@D@std@@V?$allocator@D@2@@std@@PAVMaterial@@U?$less@V?$basic_string@DU?$char_traits@D@std@@V?$allocator@D@2@@std@@@2@V?$allocator@U?$pair@$$CBV?$basic_string@DU?$char_traits@D@std@@V?$allocator@D@2@@std@@PAVMaterial@@@std@@@2@$0A@@std@@@std@@IAE?AU?$pair@V?$_Tree_iterator@V?$_Tree_val@U?$_Tree_simple_types@U?$pair@$$CBV?$basic_string@DU?$char_traits@D@std@@V?$allocator@D@2@@std@@PAVMaterial@@@std@@@std@@@std@@@std@@_N@1@_NAAU?$pair@$$CBV?$basic_string@DU?$char_traits@D@std@@V?$allocator@D@2@@std@@PAVMaterial@@@1@PAU?$_Tree_node@U?$pair@$$CBV?$basic_string@DU?$char_traits@D@std@@V?$allocator@D@2@@std@@PAVMaterial@@@std@@PAX@1@@Z 00473eb0 f   read.obj
 0001:00072ed0       __unwindfunclet$??$use_facet@V?$codecvt@DDU_Mbstatet@@@std@@@std@@YAABV?$codecvt@DDU_Mbstatet@@@0@ABVlocale@0@@Z$0 00473ed0 f   read.obj
 0001:00072ed9       __ehhandler$??$use_facet@V?$codecvt@DDU_Mbstatet@@@std@@@std@@YAABV?$codecvt@DDU_Mbstatet@@@0@ABVlocale@0@@Z 00473ed9 f   read.obj
 0001:00072f00       __unwindfunclet$??0?$basic_ifstream@DU?$char_traits@D@std@@@std@@QAE@PBDHH@Z$0 00473f00 f   read.obj
 0001:00072f1d       __unwindfunclet$??0?$basic_ifstream@DU?$char_traits@D@std@@@std@@QAE@PBDHH@Z$1 00473f1d f   read.obj
 0001:00072f29       __unwindfunclet$??0?$basic_ifstream@DU?$char_traits@D@std@@@std@@QAE@PBDHH@Z$3 00473f29 f   read.obj
 0001:00072f32       __unwindfunclet$??0?$basic_ifstream@DU?$char_traits@D@std@@@std@@QAE@PBDHH@Z$2 00473f32 f   read.obj
 0001:00072f3d       __ehhandler$??0?$basic_ifstream@DU?$char_traits@D@std@@@std@@QAE@PBDHH@Z 00473f3d f   read.obj
 0001:00072f60       __unwindfunclet$??0Scene@@QAE@XZ$0 00473f60 f   read.obj
 0001:00072f6e       __unwindfunclet$??0Scene@@QAE@XZ$1 00473f6e f   read.obj
 0001:00072f7f       __unwindfunclet$??0Scene@@QAE@XZ$2 00473f7f f   read.obj
 0001:00072f90       __unwindfunclet$??0Scene@@QAE@XZ$3 00473f90 f   read.obj
 0001:00072fa1       __unwindfunclet$??0Scene@@QAE@XZ$4 00473fa1 f   read.obj
 0001:00072fb2       __ehhandler$??0Scene@@QAE@XZ 00473fb2 f   read.obj
 0001:00072fe0       __unwindfunclet$??0TransformNode@@IAE@PAV0@ABVmat4f@@@Z$0 00473fe0 f   read.obj
 0001:00072ff1       __ehhandler$??0TransformNode@@IAE@PAV0@ABVmat4f@@@Z 00473ff1 f   read.obj
 0001:00073020       __unwindfunclet$??0ostrstream@std@@QAE@XZ$0 00474020 f   read.obj
 0001:0007303d       __unwindfunclet$??0ostrstream@std@@QAE@XZ$1 0047403d f   read.obj
 0001:00073049       __unwindfunclet$??0ostrstream@std@@QAE@XZ$3 00474049 f   read.obj
 0001:00073052       __ehhandler$??0ostrstream@std@@QAE@XZ 00474052 f   read.obj
 0001:00073070       __ehhandler$??1?$basic_filebuf@DU?$char_traits@D@std@@@std@@UAE@XZ 00474070 f   read.obj
 0001:00073090       __unwindfunclet$??1?$basic_ifstream@DU?$char_traits@D@std@@@std@@UAE@XZ$0 00474090 f   read.obj
 0001:00073096       __ehhandler$??1?$basic_ifstream@DU?$char_traits@D@std@@@std@@UAE@XZ 00474096 f   read.obj
 0001:000730c0       __unwindfunclet$??1?$map@V?$basic_string@DU?$char_traits@D@std@@V?$allocator@D@2@@std@@PAVMaterial@@U?$less@V?$basic_string@DU?$char_traits@D@std@@V?$allocator@D@2@@std@@@2@V?$allocator@U?$pair@$$CBV?$basic_string@DU?$char_traits@D@std@@V?$allocator@D@2@@std@@PAVMaterial@@@std@@@2@@std@@QAE@XZ$0 004740c0 f   read.obj
 0001:000730c6       __ehhandler$??1?$map@V?$basic_string@DU?$char_traits@D@std@@V?$allocator@D@2@@std@@PAVMaterial@@U?$less@V?$basic_string@DU?$char_traits@D@std@@V?$allocator@D@2@@std@@@2@V?$allocator@U?$pair@$$CBV?$basic_string@DU?$char_traits@D@std@@V?$allocator@D@2@@std@@PAVMaterial@@@std@@@2@@std@@QAE@XZ 004740c6 f   read.obj
 0001:000730f0       __ehhandler$??1locale@std@@QAE@XZ 004740f0 f   read.obj
 0001:00073110       __unwindfunclet$??1ostrstream@std@@UAE@XZ$0 00474110 f   read.obj
 0001:00073116       __ehhandler$??1ostrstream@std@@UAE@XZ 00474116 f   read.obj
 0001:00073140       __ehhandler$??1strstreambuf@std@@UAE@XZ 00474140 f   read.obj
 0001:00073160       __ehhandler$??4?$basic_string@DU?$char_traits@D@std@@V?$allocator@D@2@@std@@QAEAAV01@$$QAV01@@Z 00474160 f   read.obj
 0001:00073180       __unwindfunclet$??6@YAAAV?$basic_ostream@DU?$char_traits@D@std@@@std@@AAV01@ABVException@@@Z$0 00474180 f   read.obj
 0001:00073188       __ehhandler$??6@YAAAV?$basic_ostream@DU?$char_traits@D@std@@@std@@AAV01@ABVException@@@Z 00474188 f   read.obj
 0001:000731b0       __unwindfunclet$??_G?$basic_filebuf@DU?$char_traits@D@std@@@std@@UAEPAXI@Z$0 004741b0 f   read.obj
 0001:000731b6       __ehhandler$??_G?$basic_filebuf@DU?$char_traits@D@std@@@std@@UAEPAXI@Z 004741b6 f   read.obj
 0001:000731e0       __unwindfunclet$??_Gstrstreambuf@std@@UAEPAXI@Z$0 004741e0 f   read.obj
 0001:000731e6       __ehhandler$??_Gstrstreambuf@std@@UAEPAXI@Z 004741e6 f   read.obj
 0001:00073210       __unwindfunclet$?_Endwrite@?$basic_filebuf@DU?$char_traits@D@std@@@std@@IAE_NXZ$0 00474210 f   read.obj
 0001:00073218       __ehhandler$?_Endwrite@?$basic_filebuf@DU?$char_traits@D@std@@@std@@IAE_NXZ 00474218 f   read.obj
 0001:00073240       __unwindfunclet$?createChild@TransformNode@@QAEPAV1@ABVmat4f@@@Z$0 00474240 f   read.obj
 0001:00073252       __ehhandler$?createChild@TransformNode@@QAEPAV1@ABVmat4f@@@Z 00474252 f   read.obj
 0001:00073270       __unwindfunclet$?erase@?$_Tree@V?$_Tmap_traits@V?$basic_string@DU?$char_traits@D@std@@V?$allocator@D@2@@std@@PAVMaterial@@U?$less@V?$basic_string@DU?$char_traits@D@std@@V?$allocator@D@2@@std@@@2@V?$allocator@U?$pair@$$CBV?$basic_string@DU?$char_traits@D@std@@V?$allocator@D@2@@std@@PAVMaterial@@@std@@@2@$0A@@std@@@std@@QAE?AV?$_Tree_iterator@V?$_Tree_val@U?$_Tree_simple_types@U?$pair@$$CBV?$basic_string@DU?$char_traits@D@std@@V?$allocator@D@2@@std@@PAVMaterial@@@std@@@std@@@std@@@2@V?$_Tree_const_iterator@V?$_Tree_val@U?$_Tree_simple_types@U?$pair@$$CBV?$basic_string@DU?$char_traits@D@std@@V?$allocator@D@2@@std@@PAVMaterial@@@std@@@std@@@std@@@2@0@Z$16 00474270 f   read.obj
 0001:00073276       __ehhandler$?erase@?$_Tree@V?$_Tmap_traits@V?$basic_string@DU?$char_traits@D@std@@V?$allocator@D@2@@std@@PAVMaterial@@U?$less@V?$basic_string@DU?$char_traits@D@std@@V?$allocator@D@2@@std@@@2@V?$allocator@U?$pair@$$CBV?$basic_string@DU?$char_traits@D@std@@V?$allocator@D@2@@std@@PAVMaterial@@@std@@@2@$0A@@std@@@std@@QAE?AV?$_Tree_iterator@V?$_Tree_val@U?$_Tree_simple_types@U?$pair@$$CBV?$basic_string@DU?$char_traits@D@std@@V?$allocator@D@2@@std@@PAVMaterial@@@std@@@std@@@std@@@2@V?$_Tree_const_iterator@V?$_Tree_val@U?$_Tree_simple_types@U?$pair@$$CBV?$basic_string@DU?$char_traits@D@std@@V?$allocator@D@2@@std@@PAVMaterial@@@std@@@std@@@std@@@2@0@Z 00474276 f   read.obj
 0001:000732a0       __unwindfunclet$?getColorField@@YAPAVObj@@PAV1@@Z$0 004742a0 f   read.obj
 0001:000732a8       __unwindfunclet$?getColorField@@YAPAVObj@@PAV1@@Z$3 004742a8 f   read.obj
 0001:000732b0       __ehhandler$?getColorField@@YAPAVObj@@PAV1@@Z 004742b0 f   read.obj
 0001:000732e0       __unwindfunclet$?getField@@YAPAVObj@@PAV1@ABV?$basic_string@DU?$char_traits@D@std@@V?$allocator@D@2@@std@@@Z$0 004742e0 f   read.obj
 0001:000732e8       __unwindfunclet$?getField@@YAPAVObj@@PAV1@ABV?$basic_string@DU?$char_traits@D@std@@V?$allocator@D@2@@std@@@Z$1 004742e8 f   read.obj
 0001:000732f0       __unwindfunclet$?getField@@YAPAVObj@@PAV1@ABV?$basic_string@DU?$char_traits@D@std@@V?$allocator@D@2@@std@@@Z$2 004742f0 f   read.obj
 0001:000732fb       __unwindfunclet$?getField@@YAPAVObj@@PAV1@ABV?$basic_string@DU?$char_traits@D@std@@V?$allocator@D@2@@std@@@Z$3 004742fb f   read.obj
 0001:00073306       __unwindfunclet$?getField@@YAPAVObj@@PAV1@ABV?$basic_string@DU?$char_traits@D@std@@V?$allocator@D@2@@std@@@Z$4 00474306 f   read.obj
 0001:00073311       __unwindfunclet$?getField@@YAPAVObj@@PAV1@ABV?$basic_string@DU?$char_traits@D@std@@V?$allocator@D@2@@std@@@Z$5 00474311 f   read.obj
 0001:0007331c       __ehhandler$?getField@@YAPAVObj@@PAV1@ABV?$basic_string@DU?$char_traits@D@std@@V?$allocator@D@2@@std@@@Z 0047431c f   read.obj
 0001:00073350       __unwindfunclet$?getMaterial@@YAPAVMaterial@@PAVObj@@ABV?$map@V?$basic_string@DU?$char_traits@D@std@@V?$allocator@D@2@@std@@PAVMaterial@@U?$less@V?$basic_string@DU?$char_traits@D@std@@V?$allocator@D@2@@std@@@2@V?$allocator@U?$pair@$$CBV?$basic_string@DU?$char_traits@D@std@@V?$allocator@D@2@@std@@PAVMaterial@@@std@@@2@@std@@@Z$0 00474350 f   read.obj
 0001:00073358       __ehhandler$?getMaterial@@YAPAVMaterial@@PAVObj@@ABV?$map@V?$basic_string@DU?$char_traits@D@std@@V?$allocator@D@2@@std@@PAVMaterial@@U?$less@V?$basic_string@DU?$char_traits@D@std@@V?$allocator@D@2@@std@@@2@V?$allocator@U?$pair@$$CBV?$basic_string@DU?$char_traits@D@std@@V?$allocator@D@2@@std@@PAVMaterial@@@std@@@2@@std@@@Z 00474358 f   read.obj
 0001:00073380       __unwindfunclet$?open@?$basic_filebuf@DU?$char_traits@D@std@@@std@@QAEPAV12@PBDHH@Z$0 00474380 f   read.obj
 0001:00073388       __unwindfunclet$?open@?$basic_filebuf@DU?$char_traits@D@std@@@std@@QAEPAV12@PBDHH@Z$1 00474388 f   read.obj
 0001:0007338e       __ehhandler$?open@?$basic_filebuf@DU?$char_traits@D@std@@@std@@QAEPAV12@PBDHH@Z 0047438e f   read.obj
 0001:000733b0       __unwindfunclet$?overflow@?$basic_filebuf@DU?$char_traits@D@std@@@std@@MAEHH@Z$0 004743b0 f   read.obj
 0001:000733b8       __ehhandler$?overflow@?$basic_filebuf@DU?$char_traits@D@std@@@std@@MAEHH@Z 004743b8 f   read.obj
 0001:000733e0       __unwindfunclet$?processCamera@@YAXPAVObj@@PAVScene@@@Z$0 004743e0 f   read.obj
 0001:000733e8       __unwindfunclet$?processCamera@@YAXPAVObj@@PAVScene@@@Z$1 004743e8 f   read.obj
 0001:000733f0       __unwindfunclet$?processCamera@@YAXPAVObj@@PAVScene@@@Z$2 004743f0 f   read.obj
 0001:000733f8       __unwindfunclet$?processCamera@@YAXPAVObj@@PAVScene@@@Z$3 004743f8 f   read.obj
 0001:00073400       __unwindfunclet$?processCamera@@YAXPAVObj@@PAVScene@@@Z$4 00474400 f   read.obj
 0001:00073408       __unwindfunclet$?processCamera@@YAXPAVObj@@PAVScene@@@Z$5 00474408 f   read.obj
 0001:00073410       __unwindfunclet$?processCamera@@YAXPAVObj@@PAVScene@@@Z$6 00474410 f   read.obj
 0001:00073418       __unwindfunclet$?processCamera@@YAXPAVObj@@PAVScene@@@Z$7 00474418 f   read.obj
 0001:00073420       __unwindfunclet$?processCamera@@YAXPAVObj@@PAVScene@@@Z$8 00474420 f   read.obj
 0001:00073428       __unwindfunclet$?processCamera@@YAXPAVObj@@PAVScene@@@Z$9 00474428 f   read.obj
 0001:00073447       __unwindfunclet$?processCamera@@YAXPAVObj@@PAVScene@@@Z$10 00474447 f   read.obj
 0001:00073466       __unwindfunclet$?processCamera@@YAXPAVObj@@PAVScene@@@Z$11 00474466 f   read.obj
 0001:00073471       __unwindfunclet$?processCamera@@YAXPAVObj@@PAVScene@@@Z$12 00474471 f   read.obj
 0001:0007347c       __ehhandler$?processCamera@@YAXPAVObj@@PAVScene@@@Z 0047447c f   read.obj
 0001:000734b0       __unwindfunclet$?processGeometry@@YAXPAVObj@@PAVScene@@ABV?$map@V?$basic_string@DU?$char_traits@D@std@@V?$allocator@D@2@@std@@PAVMaterial@@U?$less@V?$basic_string@DU?$char_traits@D@std@@V?$allocator@D@2@@std@@@2@V?$allocator@U?$pair@$$CBV?$basic_string@DU?$char_traits@D@std@@V?$allocator@D@2@@std@@PAVMaterial@@@std@@@2@@std@@PAVTransformNode@@@Z$0 004744b0 f   read.obj
 0001:000734b8       __unwindfunclet$?processGeometry@@YAXPAVObj@@PAVScene@@ABV?$map@V?$basic_string@DU?$char_traits@D@std@@V?$allocator@D@2@@std@@PAVMaterial@@U?$less@V?$basic_string@DU?$char_traits@D@std@@V?$allocator@D@2@@std@@@2@V?$allocator@U?$pair@$$CBV?$basic_string@DU?$char_traits@D@std@@V?$allocator@D@2@@std@@PAVMaterial@@@std@@@2@@std@@PAVTransformNode@@@Z$67 004744b8 f   read.obj
 0001:000734be       __unwindfunclet$?processGeometry@@YAXPAVObj@@PAVScene@@ABV?$map@V?$basic_string@DU?$char_traits@D@std@@V?$allocator@D@2@@std@@PAVMaterial@@U?$less@V?$basic_string@DU?$char_traits@D@std@@V?$allocator@D@2@@std@@@2@V?$allocator@U?$pair@$$CBV?$basic_string@DU?$char_traits@D@std@@V?$allocator@D@2@@std@@PAVMaterial@@@std@@@2@@std@@PAVTransformNode@@@Z$5 004744be f   read.obj
 0001:000734c9       __unwindfunclet$?processGeometry@@YAXPAVObj@@PAVScene@@ABV?$map@V?$basic_string@DU?$char_traits@D@std@@V?$allocator@D@2@@std@@PAVMaterial@@U?$less@V?$basic_string@DU?$char_traits@D@std@@V?$allocator@D@2@@std@@@2@V?$allocator@U?$pair@$$CBV?$basic_string@DU?$char_traits@D@std@@V?$allocator@D@2@@std@@PAVMaterial@@@std@@@2@@std@@PAVTransformNode@@@Z$6 004744c9 f   read.obj
 0001:000734d1       __ehhandler$?processGeometry@@YAXPAVObj@@PAVScene@@ABV?$map@V?$basic_string@DU?$char_traits@D@std@@V?$allocator@D@2@@std@@PAVMaterial@@U?$less@V?$basic_string@DU?$char_traits@D@std@@V?$allocator@D@2@@std@@@2@V?$allocator@U?$pair@$$CBV?$basic_string@DU?$char_traits@D@std@@V?$allocator@D@2@@std@@PAVMaterial@@@std@@@2@@std@@PAVTransformNode@@@Z 004744d1 f   read.obj
 0001:00073500       __unwindfunclet$?processGeometry@@YAXV?$basic_string@DU?$char_traits@D@std@@V?$allocator@D@2@@std@@PAVObj@@PAVScene@@ABV?$map@V?$basic_string@DU?$char_traits@D@std@@V?$allocator@D@2@@std@@PAVMaterial@@U?$less@V?$basic_string@DU?$char_traits@D@std@@V?$allocator@D@2@@std@@@2@V?$allocator@U?$pair@$$CBV?$basic_string@DU?$char_traits@D@std@@V?$allocator@D@2@@std@@PAVMaterial@@@std@@@2@@2@PAVTransformNode@@@Z$0 00474500 f   read.obj
 0001:00073508       __unwindfunclet$?processGeometry@@YAXV?$basic_string@DU?$char_traits@D@std@@V?$allocator@D@2@@std@@PAVObj@@PAVScene@@ABV?$map@V?$basic_string@DU?$char_traits@D@std@@V?$allocator@D@2@@std@@PAVMaterial@@U?$less@V?$basic_string@DU?$char_traits@D@std@@V?$allocator@D@2@@std@@@2@V?$allocator@U?$pair@$$CBV?$basic_string@DU?$char_traits@D@std@@V?$allocator@D@2@@std@@PAVMaterial@@@std@@@2@@2@PAVTransformNode@@@Z$2 00474508 f   read.obj
 0001:00073510       __unwindfunclet$?processGeometry@@YAXV?$basic_string@DU?$char_traits@D@std@@V?$allocator@D@2@@std@@PAVObj@@PAVScene@@ABV?$map@V?$basic_string@DU?$char_traits@D@std@@V?$allocator@D@2@@std@@PAVMaterial@@U?$less@V?$basic_string@DU?$char_traits@D@std@@V?$allocator@D@2@@std@@@2@V?$allocator@U?$pair@$$CBV?$basic_string@DU?$char_traits@D@std@@V?$allocator@D@2@@std@@PAVMaterial@@@std@@@2@@2@PAVTransformNode@@@Z$6 00474510 f   read.obj
 0001:00073518       __unwindfunclet$?processGeometry@@YAXV?$basic_string@DU?$char_traits@D@std@@V?$allocator@D@2@@std@@PAVObj@@PAVScene@@ABV?$map@V?$basic_string@DU?$char_traits@D@std@@V?$allocator@D@2@@std@@PAVMaterial@@U?$less@V?$basic_string@DU?$char_traits@D@std@@V?$allocator@D@2@@std@@@2@V?$allocator@U?$pair@$$CBV?$basic_string@DU?$char_traits@D@std@@V?$allocator@D@2@@std@@PAVMaterial@@@std@@@2@@2@PAVTransformNode@@@Z$7 00474518 f   read.obj
 0001:00073520       __unwindfunclet$?processGeometry@@YAXV?$basic_string@DU?$char_traits@D@std@@V?$allocator@D@2@@std@@PAVObj@@PAVScene@@ABV?$map@V?$basic_string@DU?$char_traits@D@std@@V?$allocator@D@2@@std@@PAVMaterial@@U?$less@V?$basic_string@DU?$char_traits@D@std@@V?$allocator@D@2@@std@@@2@V?$allocator@U?$pair@$$CBV?$basic_string@DU?$char_traits@D@std@@V?$allocator@D@2@@std@@PAVMaterial@@@std@@@2@@2@PAVTransformNode@@@Z$8 00474520 f   read.obj
 0001:00073528       __unwindfunclet$?processGeometry@@YAXV?$basic_string@DU?$char_traits@D@std@@V?$allocator@D@2@@std@@PAVObj@@PAVScene@@ABV?$map@V?$basic_string@DU?$char_traits@D@std@@V?$allocator@D@2@@std@@PAVMaterial@@U?$less@V?$basic_string@DU?$char_traits@D@std@@V?$allocator@D@2@@std@@@2@V?$allocator@U?$pair@$$CBV?$basic_string@DU?$char_traits@D@std@@V?$allocator@D@2@@std@@PAVMaterial@@@std@@@2@@2@PAVTransformNode@@@Z$9 00474528 f   read.obj
 0001:00073530       __ehhandler$?processGeometry@@YAXV?$basic_string@DU?$char_traits@D@std@@V?$allocator@D@2@@std@@PAVObj@@PAVScene@@ABV?$map@V?$basic_string@DU?$char_traits@D@std@@V?$allocator@D@2@@std@@PAVMaterial@@U?$less@V?$basic_string@DU?$char_traits@D@std@@V?$allocator@D@2@@std@@@2@V?$allocator@U?$pair@$$CBV?$basic_string@DU?$char_traits@D@std@@V?$allocator@D@2@@std@@PAVMaterial@@@std@@@2@@2@PAVTransformNode@@@Z 00474530 f   read.obj
 0001:00073560       __unwindfunclet$?processMaterial@@YAPAVMaterial@@PAVObj@@PAV?$map@V?$basic_string@DU?$char_traits@D@std@@V?$allocator@D@2@@std@@PAVMaterial@@U?$less@V?$basic_string@DU?$char_traits@D@std@@V?$allocator@D@2@@std@@@2@V?$allocator@U?$pair@$$CBV?$basic_string@DU?$char_traits@D@std@@V?$allocator@D@2@@std@@PAVMaterial@@@std@@@2@@std@@@Z$1 00474560 f   read.obj
 0001:00073568       __unwindfunclet$?processMaterial@@YAPAVMaterial@@PAVObj@@PAV?$map@V?$basic_string@DU?$char_traits@D@std@@V?$allocator@D@2@@std@@PAVMaterial@@U?$less@V?$basic_string@DU?$char_traits@D@std@@V?$allocator@D@2@@std@@@2@V?$allocator@U?$pair@$$CBV?$basic_string@DU?$char_traits@D@std@@V?$allocator@D@2@@std@@PAVMaterial@@@std@@@2@@std@@@Z$2 00474568 f   read.obj
 0001:00073570       __unwindfunclet$?processMaterial@@YAPAVMaterial@@PAVObj@@PAV?$map@V?$basic_string@DU?$char_traits@D@std@@V?$allocator@D@2@@std@@PAVMaterial@@U?$less@V?$basic_string@DU?$char_traits@D@std@@V?$allocator@D@2@@std@@@2@V?$allocator@U?$pair@$$CBV?$basic_string@DU?$char_traits@D@std@@V?$allocator@D@2@@std@@PAVMaterial@@@std@@@2@@std@@@Z$3 00474570 f   read.obj
 0001:00073578       __unwindfunclet$?processMaterial@@YAPAVMaterial@@PAVObj@@PAV?$map@V?$basic_string@DU?$char_traits@D@std@@V?$allocator@D@2@@std@@PAVMaterial@@U?$less@V?$basic_string@DU?$char_traits@D@std@@V?$allocator@D@2@@std@@@2@V?$allocator@U?$pair@$$CBV?$basic_string@DU?$char_traits@D@std@@V?$allocator@D@2@@std@@PAVMaterial@@@std@@@2@@std@@@Z$4 00474578 f   read.obj
 0001:00073580       __unwindfunclet$?processMaterial@@YAPAVMaterial@@PAVObj@@PAV?$map@V?$basic_string@DU?$char_traits@D@std@@V?$allocator@D@2@@std@@PAVMaterial@@U?$less@V?$basic_string@DU?$char_traits@D@std@@V?$allocator@D@2@@std@@@2@V?$allocator@U?$pair@$$CBV?$basic_string@DU?$char_traits@D@std@@V?$allocator@D@2@@std@@PAVMaterial@@@std@@@2@@std@@@Z$5 00474580 f   read.obj
 0001:00073588       __unwindfunclet$?processMaterial@@YAPAVMaterial@@PAVObj@@PAV?$map@V?$basic_string@DU?$char_traits@D@std@@V?$allocator@D@2@@std@@PAVMaterial@@U?$less@V?$basic_string@DU?$char_traits@D@std@@V?$allocator@D@2@@std@@@2@V?$allocator@U?$pair@$$CBV?$basic_string@DU?$char_traits@D@std@@V?$allocator@D@2@@std@@PAVMaterial@@@std@@@2@@std@@@Z$6 00474588 f   read.obj
 0001:00073590       __unwindfunclet$?processMaterial@@YAPAVMaterial@@PAVObj@@PAV?$map@V?$basic_string@DU?$char_traits@D@std@@V?$allocator@D@2@@std@@PAVMaterial@@U?$less@V?$basic_string@DU?$char_traits@D@std@@V?$allocator@D@2@@std@@@2@V?$allocator@U?$pair@$$CBV?$basic_string@DU?$char_traits@D@std@@V?$allocator@D@2@@std@@PAVMaterial@@@std@@@2@@std@@@Z$7 00474590 f   read.obj
